ccopy_reg
_reconstructor
p1
(cpsychopy.data
ExperimentHandler
p2
c__builtin__
object
p3
NtRp4
(dp5
S'originPath'
p6
S'/Users/patrickbissett/OneDrive/Poldrack/TrainedInhibition/PsychoPy/ShapeLearningTaskCounterbalanceRemovePrac7.psyexp'
p7
sS'dataFileName'
p8
V/Users/patrickbissett/OneDrive/Poldrack/TrainedInhibition/PsychoPy/data/3002_2015_Mar_31_0943
p9
sS'runtimeInfo'
p10
NsS'name'
p11
S'LearningTask'
p12
sS'dataNames'
p13
(lp14
S'ok1.keys'
p15
aS'ok1.rt'
p16
aS'goResp.keys'
p17
aS'goResp.corr'
p18
aS'goResp.rt'
p19
asS'autoLog'
p20
I01
sS'extraInfo'
p21
(dp22
S'expName'
p23
g12
sS'gender (m/f)'
p24
V
sS'age'
p25
V
sS'frameRate'
p26
cnumpy.core.multiarray
scalar
p27
(cnumpy
dtype
p28
(S'f8'
I0
I1
tRp29
(I3
S'<'
NNNI-1
I-1
I0
tbS'\n\xeb\xe2\x96\xdd\xfdM@'
tRp30
sS'session'
p31
I3
sS'date'
p32
V2015_Mar_31_0943
p33
sS'participant'
p34
V3002
p35
ssS'loopsUnfinished'
p36
(lp37
g1
(cpsychopy.data
TrialHandler
p38
g3
NtRp39
(dp40
S'origin'
p41
V<PsychoPy2experiment version="1.82.01" encoding="utf-8">\u000a  <Settings>\u000a    <Param name="Show mouse" val="False" valType="bool" updates="None"/>\u000a    <Param name="Data filename" val="u'data' + os.sep + '%s_%s' %(expInfo['participant'], expInfo['date'])" valType="code" updates="None"/>\u000a    <Param name="Monitor" val="testMonitor" valType="str" updates="None"/>\u000a    <Param name="Enable Escape" val="True" valType="bool" updates="None"/>\u000a    <Param name="color" val="black" valType="str" updates="None"/>\u000a    <Param name="Window size (pixels)" val="[1680, 1050]" valType="code" updates="None"/>\u000a    <Param name="Full-screen window" val="True" valType="bool" updates="None"/>\u000a    <Param name="colorSpace" val="rgb" valType="str" updates="None"/>\u000a    <Param name="Experiment info" val="{'participant':'', 'gender (m/f)':'', 'age':'', 'session':03}" valType="code" updates="None"/>\u000a    <Param name="Save csv file" val="False" valType="bool" updates="None"/>\u000a    <Param name="Show info dlg" val="True" valType="bool" updates="None"/>\u000a    <Param name="Save wide csv file" val="True" valType="bool" updates="None"/>\u000a    <Param name="Save psydat file" val="True" valType="bool" updates="None"/>\u000a    <Param name="expName" val="LearningTask" valType="str" updates="None"/>\u000a    <Param name="logging level" val="warning" valType="code" updates="None"/>\u000a    <Param name="blendMode" val="avg" valType="str" updates="None"/>\u000a    <Param name="Save excel file" val="True" valType="bool" updates="None"/>\u000a    <Param name="Units" val="use prefs" valType="str" updates="None"/>\u000a    <Param name="Save log file" val="True" valType="bool" updates="None"/>\u000a    <Param name="Screen" val="1" valType="num" updates="None"/>\u000a  </Settings>\u000a  <Routines>\u000a    <Routine name="stopBlockSetup">\u000a      <CodeComponent name="code_9">\u000a        <Param name="Begin Experiment" val="goCumRT = 0&#10;goRTCount = 0&#10;omissionCount = 0&#10;commissionCount = 0&#10;stopTrialCount = 0&#10;stopSuccessCount = 0&#10;goTrialCount = 0" valType="extendedCode" updates="constant"/>\u000a        <Param name="name" val="code_9" valType="code" updates="None"/>\u000a        <Param name="Begin Routine" val="" valType="extendedCode" updates="constant"/>\u000a        <Param name="End Routine" val="" valType="extendedCode" updates="constant"/>\u000a        <Param name="End Experiment" val="" valType="extendedCode" updates="constant"/>\u000a        <Param name="Each Frame" val="" valType="extendedCode" updates="constant"/>\u000a      </CodeComponent>\u000a    </Routine>\u000a    <Routine name="blankStop">\u000a      <TextComponent name="text_4">\u000a        <Param name="opacity" val="1" valType="code" updates="constant"/>\u000a        <Param name="colorSpace" val="rgb" valType="str" updates="constant"/>\u000a        <Param name="name" val="text_4" valType="code" updates="None"/>\u000a        <Param name="wrapWidth" val="" valType="code" updates="constant"/>\u000a        <Param name="color" val="white" valType="str" updates="constant"/>\u000a        <Param name="text" val="THIS IS THE BLANK SCREEN" valType="str" updates="constant"/>\u000a        <Param name="stopVal" val="1.5" valType="code" updates="constant"/>\u000a        <Param name="durationEstim" val="" valType="code" updates="None"/>\u000a        <Param name="pos" val="[0, 0]" valType="code" updates="constant"/>\u000a        <Param name="flip" val="" valType="str" updates="constant"/>\u000a        <Param name="startEstim" val="" valType="code" updates="None"/>\u000a        <Param name="units" val="from exp settings" valType="str" updates="None"/>\u000a        <Param name="startType" val="time (s)" valType="str" updates="None"/>\u000a        <Param name="ori" val="0" valType="code" updates="constant"/>\u000a        <Param name="stopType" val="duration (s)" valType="str" updates="None"/>\u000a        <Param name="startVal" val="0.0" valType="code" updates="None"/>\u000a        <Param name="font" val="Arial" valType="str" updates="constant"/>\u000a        <Param name="letterHeight" val="0.1" valType="code" updates="constant"/>\u000a      </TextComponent>\u000a    </Routine>\u000a    <Routine name="End">\u000a      <TextComponent name="text_6">\u000a        <Param name="opacity" val="1" valType="code" updates="constant"/>\u000a        <Param name="colorSpace" val="rgb" valType="str" updates="constant"/>\u000a        <Param name="name" val="text_6" valType="code" updates="None"/>\u000a        <Param name="wrapWidth" val="" valType="code" updates="constant"/>\u000a        <Param name="color" val="white" valType="str" updates="constant"/>\u000a        <Param name="text" val="Bye" valType="str" updates="constant"/>\u000a        <Param name="stopVal" val="1.0" valType="code" updates="constant"/>\u000a        <Param name="durationEstim" val="" valType="code" updates="None"/>\u000a        <Param name="pos" val="[0, 0]" valType="code" updates="constant"/>\u000a        <Param name="flip" val="" valType="str" updates="constant"/>\u000a        <Param name="startEstim" val="" valType="code" updates="None"/>\u000a        <Param name="units" val="from exp settings" valType="str" updates="None"/>\u000a        <Param name="startType" val="time (s)" valType="str" updates="None"/>\u000a        <Param name="ori" val="0" valType="code" updates="constant"/>\u000a        <Param name="stopType" val="duration (s)" valType="str" updates="None"/>\u000a        <Param name="startVal" val="0.0" valType="code" updates="None"/>\u000a        <Param name="font" val="Arial" valType="str" updates="constant"/>\u000a        <Param name="letterHeight" val="0.1" valType="code" updates="constant"/>\u000a      </TextComponent>\u000a    </Routine>\u000a    <Routine name="instrStopPrac">\u000a      <TextComponent name="instrStopText">\u000a        <Param name="opacity" val="1" valType="code" updates="constant"/>\u000a        <Param name="colorSpace" val="rgb" valType="str" updates="constant"/>\u000a        <Param name="name" val="instrStopText" valType="code" updates="None"/>\u000a        <Param name="wrapWidth" val="" valType="code" updates="constant"/>\u000a        <Param name="color" val="white" valType="str" updates="constant"/>\u000a        <Param name="text" val="A shape stimulus will appear on the left or right side of the screen&#10;&#10;If it appears on the left, press Z&#10;&#10;If it appears on the right, press M&#10;&#10;If you hear a tone, do not press anything on that trial" valType="str" updates="constant"/>\u000a        <Param name="stopVal" val="" valType="code" updates="constant"/>\u000a        <Param name="durationEstim" val="" valType="code" updates="None"/>\u000a        <Param name="pos" val="[0, 0]" valType="code" updates="constant"/>\u000a        <Param name="flip" val="" valType="str" updates="constant"/>\u000a        <Param name="startEstim" val="" valType="code" updates="None"/>\u000a        <Param name="units" val="from exp settings" valType="str" updates="None"/>\u000a        <Param name="startType" val="time (s)" valType="str" updates="None"/>\u000a        <Param name="ori" val="0" valType="code" updates="constant"/>\u000a        <Param name="stopType" val="duration (s)" valType="str" updates="None"/>\u000a        <Param name="startVal" val="0.0" valType="code" updates="None"/>\u000a        <Param name="font" val="Arial" valType="str" updates="constant"/>\u000a        <Param name="letterHeight" val="0.1" valType="code" updates="constant"/>\u000a      </TextComponent>\u000a      <KeyboardComponent name="key_resp_2">\u000a        <Param name="correctAns" val="" valType="str" updates="constant"/>\u000a        <Param name="storeCorrect" val="False" valType="bool" updates="constant"/>\u000a        <Param name="name" val="key_resp_2" valType="code" updates="None"/>\u000a        <Param name="stopVal" val="" valType="code" updates="constant"/>\u000a        <Param name="durationEstim" val="" valType="code" updates="None"/>\u000a        <Param name="forceEndRoutine" val="True" valType="bool" updates="constant"/>\u000a        <Param name="startEstim" val="" valType="code" updates="None"/>\u000a        <Param name="discard previous" val="True" valType="bool" updates="constant"/>\u000a        <Param name="startType" val="time (s)" valType="str" updates="None"/>\u000a        <Param name="allowedKeys" val="" valType="code" updates="constant"/>\u000a        <Param name="stopType" val="duration (s)" valType="str" updates="None"/>\u000a        <Param name="startVal" val="0.0" valType="code" updates="None"/>\u000a        <Param name="store" val="nothing" valType="str" updates="constant"/>\u000a      </KeyboardComponent>\u000a      <CodeComponent name="code_8">\u000a        <Param name="Begin Experiment" val="" valType="extendedCode" updates="constant"/>\u000a        <Param name="name" val="code_8" valType="code" updates="None"/>\u000a        <Param name="Begin Routine" val="InitSSD = 250&#10;SSDLeft = InitSSD&#10;SSDRight = InitSSD" valType="extendedCode" updates="constant"/>\u000a        <Param name="End Routine" val="" valType="extendedCode" updates="constant"/>\u000a        <Param name="End Experiment" val="" valType="extendedCode" updates="constant"/>\u000a        <Param name="Each Frame" val="" valType="extendedCode" updates="constant"/>\u000a      </CodeComponent>\u000a    </Routine>\u000a    <Routine name="ExitMain">\u000a      <CodeComponent name="code_6">\u000a        <Param name="Begin Experiment" val="" valType="extendedCode" updates="constant"/>\u000a        <Param name="name" val="code_6" valType="code" updates="None"/>\u000a        <Param name="Begin Routine" val="" valType="extendedCode" updates="constant"/>\u000a        <Param name="End Routine" val="if resp.corr:&#10;    ReDoLoopMain.finished = True" valType="extendedCode" updates="constant"/>\u000a        <Param name="End Experiment" val="" valType="extendedCode" updates="constant"/>\u000a        <Param name="Each Frame" val="" valType="extendedCode" updates="constant"/>\u000a      </CodeComponent>\u000a    </Routine>\u000a    <Routine name="endOfStopBlockFeedback">\u000a      <CodeComponent name="code_10">\u000a        <Param name="Begin Experiment" val="" valType="extendedCode" updates="constant"/>\u000a        <Param name="name" val="code_10" valType="code" updates="None"/>\u000a        <Param name="Begin Routine" val="goRTFeedback = str(goCumRT/goRTCount)&#10;commissionRate = str(commissionCount/goTrialCount)&#10;omissionRate = str(omissionCount/goTrialCount)&#10;probabilityOfStop = str(stopSuccessCount/stopTrialCount)&#10;SSDFeedback = str(numpy.mean(SSDLeft, SSDRight))" valType="extendedCode" updates="constant"/>\u000a        <Param name="End Routine" val="" valType="extendedCode" updates="constant"/>\u000a        <Param name="End Experiment" val="" valType="extendedCode" updates="constant"/>\u000a        <Param name="Each Frame" val="" valType="extendedCode" updates="constant"/>\u000a      </CodeComponent>\u000a      <TextComponent name="text_5">\u000a        <Param name="opacity" val="1" valType="code" updates="constant"/>\u000a        <Param name="colorSpace" val="rgb" valType="str" updates="constant"/>\u000a        <Param name="name" val="text_5" valType="code" updates="None"/>\u000a        <Param name="wrapWidth" val="" valType="code" updates="constant"/>\u000a        <Param name="color" val="white" valType="str" updates="constant"/>\u000a        <Param name="text" val="blah" valType="str" updates="constant"/>\u000a        <Param name="stopVal" val="" valType="code" updates="constant"/>\u000a        <Param name="durationEstim" val="" valType="code" updates="None"/>\u000a        <Param name="pos" val="[0, 0]" valType="code" updates="constant"/>\u000a        <Param name="flip" val="" valType="str" updates="constant"/>\u000a        <Param name="startEstim" val="" valType="code" updates="None"/>\u000a        <Param name="units" val="from exp settings" valType="str" updates="None"/>\u000a        <Param name="startType" val="time (s)" valType="str" updates="None"/>\u000a        <Param name="ori" val="0" valType="code" updates="constant"/>\u000a        <Param name="stopType" val="duration (s)" valType="str" updates="None"/>\u000a        <Param name="startVal" val="0.0" valType="code" updates="None"/>\u000a        <Param name="font" val="Arial" valType="str" updates="constant"/>\u000a        <Param name="letterHeight" val="0.1" valType="code" updates="constant"/>\u000a      </TextComponent>\u000a      <KeyboardComponent name="key_resp_3">\u000a        <Param name="correctAns" val="" valType="str" updates="constant"/>\u000a        <Param name="storeCorrect" val="False" valType="bool" updates="constant"/>\u000a        <Param name="name" val="key_resp_3" valType="code" updates="None"/>\u000a        <Param name="stopVal" val="" valType="code" updates="constant"/>\u000a        <Param name="durationEstim" val="" valType="code" updates="None"/>\u000a        <Param name="forceEndRoutine" val="True" valType="bool" updates="constant"/>\u000a        <Param name="startEstim" val="" valType="code" updates="None"/>\u000a        <Param name="discard previous" val="True" valType="bool" updates="constant"/>\u000a        <Param name="startType" val="time (s)" valType="str" updates="None"/>\u000a        <Param name="allowedKeys" val="'y','n','left','right','space'" valType="code" updates="set every repeat"/>\u000a        <Param name="stopType" val="duration (s)" valType="str" updates="None"/>\u000a        <Param name="startVal" val="0.0" valType="code" updates="None"/>\u000a        <Param name="store" val="last key" valType="str" updates="constant"/>\u000a      </KeyboardComponent>\u000a    </Routine>\u000a    <Routine name="NewStim">\u000a      <CodeComponent name="code_4">\u000a        <Param name="Begin Experiment" val="" valType="extendedCode" updates="constant"/>\u000a        <Param name="name" val="code_4" valType="code" updates="None"/>\u000a        <Param name="Begin Routine" val="currentLearningTrial = learningTrialList.pop(0)&#10;currentStimulus = currentLearningTrial['fileName']&#10;" valType="extendedCode" updates="constant"/>\u000a        <Param name="End Routine" val="" valType="extendedCode" updates="constant"/>\u000a        <Param name="End Experiment" val="" valType="extendedCode" updates="constant"/>\u000a        <Param name="Each Frame" val="" valType="extendedCode" updates="constant"/>\u000a      </CodeComponent>\u000a    </Routine>\u000a    <Routine name="SSDChange">\u000a      <CodeComponent name="code_2">\u000a        <Param name="Begin Experiment" val="" valType="extendedCode" updates="constant"/>\u000a        <Param name="name" val="code_2" valType="code" updates="None"/>\u000a        <Param name="Begin Routine" val="if goResp.keys is None:&#10;    if xPosGoStim == -200:&#10;        SSDLeft = SSDLeft  + 50&#10;    if xPosGoStim == 200:&#10;        SSDRight = SSDRight + 50&#10;else:&#10;    if xPosGoStim == -200:&#10;        SSDLeft = SSDLeft - 50&#10;    if xPosGoStim == 200:&#10;        SSDRight = SSDRight - 50&#10;&#10;if currentStopTrial['stopOrGo'] == 'go':&#10;    goTrialCount = goTrialCount + 1&#10;&#10;if goResp.corr and currentStopTrial['stopOrGo'] == 'go':&#10;    goCumRT = goCumRT + goResp.RT&#10;    goRTCount = goRTCount + 1&#10;&#10;if currentStopTrial['stopOrGo'] == 'stop':&#10;    stopTrialCount = stopTrialCount + 1&#10;&#10;if currentStopTrial['stopOrGo'] == 'stop' and goResp.keys is None:&#10;    stopSuccessCount = stopSuccessCount + 1&#10;&#10;if goResp.keys is None and currentStopTrial['stopOrGo'] == 'go':&#10;    omissionCount = 0&#10;&#10;if goResp != corrGoResp:&#10;    commissionCount = commissionCount + 1" valType="extendedCode" updates="constant"/>\u000a        <Param name="End Routine" val="" valType="extendedCode" updates="constant"/>\u000a        <Param name="End Experiment" val="" valType="extendedCode" updates="constant"/>\u000a        <Param name="Each Frame" val="" valType="extendedCode" updates="constant"/>\u000a      </CodeComponent>\u000a    </Routine>\u000a    <Routine name="instrPractice">\u000a      <TextComponent name="instruct1">\u000a        <Param name="opacity" val="1" valType="code" updates="constant"/>\u000a        <Param name="colorSpace" val="rgb" valType="str" updates="constant"/>\u000a        <Param name="name" val="instruct1" valType="code" updates="constant"/>\u000a        <Param name="wrapWidth" val="" valType="code" updates="constant"/>\u000a        <Param name="color" val="white" valType="str" updates="constant"/>\u000a        <Param name="text" val="A shape stimulus will appear on every trial. &#10;&#10;If it appears in the upper right quadrant, PRESS I&#10;&#10;If it appears in the lower right quadrant, PRESS K&#10;&#10;If it appears in the lower left quadrant, PRESS J&#10;&#10;If it appears in the upper left quadrant, PRESS U&#10;&#10;Press any key when you are ready to proceed. " valType="str" updates="constant"/>\u000a        <Param name="stopVal" val="" valType="code" updates="constant"/>\u000a        <Param name="durationEstim" val="" valType="code" updates="None"/>\u000a        <Param name="pos" val="[0, 0]" valType="code" updates="constant"/>\u000a        <Param name="flip" val="" valType="str" updates="constant"/>\u000a        <Param name="startEstim" val="" valType="code" updates="None"/>\u000a        <Param name="units" val="from exp settings" valType="str" updates="None"/>\u000a        <Param name="startType" val="time (s)" valType="str" updates="None"/>\u000a        <Param name="ori" val="0" valType="code" updates="constant"/>\u000a        <Param name="stopType" val="duration (s)" valType="str" updates="None"/>\u000a        <Param name="startVal" val="0.0" valType="code" updates="None"/>\u000a        <Param name="font" val="Arial" valType="str" updates="constant"/>\u000a        <Param name="letterHeight" val="0.07" valType="code" updates="constant"/>\u000a      </TextComponent>\u000a      <KeyboardComponent name="ok1">\u000a        <Param name="correctAns" val="" valType="str" updates="constant"/>\u000a        <Param name="storeCorrect" val="False" valType="bool" updates="constant"/>\u000a        <Param name="name" val="ok1" valType="code" updates="None"/>\u000a        <Param name="stopVal" val="" valType="code" updates="constant"/>\u000a        <Param name="durationEstim" val="" valType="code" updates="None"/>\u000a        <Param name="forceEndRoutine" val="True" valType="bool" updates="constant"/>\u000a        <Param name="startEstim" val="" valType="code" updates="None"/>\u000a        <Param name="discard previous" val="True" valType="bool" updates="constant"/>\u000a        <Param name="startType" val="time (s)" valType="str" updates="None"/>\u000a        <Param name="allowedKeys" val="" valType="code" updates="constant"/>\u000a        <Param name="stopType" val="duration (s)" valType="str" updates="None"/>\u000a        <Param name="startVal" val="0.0" valType="code" updates="None"/>\u000a        <Param name="store" val="last key" valType="str" updates="constant"/>\u000a      </KeyboardComponent>\u000a    </Routine>\u000a    <Routine name="ExitPrac">\u000a      <CodeComponent name="code_5">\u000a        <Param name="Begin Experiment" val="" valType="extendedCode" updates="constant"/>\u000a        <Param name="name" val="code_5" valType="code" updates="None"/>\u000a        <Param name="Begin Routine" val="" valType="extendedCode" updates="constant"/>\u000a        <Param name="End Routine" val="if resp.corr:&#10;    ReDoLoop.finished = True " valType="extendedCode" updates="constant"/>\u000a        <Param name="End Experiment" val="" valType="extendedCode" updates="constant"/>\u000a        <Param name="Each Frame" val="" valType="extendedCode" updates="constant"/>\u000a      </CodeComponent>\u000a    </Routine>\u000a    <Routine name="trial">\u000a      <KeyboardComponent name="resp">\u000a        <Param name="correctAns" val="$corrAns" valType="str" updates="constant"/>\u000a        <Param name="storeCorrect" val="True" valType="bool" updates="constant"/>\u000a        <Param name="name" val="resp" valType="code" updates="None"/>\u000a        <Param name="stopVal" val="1" valType="code" updates="constant"/>\u000a        <Param name="durationEstim" val="" valType="code" updates="None"/>\u000a        <Param name="forceEndRoutine" val="True" valType="bool" updates="constant"/>\u000a        <Param name="startEstim" val="" valType="code" updates="None"/>\u000a        <Param name="discard previous" val="True" valType="bool" updates="constant"/>\u000a        <Param name="startType" val="time (s)" valType="str" updates="None"/>\u000a        <Param name="allowedKeys" val="'u', 'i', 'j', 'k'" valType="code" updates="constant"/>\u000a        <Param name="stopType" val="duration (s)" valType="str" updates="None"/>\u000a        <Param name="startVal" val=".5" valType="code" updates="None"/>\u000a        <Param name="store" val="last key" valType="str" updates="constant"/>\u000a      </KeyboardComponent>\u000a      <TextComponent name="text">\u000a        <Param name="opacity" val="1" valType="code" updates="constant"/>\u000a        <Param name="colorSpace" val="rgb" valType="str" updates="constant"/>\u000a        <Param name="name" val="text" valType="code" updates="None"/>\u000a        <Param name="wrapWidth" val="" valType="code" updates="constant"/>\u000a        <Param name="color" val="white" valType="str" updates="constant"/>\u000a        <Param name="text" val="+" valType="str" updates="constant"/>\u000a        <Param name="stopVal" val="1.5" valType="code" updates="constant"/>\u000a        <Param name="durationEstim" val="" valType="code" updates="None"/>\u000a        <Param name="pos" val="[0, 0]" valType="code" updates="constant"/>\u000a        <Param name="flip" val="" valType="str" updates="constant"/>\u000a        <Param name="startEstim" val="" valType="code" updates="None"/>\u000a        <Param name="units" val="from exp settings" valType="str" updates="None"/>\u000a        <Param name="startType" val="time (s)" valType="str" updates="None"/>\u000a        <Param name="ori" val="0" valType="code" updates="constant"/>\u000a        <Param name="stopType" val="duration (s)" valType="str" updates="None"/>\u000a        <Param name="startVal" val="0.0" valType="code" updates="None"/>\u000a        <Param name="font" val="Arial" valType="str" updates="constant"/>\u000a        <Param name="letterHeight" val="1" valType="code" updates="constant"/>\u000a      </TextComponent>\u000a      <ImageComponent name="image_2">\u000a        <Param name="opacity" val="1" valType="code" updates="constant"/>\u000a        <Param name="flipVert" val="False" valType="bool" updates="constant"/>\u000a        <Param name="colorSpace" val="rgb" valType="str" updates="constant"/>\u000a        <Param name="name" val="image_2" valType="code" updates="None"/>\u000a        <Param name="color" val="$[1,1,1]" valType="str" updates="constant"/>\u000a        <Param name="stopVal" val="1.0" valType="code" updates="constant"/>\u000a        <Param name="durationEstim" val="" valType="code" updates="None"/>\u000a        <Param name="mask" val="None" valType="str" updates="constant"/>\u000a        <Param name="pos" val="$[xPos, yPos]" valType="code" updates="set every repeat"/>\u000a        <Param name="interpolate" val="linear" valType="str" updates="constant"/>\u000a        <Param name="startEstim" val="" valType="code" updates="None"/>\u000a        <Param name="units" val="pix" valType="str" updates="None"/>\u000a        <Param name="texture resolution" val="128" valType="code" updates="constant"/>\u000a        <Param name="startType" val="time (s)" valType="str" updates="None"/>\u000a        <Param name="ori" val="0" valType="code" updates="constant"/>\u000a        <Param name="stopType" val="duration (s)" valType="str" updates="None"/>\u000a        <Param name="startVal" val=".5" valType="code" updates="None"/>\u000a        <Param name="flipHoriz" val="False" valType="bool" updates="constant"/>\u000a        <Param name="image" val="$currentStimulus" valType="str" updates="set every repeat"/>\u000a        <Param name="size" val="[151, 151]" valType="code" updates="constant"/>\u000a      </ImageComponent>\u000a    </Routine>\u000a    <Routine name="StimSetup">\u000a      <CodeComponent name="code">\u000a        <Param name="Begin Experiment" val="from copy import deepcopy&#10;colors = ['yellow', 'white', 'orange', 'magenta', 'green', 'gray', 'cyan', 'blue']&#10;shapes = ['triangle', 'square', 'line', 'invertedtriangle', 'hexagon', 'diamond', 'cross', 'circle']&#10;rewards = [0.50, 1.00, 2.00, 4.00] * 2&#10;conditions = ['go', 'go', 'go', 'go', 'stop', 'stop', 'stop', 'stop']&#10;trialDetailsList = []&#10;learningTrialList = []&#10;&#10;shuffle(colors)&#10;shuffle(shapes)&#10;&#10;for i, color in enumerate(colors): # cycle through each color and keep track of an index number&#10;    trialDetails = {} # a dictionary of key-value pairs&#10;    trialDetails['fileName'] = shapes[i] + color + '.gif'&#10;    trialDetails['reward'] = rewards[i]&#10;    trialDetails['condition'] = conditions[i]&#10;    trialDetailsList.append(trialDetails)&#10;&#10;shuffle(trialDetailsList) # do this now to ensure that order of presentation of rewards and conditions is also shuffled&#10;&#10;conditionOne = trialDetailsList[0]&#10;conditionTwo = trialDetailsList[1]&#10;conditionThree = trialDetailsList[2]&#10;conditionFour = trialDetailsList[3]&#10;conditionFive = trialDetailsList[4]&#10;conditionSix = trialDetailsList[5]&#10;conditionSeven = trialDetailsList[6]&#10;conditionEight = trialDetailsList[7]&#10;&#10;numLearningTrials = 400&#10;numLearningRepetitions = 50&#10;for k in range(1, numLearningRepetitions + 1):&#10;    learningTrialList.append(conditionOne)&#10;    learningTrialList.append(conditionTwo)&#10;    learningTrialList.append(conditionThree)&#10;    learningTrialList.append(conditionFour)&#10;    learningTrialList.append(conditionFive)&#10;    learningTrialList.append(conditionSix)&#10;    learningTrialList.append(conditionSeven)&#10;    learningTrialList.append(conditionEight)&#10;&#10;shuffle(learningTrialList)&#10;&#10;stopTaskTrials = 272&#10;stopTrialsPerStopStim = 26&#10;goTrialsPerStopStim = 8&#10;goTrialsPerGoStim = 34&#10;numStim = 8&#10;stopTrialList = []&#10;&#10;if conditionOne['condition'] == 'go':&#10;    conditionOne['stopOrGo'] = 'go'&#10;    for i in range(1, goTrialsPerGoStim + 1):&#10;        stopTrialList.append(conditionOne)&#10;else:&#10;    for j in range(1, goTrialsPerStopStim + 1):&#10;        conditionOne['stopOrGo'] = 'go'&#10;        stopTrialList.append(deepcopy(conditionOne))&#10;    for i in range(1, stopTrialsPerStopStim + 1):&#10;        conditionOne['stopOrGo'] = 'stop'&#10;        stopTrialList.append(deepcopy(conditionOne))&#10;if conditionTwo['condition'] == 'go':&#10;    conditionTwo['stopOrGo'] = 'go'&#10;    for i in range(1, goTrialsPerGoStim + 1):&#10;        stopTrialList.append(conditionTwo)&#10;else:&#10;    for j in range(1, goTrialsPerStopStim + 1):&#10;        conditionTwo['stopOrGo'] = 'go'&#10;        stopTrialList.append(deepcopy(conditionTwo))&#10;    for i in range(1,  stopTrialsPerStopStim + 1):&#10;        conditionTwo['stopOrGo'] = 'stop'&#10;        stopTrialList.append(deepcopy(conditionTwo))&#10;if conditionThree['condition'] == 'go':&#10;    conditionThree['stopOrGo'] = 'go'&#10;    for i in range(1, goTrialsPerGoStim + 1):&#10;        stopTrialList.append(conditionThree)&#10;else:&#10;    for j in range(1, goTrialsPerStopStim + 1):&#10;        conditionThree['stopOrGo'] = 'go'&#10;        stopTrialList.append(deepcopy(conditionThree))&#10;    for i in range(1, stopTrialsPerStopStim + 1):&#10;        conditionThree['stopOrGo'] = 'stop'&#10;        stopTrialList.append(deepcopy(conditionThree))&#10;if conditionFour['condition'] == 'go':&#10;    conditionFour['stopOrGo'] = 'go'&#10;    for i in range(1, goTrialsPerGoStim + 1):&#10;        stopTrialList.append(conditionFour)&#10;else:&#10;    for j in range(1, goTrialsPerStopStim + 1):&#10;        conditionFour['stopOrGo'] = 'go'&#10;        stopTrialList.append(deepcopy(conditionFour))&#10;    for i in range(1, stopTrialsPerStopStim + 1):&#10;        conditionFour['stopOrGo'] = 'stop'&#10;        stopTrialList.append(deepcopy(conditionFour))&#10;if conditionFive['condition'] == 'go':&#10;    conditionFive['stopOrGo'] = 'go'&#10;    for i in range(1, goTrialsPerGoStim + 1):&#10;        stopTrialList.append(conditionFive)&#10;else:&#10;    for j in range(1, goTrialsPerStopStim + 1):&#10;        conditionFive['stopOrGo'] = 'go'&#10;        stopTrialList.append(deepcopy(conditionFive))&#10;    for i in range(1, stopTrialsPerStopStim + 1):&#10;        conditionFive['stopOrGo'] = 'stop'&#10;        stopTrialList.append(deepcopy(conditionFive))&#10;if conditionSix['condition'] == 'go':&#10;    conditionSix['stopOrGo'] = 'go'&#10;    for i in range(1, goTrialsPerGoStim + 1):&#10;        stopTrialList.append(conditionSix)&#10;else:&#10;    for j in range(1, stopTrialsPerStopStim + 1):&#10;        conditionSix['stopOrGo'] = 'go'&#10;        stopTrialList.append(deepcopy(conditionSix))&#10;    for i in range(1, goTrialsPerStopStim + 1):&#10;        conditionSix['stopOrGo'] = 'stop'&#10;        stopTrialList.append(deepcopy(conditionSix))&#10;if conditionSeven['condition'] == 'go':&#10;    conditionSeven['stopOrGo'] = 'go'&#10;    for i in range(1, goTrialsPerGoStim + 1):&#10;        stopTrialList.append(conditionSeven)&#10;else:&#10;    for j in range(1, goTrialsPerStopStim + 1):&#10;        conditionSeven['stopOrGo'] = 'go'&#10;        stopTrialList.append(deepcopy(conditionSeven))&#10;    for i in range(1, stopTrialsPerStopStim + 1):&#10;        conditionSeven['stopOrGo'] = 'stop'&#10;        stopTrialList.append(deepcopy(conditionSeven))&#10;if conditionEight['condition'] == 'go':&#10;    conditionEight['stopOrGo'] = 'go'&#10;    for i in range(1, goTrialsPerGoStim + 1):&#10;        stopTrialList.append(conditionEight)&#10;else:&#10;    for j in range(1, goTrialsPerStopStim + 1):&#10;        conditionEight['stopOrGo'] = 'go'&#10;        stopTrialList.append(deepcopy(conditionEight))&#10;    for i in range(1, stopTrialsPerStopStim + 1):&#10;        conditionEight['stopOrGo'] = 'stop'&#10;        stopTrialList.append(deepcopy(conditionEight))&#10;&#10;shuffle(stopTrialList)" valType="extendedCode" updates="constant"/>\u000a        <Param name="name" val="code" valType="code" updates="None"/>\u000a        <Param name="Begin Routine" val="" valType="extendedCode" updates="constant"/>\u000a        <Param name="End Routine" val="" valType="extendedCode" updates="constant"/>\u000a        <Param name="End Experiment" val="" valType="extendedCode" updates="constant"/>\u000a        <Param name="Each Frame" val="" valType="extendedCode" updates="constant"/>\u000a      </CodeComponent>\u000a    </Routine>\u000a    <Routine name="Bank"/>\u000a    <Routine name="Blank">\u000a      <TextComponent name="text_2">\u000a        <Param name="opacity" val="1" valType="code" updates="constant"/>\u000a        <Param name="colorSpace" val="rgb" valType="str" updates="constant"/>\u000a        <Param name="name" val="text_2" valType="code" updates="None"/>\u000a        <Param name="wrapWidth" val="" valType="code" updates="constant"/>\u000a        <Param name="color" val="white" valType="str" updates="constant"/>\u000a        <Param name="text" val="" valType="str" updates="constant"/>\u000a        <Param name="stopVal" val=".5" valType="code" updates="constant"/>\u000a        <Param name="durationEstim" val="" valType="code" updates="None"/>\u000a        <Param name="pos" val="[0, 0]" valType="code" updates="constant"/>\u000a        <Param name="flip" val="" valType="str" updates="constant"/>\u000a        <Param name="startEstim" val="" valType="code" updates="None"/>\u000a        <Param name="units" val="from exp settings" valType="str" updates="None"/>\u000a        <Param name="startType" val="time (s)" valType="str" updates="None"/>\u000a        <Param name="ori" val="0" valType="code" updates="constant"/>\u000a        <Param name="stopType" val="duration (s)" valType="str" updates="None"/>\u000a        <Param name="startVal" val="0" valType="code" updates="None"/>\u000a        <Param name="font" val="Arial" valType="str" updates="constant"/>\u000a        <Param name="letterHeight" val="0.1" valType="code" updates="constant"/>\u000a      </TextComponent>\u000a    </Routine>\u000a    <Routine name="ResetAtBlock">\u000a      <CodeComponent name="code_3">\u000a        <Param name="Begin Experiment" val="" valType="extendedCode" updates="constant"/>\u000a        <Param name="name" val="code_3" valType="code" updates="None"/>\u000a        <Param name="Begin Routine" val="Redo = 1" valType="extendedCode" updates="constant"/>\u000a        <Param name="End Routine" val="" valType="extendedCode" updates="constant"/>\u000a        <Param name="End Experiment" val="" valType="extendedCode" updates="constant"/>\u000a        <Param name="Each Frame" val="" valType="extendedCode" updates="constant"/>\u000a      </CodeComponent>\u000a    </Routine>\u000a    <Routine name="StopTrial">\u000a      <TextComponent name="text_3">\u000a        <Param name="opacity" val="1" valType="code" updates="constant"/>\u000a        <Param name="colorSpace" val="rgb" valType="str" updates="constant"/>\u000a        <Param name="name" val="text_3" valType="code" updates="None"/>\u000a        <Param name="wrapWidth" val="" valType="code" updates="constant"/>\u000a        <Param name="color" val="white" valType="str" updates="constant"/>\u000a        <Param name="text" val="|" valType="str" updates="constant"/>\u000a        <Param name="stopVal" val="1.5" valType="code" updates="constant"/>\u000a        <Param name="durationEstim" val="" valType="code" updates="None"/>\u000a        <Param name="pos" val="[0, 0]" valType="code" updates="constant"/>\u000a        <Param name="flip" val="" valType="str" updates="constant"/>\u000a        <Param name="startEstim" val="" valType="code" updates="None"/>\u000a        <Param name="units" val="from exp settings" valType="str" updates="None"/>\u000a        <Param name="startType" val="time (s)" valType="str" updates="None"/>\u000a        <Param name="ori" val="0" valType="code" updates="constant"/>\u000a        <Param name="stopType" val="duration (s)" valType="str" updates="None"/>\u000a        <Param name="startVal" val="0.0" valType="code" updates="None"/>\u000a        <Param name="font" val="Arial" valType="str" updates="constant"/>\u000a        <Param name="letterHeight" val="4" valType="code" updates="constant"/>\u000a      </TextComponent>\u000a      <ImageComponent name="image_3">\u000a        <Param name="opacity" val="1" valType="code" updates="constant"/>\u000a        <Param name="flipVert" val="False" valType="bool" updates="constant"/>\u000a        <Param name="colorSpace" val="rgb" valType="str" updates="constant"/>\u000a        <Param name="name" val="image_3" valType="code" updates="None"/>\u000a        <Param name="color" val="$[1,1,1]" valType="str" updates="constant"/>\u000a        <Param name="stopVal" val="1.0" valType="code" updates="constant"/>\u000a        <Param name="durationEstim" val="" valType="code" updates="None"/>\u000a        <Param name="mask" val="None" valType="str" updates="constant"/>\u000a        <Param name="pos" val="$[xPosGoStim, yPosGoStim]" valType="code" updates="set every repeat"/>\u000a        <Param name="interpolate" val="linear" valType="str" updates="constant"/>\u000a        <Param name="startEstim" val="" valType="code" updates="None"/>\u000a        <Param name="units" val="pix" valType="str" updates="None"/>\u000a        <Param name="texture resolution" val="128" valType="code" updates="constant"/>\u000a        <Param name="startType" val="time (s)" valType="str" updates="None"/>\u000a        <Param name="ori" val="0" valType="code" updates="constant"/>\u000a        <Param name="stopType" val="duration (s)" valType="str" updates="None"/>\u000a        <Param name="startVal" val=".5" valType="code" updates="None"/>\u000a        <Param name="flipHoriz" val="False" valType="bool" updates="constant"/>\u000a        <Param name="image" val="$currentGoStim" valType="str" updates="set every repeat"/>\u000a        <Param name="size" val="[151, 151]" valType="code" updates="constant"/>\u000a      </ImageComponent>\u000a      <SoundComponent name="sound_1">\u000a        <Param name="sound" val="900" valType="str" updates="constant"/>\u000a        <Param name="volume" val="1" valType="code" updates="constant"/>\u000a        <Param name="name" val="sound_1" valType="code" updates="None"/>\u000a        <Param name="stopVal" val=".2" valType="code" updates="constant"/>\u000a        <Param name="durationEstim" val="" valType="code" updates="None"/>\u000a        <Param name="startEstim" val=".75" valType="code" updates="None"/>\u000a        <Param name="startType" val="time (s)" valType="str" updates="None"/>\u000a        <Param name="stopType" val="duration (s)" valType="str" updates="None"/>\u000a        <Param name="startVal" val="750" valType="code" updates="None"/>\u000a      </SoundComponent>\u000a      <KeyboardComponent name="goResp">\u000a        <Param name="correctAns" val="$corrGoResp" valType="str" updates="constant"/>\u000a        <Param name="storeCorrect" val="True" valType="bool" updates="constant"/>\u000a        <Param name="name" val="goResp" valType="code" updates="None"/>\u000a        <Param name="stopVal" val="1" valType="code" updates="constant"/>\u000a        <Param name="durationEstim" val="" valType="code" updates="None"/>\u000a        <Param name="forceEndRoutine" val="False" valType="bool" updates="constant"/>\u000a        <Param name="startEstim" val="" valType="code" updates="None"/>\u000a        <Param name="discard previous" val="True" valType="bool" updates="constant"/>\u000a        <Param name="startType" val="time (s)" valType="str" updates="None"/>\u000a        <Param name="allowedKeys" val="'z','m'" valType="code" updates="constant"/>\u000a        <Param name="stopType" val="duration (s)" valType="str" updates="None"/>\u000a        <Param name="startVal" val=".5" valType="code" updates="None"/>\u000a        <Param name="store" val="first key" valType="str" updates="constant"/>\u000a      </KeyboardComponent>\u000a    </Routine>\u000a    <Routine name="instrMain">\u000a      <TextComponent name="instr2">\u000a        <Param name="opacity" val="1" valType="code" updates="constant"/>\u000a        <Param name="colorSpace" val="rgb" valType="str" updates="constant"/>\u000a        <Param name="name" val="instr2" valType="code" updates="constant"/>\u000a        <Param name="wrapWidth" val="" valType="code" updates="constant"/>\u000a        <Param name="color" val="white" valType="str" updates="constant"/>\u000a        <Param name="text" val="A shape stimulus will appear on every trial. &#10;&#10;If it appears in the upper right quadrant, PRESS Y&#10;&#10;If it appears in the lower right quadrant, PRESS H&#10;&#10;If it appears in the lower left quadrant, PRESS G&#10;&#10;If it appears in the upper left quadrant, PRESS T&#10;&#10;Press any key when you are ready to proceed. " valType="str" updates="constant"/>\u000a        <Param name="stopVal" val="" valType="code" updates="constant"/>\u000a        <Param name="durationEstim" val="" valType="code" updates="None"/>\u000a        <Param name="pos" val="[0, 0]" valType="code" updates="constant"/>\u000a        <Param name="flip" val="" valType="str" updates="constant"/>\u000a        <Param name="startEstim" val="" valType="code" updates="None"/>\u000a        <Param name="units" val="from exp settings" valType="str" updates="None"/>\u000a        <Param name="startType" val="time (s)" valType="str" updates="None"/>\u000a        <Param name="ori" val="0" valType="code" updates="constant"/>\u000a        <Param name="stopType" val="duration (s)" valType="str" updates="None"/>\u000a        <Param name="startVal" val="0.0" valType="code" updates="None"/>\u000a        <Param name="font" val="Arial" valType="str" updates="constant"/>\u000a        <Param name="letterHeight" val="0.075" valType="code" updates="constant"/>\u000a      </TextComponent>\u000a      <KeyboardComponent name="ok2">\u000a        <Param name="correctAns" val="" valType="str" updates="constant"/>\u000a        <Param name="storeCorrect" val="False" valType="bool" updates="constant"/>\u000a        <Param name="name" val="ok2" valType="code" updates="None"/>\u000a        <Param name="stopVal" val="" valType="code" updates="constant"/>\u000a        <Param name="durationEstim" val="" valType="code" updates="None"/>\u000a        <Param name="forceEndRoutine" val="True" valType="bool" updates="constant"/>\u000a        <Param name="startEstim" val="" valType="code" updates="None"/>\u000a        <Param name="discard previous" val="True" valType="bool" updates="constant"/>\u000a        <Param name="startType" val="time (s)" valType="str" updates="None"/>\u000a        <Param name="allowedKeys" val="" valType="code" updates="constant"/>\u000a        <Param name="stopType" val="duration (s)" valType="str" updates="None"/>\u000a        <Param name="startVal" val="0.0" valType="code" updates="None"/>\u000a        <Param name="store" val="nothing" valType="str" updates="constant"/>\u000a      </KeyboardComponent>\u000a    </Routine>\u000a    <Routine name="newStopStim">\u000a      <CodeComponent name="code_7">\u000a        <Param name="Begin Experiment" val="" valType="extendedCode" updates="constant"/>\u000a        <Param name="name" val="code_7" valType="code" updates="None"/>\u000a        <Param name="Begin Routine" val="currentStopTrial = stopTrialList.pop(0)&#10;currentGoStim = currentStopTrial['fileName']&#10;&#10;if xPosGoStim == -200:&#10;    SSD = SSDLeft + 500&#10;else:&#10;    SSD = SSDRight + 500" valType="extendedCode" updates="constant"/>\u000a        <Param name="End Routine" val="" valType="extendedCode" updates="constant"/>\u000a        <Param name="End Experiment" val="" valType="extendedCode" updates="constant"/>\u000a        <Param name="Each Frame" val="" valType="extendedCode" updates="constant"/>\u000a      </CodeComponent>\u000a    </Routine>\u000a    <Routine name="feedback">\u000a      <CodeComponent name="message">\u000a        <Param name="Begin Experiment" val="#message variable just needs some value at start&#10;message=0" valType="extendedCode" updates="constant"/>\u000a        <Param name="name" val="message" valType="code" updates="None"/>\u000a        <Param name="Begin Routine" val="import random&#10;&#10;displayReward = random.randrange(1, 6)&#10;&#10;if resp.corr:#stored on last run routine&#10;    if displayReward == 1:&#10;            message = &quot;You won $&quot; + str(0);&#10;    else: &#10;            currentReward = currentLearningTrial['reward']&#10;            message = &quot;You won $&quot; + str(currentReward + (random.randrange(-25, 26)*.01))&#10;elif resp.keys is None: #or len(key_resp.keys)&lt;1:&#10;#elif resp.rt == 0:&#10;    message =&quot;Too Slow&quot;&#10;else:&#10;  message=&quot;Wrong&quot;" valType="extendedCode" updates="constant"/>\u000a        <Param name="End Routine" val="" valType="extendedCode" updates="constant"/>\u000a        <Param name="End Experiment" val="" valType="extendedCode" updates="constant"/>\u000a        <Param name="Each Frame" val="" valType="extendedCode" updates="constant"/>\u000a      </CodeComponent>\u000a      <TextComponent name="feedback_2">\u000a        <Param name="opacity" val="1" valType="code" updates="constant"/>\u000a        <Param name="colorSpace" val="rgb" valType="str" updates="constant"/>\u000a        <Param name="name" val="feedback_2" valType="code" updates="constant"/>\u000a        <Param name="wrapWidth" val="" valType="code" updates="constant"/>\u000a        <Param name="color" val="$[1,1,1]" valType="str" updates="constant"/>\u000a        <Param name="text" val="$message" valType="str" updates="set every repeat"/>\u000a        <Param name="stopVal" val="1.0" valType="code" updates="constant"/>\u000a        <Param name="durationEstim" val="" valType="code" updates="None"/>\u000a        <Param name="pos" val="[0, 0]" valType="code" updates="constant"/>\u000a        <Param name="flip" val="" valType="str" updates="constant"/>\u000a        <Param name="startEstim" val="" valType="code" updates="None"/>\u000a        <Param name="units" val="from exp settings" valType="str" updates="None"/>\u000a        <Param name="startType" val="time (s)" valType="str" updates="None"/>\u000a        <Param name="ori" val="0" valType="code" updates="constant"/>\u000a        <Param name="stopType" val="duration (s)" valType="str" updates="None"/>\u000a        <Param name="startVal" val="0.0" valType="code" updates="None"/>\u000a        <Param name="font" val="Arial" valType="str" updates="constant"/>\u000a        <Param name="letterHeight" val=".2" valType="code" updates="constant"/>\u000a      </TextComponent>\u000a      <ImageComponent name="image">\u000a        <Param name="opacity" val="1" valType="code" updates="constant"/>\u000a        <Param name="flipVert" val="False" valType="bool" updates="constant"/>\u000a        <Param name="colorSpace" val="rgb" valType="str" updates="constant"/>\u000a        <Param name="name" val="image" valType="code" updates="None"/>\u000a        <Param name="color" val="$[1,1,1]" valType="str" updates="constant"/>\u000a        <Param name="stopVal" val="1.0" valType="code" updates="constant"/>\u000a        <Param name="durationEstim" val="" valType="code" updates="None"/>\u000a        <Param name="mask" val="None" valType="str" updates="constant"/>\u000a        <Param name="pos" val="$[xPos, yPos]" valType="code" updates="set every repeat"/>\u000a        <Param name="interpolate" val="linear" valType="str" updates="constant"/>\u000a        <Param name="startEstim" val="" valType="code" updates="None"/>\u000a        <Param name="units" val="pix" valType="str" updates="None"/>\u000a        <Param name="texture resolution" val="128" valType="code" updates="constant"/>\u000a        <Param name="startType" val="time (s)" valType="str" updates="None"/>\u000a        <Param name="ori" val="0" valType="code" updates="constant"/>\u000a        <Param name="stopType" val="duration (s)" valType="str" updates="None"/>\u000a        <Param name="startVal" val="0.0" valType="code" updates="None"/>\u000a        <Param name="flipHoriz" val="False" valType="bool" updates="constant"/>\u000a        <Param name="image" val="$currentStimulus" valType="str" updates="set every repeat"/>\u000a        <Param name="size" val="[151, 151]" valType="code" updates="constant"/>\u000a      </ImageComponent>\u000a    </Routine>\u000a  </Routines>\u000a  <Flow>\u000a    <Routine name="StimSetup"/>\u000a    <Routine name="instrPractice"/>\u000a    <LoopInitiator loopType="TrialHandler" name="Blocks">\u000a      <Param name="conditionsFile" val="" valType="str" updates="None"/>\u000a      <Param name="name" val="Blocks" valType="code" updates="None"/>\u000a      <Param name="isTrials" val="True" valType="bool" updates="None"/>\u000a      <Param name="random seed" val="" valType="code" updates="None"/>\u000a      <Param name="loopType" val="sequential" valType="str" updates="None"/>\u000a      <Param name="nReps" val="0" valType="code" updates="None"/>\u000a      <Param name="endPoints" val="[0, 1]" valType="num" updates="None"/>\u000a      <Param name="conditions" val="None" valType="str" updates="None"/>\u000a      <Param name="Selected rows" val="" valType="str" updates="None"/>\u000a    </LoopInitiator>\u000a    <Routine name="ResetAtBlock"/>\u000a    <LoopInitiator loopType="TrialHandler" name="trials">\u000a      <Param name="conditionsFile" val="TrialtypesLearning.xlsx" valType="str" updates="None"/>\u000a      <Param name="name" val="trials" valType="code" updates="None"/>\u000a      <Param name="isTrials" val="True" valType="bool" updates="None"/>\u000a      <Param name="random seed" val="" valType="code" updates="None"/>\u000a      <Param name="loopType" val="fullRandom" valType="str" updates="None"/>\u000a      <Param name="nReps" val="25" valType="num" updates="None"/>\u000a      <Param name="endPoints" val="[0, 1]" valType="num" updates="None"/>\u000a      <Param name="conditions" val="[{u'xPos': 200, u'corrAns': u'h', u'yPos': 200}, {u'xPos': -200, u'corrAns': u'g', u'yPos': 200}, {u'xPos': 200, u'corrAns': u'n', u'yPos': -200}, {u'xPos': -200, u'corrAns': u'b', u'yPos': -200}]" valType="str" updates="None"/>\u000a      <Param name="Selected rows" val="" valType="str" updates="None"/>\u000a    </LoopInitiator>\u000a    <Routine name="NewStim"/>\u000a    <LoopInitiator loopType="TrialHandler" name="ReDoLoopMain">\u000a      <Param name="conditionsFile" val="" valType="str" updates="None"/>\u000a      <Param name="name" val="ReDoLoopMain" valType="code" updates="None"/>\u000a      <Param name="isTrials" val="False" valType="bool" updates="None"/>\u000a      <Param name="random seed" val="" valType="code" updates="None"/>\u000a      <Param name="loopType" val="random" valType="str" updates="None"/>\u000a      <Param name="nReps" val="999" valType="code" updates="None"/>\u000a      <Param name="endPoints" val="[0, 1]" valType="num" updates="None"/>\u000a      <Param name="conditions" val="None" valType="str" updates="None"/>\u000a      <Param name="Selected rows" val="" valType="str" updates="None"/>\u000a    </LoopInitiator>\u000a    <Routine name="trial"/>\u000a    <Routine name="feedback"/>\u000a    <Routine name="Blank"/>\u000a    <Routine name="ExitMain"/>\u000a    <LoopTerminator name="ReDoLoopMain"/>\u000a    <LoopTerminator name="trials"/>\u000a    <LoopTerminator name="Blocks"/>\u000a    <Routine name="instrStopPrac"/>\u000a    <LoopInitiator loopType="TrialHandler" name="StopBlocks">\u000a      <Param name="conditionsFile" val="" valType="str" updates="None"/>\u000a      <Param name="name" val="StopBlocks" valType="code" updates="None"/>\u000a      <Param name="isTrials" val="True" valType="bool" updates="None"/>\u000a      <Param name="random seed" val="" valType="code" updates="None"/>\u000a      <Param name="loopType" val="sequential" valType="str" updates="None"/>\u000a      <Param name="nReps" val="4" valType="code" updates="None"/>\u000a      <Param name="endPoints" val="[0, 1]" valType="num" updates="None"/>\u000a      <Param name="conditions" val="None" valType="str" updates="None"/>\u000a      <Param name="Selected rows" val="" valType="str" updates="None"/>\u000a    </LoopInitiator>\u000a    <Routine name="stopBlockSetup"/>\u000a    <LoopInitiator loopType="TrialHandler" name="StopTrials">\u000a      <Param name="conditionsFile" val="trialtypeStop.xlsx" valType="str" updates="None"/>\u000a      <Param name="name" val="StopTrials" valType="code" updates="None"/>\u000a      <Param name="isTrials" val="True" valType="bool" updates="None"/>\u000a      <Param name="random seed" val="" valType="code" updates="None"/>\u000a      <Param name="loopType" val="fullRandom" valType="str" updates="None"/>\u000a      <Param name="nReps" val="34" valType="code" updates="None"/>\u000a      <Param name="endPoints" val="[0, 1]" valType="num" updates="None"/>\u000a      <Param name="conditions" val="[{u'corrGoResp': u'z', u'yPosGoStim': 0, u'xPosGoStim': -200}, {u'corrGoResp': u'm', u'yPosGoStim': 0, u'xPosGoStim': 200}]" valType="str" updates="None"/>\u000a      <Param name="Selected rows" val="" valType="str" updates="None"/>\u000a    </LoopInitiator>\u000a    <Routine name="newStopStim"/>\u000a    <Routine name="StopTrial"/>\u000a    <Routine name="blankStop"/>\u000a    <Routine name="SSDChange"/>\u000a    <LoopTerminator name="StopTrials"/>\u000a    <Routine name="endOfStopBlockFeedback"/>\u000a    <LoopTerminator name="StopBlocks"/>\u000a    <Routine name="End"/>\u000a  </Flow>\u000a</PsychoPy2experiment>\u000a
p42
sS'thisTrial'
p43
NsS'_exp'
p44
I313991632
sg11
S'StopBlocks'
p45
sg6
g7
sS'thisRepN'
p46
I0
sg20
I01
sg21
g22
sS'data'
p47
g1
(cpsychopy.data
DataHandler
p48
c__builtin__
dict
p49
(dp50
S'ran'
p51
cnumpy.ma.core
_mareconstruct
p52
(cnumpy.ma.core
MaskedArray
p53
cnumpy
ndarray
p54
(I0
tp55
S'b'
tRp56
(I1
(I1
I4
tg28
(S'f4'
I0
I1
tRp57
(I3
S'<'
NNNI-1
I-1
I0
tbI00
S'\x00\x00\x80?\x00\x00\x00\x00\x00\x00\x00\x00\x00\x00\x00\x00'
S'\x00\x00\x00\x00'
NtbsS'order'
p58
g52
(g53
g54
g55
S'b'
tRp59
(I1
(I1
I4
tg57
I00
S'\x00\x00\x00\x00\x00\x00\x00\x00\x00\x00\x00\x00\x00\x00\x00\x00'
S'\x00\x01\x01\x01'
NtbstRp60
(dp61
S'isNumeric'
p62
(dp63
g51
I01
sg58
I01
ssS'trials'
p64
g39
sS'dataTypes'
p65
(lp66
g51
ag58
asS'dataShape'
p67
(lp68
I1
aI4
asbsS'method'
p69
S'sequential'
p70
sS'sequenceIndices'
p71
cnumpy.core.multiarray
_reconstruct
p72
(g54
(I0
tS'b'
tRp73
(I1
(I1
I4
tg28
(S'i4'
I0
I1
tRp74
(I3
S'<'
NNNI-1
I-1
I0
tbI00
S'\x00\x00\x00\x00\x00\x00\x00\x00\x00\x00\x00\x00\x00\x00\x00\x00'
tbsS'finished'
p75
I00
sS'nReps'
p76
I4
sS'nRemaining'
p77
I3
sS'trialList'
p78
(lp79
NasS'seed'
p80
NsS'thisIndex'
p81
g27
(g74
S'\x00\x00\x00\x00'
tRp82
sS'thisN'
p83
I0
sS'thisTrialN'
p84
I0
sS'nTotal'
p85
I4
sS'_warnUseOfNext'
p86
I01
sbasS'saveWideText'
p87
I01
sS'thisEntry'
p88
(dp89
sS'version'
p90
S''
sS'_paramNamesSoFar'
p91
(lp92
VcorrGoResp
p93
aVyPosGoStim
p94
aVxPosGoStim
p95
asS'entries'
p96
(lp97
(dp98
g31
I3
sg24
V
sg16
F3.3856868743896484
sg25
V
sg26
g30
sg23
g12
sg15
S'space'
p99
sg32
g33
sg34
g35
sa(dp100
g18
I1
sS'StopBlocks.thisIndex'
p101
g82
sg19
F0.44655799865722656
sg26
g30
sS'StopTrials.thisRepN'
p102
I0
sg32
g33
sS'StopBlocks.thisTrialN'
p103
I0
sg93
Vz
sg24
V
sg94
I0
sS'StopBlocks.thisTrial'
p104
Nsg31
I3
sg34
g35
sS'StopTrials.thisTrialN'
p105
I0
sg17
S'z'
sg25
V
sS'StopTrials.thisIndex'
p106
I0
sS'StopBlocks.thisRepN'
p107
I0
sg23
g12
sS'StopBlocks.thisN'
p108
I0
sS'StopTrials.thisN'
p109
I0
sg95
I-200
sa(dp110
g18
I1
sS'StopBlocks.thisIndex'
p111
g82
sg19
F0.48421216011047363
sg26
g30
sS'StopTrials.thisRepN'
p112
I0
sg32
g33
sS'StopBlocks.thisTrialN'
p113
I0
sg93
Vz
sg24
V
sg94
I0
sS'StopBlocks.thisTrial'
p114
Nsg31
I3
sg34
g35
sS'StopTrials.thisTrialN'
p115
I1
sg17
S'z'
sg25
V
sS'StopTrials.thisIndex'
p116
I0
sS'StopBlocks.thisRepN'
p117
I0
sg23
g12
sS'StopBlocks.thisN'
p118
I0
sS'StopTrials.thisN'
p119
I1
sg95
I-200
sa(dp120
g18
I1
sS'StopBlocks.thisIndex'
p121
g82
sg19
F0.41748499870300293
sg26
g30
sS'StopTrials.thisRepN'
p122
I1
sg32
g33
sS'StopBlocks.thisTrialN'
p123
I0
sg93
Vm
sg24
V
sg94
I0
sS'StopBlocks.thisTrial'
p124
Nsg31
I3
sg34
g35
sS'StopTrials.thisTrialN'
p125
I0
sg17
S'm'
sg25
V
sS'StopTrials.thisIndex'
p126
I1
sS'StopBlocks.thisRepN'
p127
I0
sg23
g12
sS'StopBlocks.thisN'
p128
I0
sS'StopTrials.thisN'
p129
I2
sg95
I200
sa(dp130
g18
I1
sS'StopBlocks.thisIndex'
p131
g82
sg19
F0.36728596687316895
sg26
g30
sS'StopTrials.thisRepN'
p132
I1
sg32
g33
sS'StopBlocks.thisTrialN'
p133
I0
sg93
Vz
sg24
V
sg94
I0
sS'StopBlocks.thisTrial'
p134
Nsg31
I3
sg34
g35
sS'StopTrials.thisTrialN'
p135
I1
sg17
S'z'
sg25
V
sS'StopTrials.thisIndex'
p136
I0
sS'StopBlocks.thisRepN'
p137
I0
sg23
g12
sS'StopBlocks.thisN'
p138
I0
sS'StopTrials.thisN'
p139
I3
sg95
I-200
sa(dp140
g18
I1
sS'StopBlocks.thisIndex'
p141
g82
sg19
F0.38409805297851562
sg26
g30
sS'StopTrials.thisRepN'
p142
I2
sg32
g33
sS'StopBlocks.thisTrialN'
p143
I0
sg93
Vm
sg24
V
sg94
I0
sS'StopBlocks.thisTrial'
p144
Nsg31
I3
sg34
g35
sS'StopTrials.thisTrialN'
p145
I0
sg17
S'm'
sg25
V
sS'StopTrials.thisIndex'
p146
I1
sS'StopBlocks.thisRepN'
p147
I0
sg23
g12
sS'StopBlocks.thisN'
p148
I0
sS'StopTrials.thisN'
p149
I4
sg95
I200
sa(dp150
g18
I1
sS'StopBlocks.thisIndex'
p151
g82
sg19
F0.36750602722167969
sg26
g30
sS'StopTrials.thisRepN'
p152
I2
sg32
g33
sS'StopBlocks.thisTrialN'
p153
I0
sg93
Vz
sg24
V
sg94
I0
sS'StopBlocks.thisTrial'
p154
Nsg31
I3
sg34
g35
sS'StopTrials.thisTrialN'
p155
I1
sg17
S'z'
sg25
V
sS'StopTrials.thisIndex'
p156
I0
sS'StopBlocks.thisRepN'
p157
I0
sg23
g12
sS'StopBlocks.thisN'
p158
I0
sS'StopTrials.thisN'
p159
I5
sg95
I-200
sa(dp160
g18
I1
sS'StopBlocks.thisIndex'
p161
g82
sg19
F0.35073494911193848
sg26
g30
sS'StopTrials.thisRepN'
p162
I3
sg32
g33
sS'StopBlocks.thisTrialN'
p163
I0
sg93
Vm
sg24
V
sg94
I0
sS'StopBlocks.thisTrial'
p164
Nsg31
I3
sg34
g35
sS'StopTrials.thisTrialN'
p165
I0
sg17
S'm'
sg25
V
sS'StopTrials.thisIndex'
p166
I1
sS'StopBlocks.thisRepN'
p167
I0
sg23
g12
sS'StopBlocks.thisN'
p168
I0
sS'StopTrials.thisN'
p169
I6
sg95
I200
sa(dp170
g18
I1
sS'StopBlocks.thisIndex'
p171
g82
sg19
F0.45097780227661133
sg26
g30
sS'StopTrials.thisRepN'
p172
I3
sg32
g33
sS'StopBlocks.thisTrialN'
p173
I0
sg93
Vm
sg24
V
sg94
I0
sS'StopBlocks.thisTrial'
p174
Nsg31
I3
sg34
g35
sS'StopTrials.thisTrialN'
p175
I1
sg17
S'm'
sg25
V
sS'StopTrials.thisIndex'
p176
I1
sS'StopBlocks.thisRepN'
p177
I0
sg23
g12
sS'StopBlocks.thisN'
p178
I0
sS'StopTrials.thisN'
p179
I7
sg95
I200
sa(dp180
g18
I1
sS'StopBlocks.thisIndex'
p181
g82
sg19
F0.38404393196105957
sg26
g30
sS'StopTrials.thisRepN'
p182
I4
sg32
g33
sS'StopBlocks.thisTrialN'
p183
I0
sg93
Vz
sg24
V
sg94
I0
sS'StopBlocks.thisTrial'
p184
Nsg31
I3
sg34
g35
sS'StopTrials.thisTrialN'
p185
I0
sg17
S'z'
sg25
V
sS'StopTrials.thisIndex'
p186
I0
sS'StopBlocks.thisRepN'
p187
I0
sg23
g12
sS'StopBlocks.thisN'
p188
I0
sS'StopTrials.thisN'
p189
I8
sg95
I-200
sa(dp190
g18
I1
sS'StopBlocks.thisIndex'
p191
g82
sg19
F0.41747403144836426
sg26
g30
sS'StopTrials.thisRepN'
p192
I4
sg32
g33
sS'StopBlocks.thisTrialN'
p193
I0
sg93
Vz
sg24
V
sg94
I0
sS'StopBlocks.thisTrial'
p194
Nsg31
I3
sg34
g35
sS'StopTrials.thisTrialN'
p195
I1
sg17
S'z'
sg25
V
sS'StopTrials.thisIndex'
p196
I0
sS'StopBlocks.thisRepN'
p197
I0
sg23
g12
sS'StopBlocks.thisN'
p198
I0
sS'StopTrials.thisN'
p199
I9
sg95
I-200
sa(dp200
g18
I1
sS'StopBlocks.thisIndex'
p201
g82
sg19
F0.53415012359619141
sg26
g30
sS'StopTrials.thisRepN'
p202
I5
sg32
g33
sS'StopBlocks.thisTrialN'
p203
I0
sg93
Vz
sg24
V
sg94
I0
sS'StopBlocks.thisTrial'
p204
Nsg31
I3
sg34
g35
sS'StopTrials.thisTrialN'
p205
I0
sg17
S'z'
sg25
V
sS'StopTrials.thisIndex'
p206
I0
sS'StopBlocks.thisRepN'
p207
I0
sg23
g12
sS'StopBlocks.thisN'
p208
I0
sS'StopTrials.thisN'
p209
I10
sg95
I-200
sa(dp210
g18
I1
sS'StopBlocks.thisIndex'
p211
g82
sg19
F0.45127320289611816
sg26
g30
sS'StopTrials.thisRepN'
p212
I5
sg32
g33
sS'StopBlocks.thisTrialN'
p213
I0
sg93
Vz
sg24
V
sg94
I0
sS'StopBlocks.thisTrial'
p214
Nsg31
I3
sg34
g35
sS'StopTrials.thisTrialN'
p215
I1
sg17
S'z'
sg25
V
sS'StopTrials.thisIndex'
p216
I0
sS'StopBlocks.thisRepN'
p217
I0
sg23
g12
sS'StopBlocks.thisN'
p218
I0
sS'StopTrials.thisN'
p219
I11
sg95
I-200
sa(dp220
g18
I1
sS'StopBlocks.thisIndex'
p221
g82
sg19
F0.43439412117004395
sg26
g30
sS'StopTrials.thisRepN'
p222
I6
sg32
g33
sS'StopBlocks.thisTrialN'
p223
I0
sg93
Vm
sg24
V
sg94
I0
sS'StopBlocks.thisTrial'
p224
Nsg31
I3
sg34
g35
sS'StopTrials.thisTrialN'
p225
I0
sg17
S'm'
sg25
V
sS'StopTrials.thisIndex'
p226
I1
sS'StopBlocks.thisRepN'
p227
I0
sg23
g12
sS'StopBlocks.thisN'
p228
I0
sS'StopTrials.thisN'
p229
I12
sg95
I200
sa(dp230
g18
I1
sS'StopBlocks.thisIndex'
p231
g82
sg19
F0.3338780403137207
sg26
g30
sS'StopTrials.thisRepN'
p232
I6
sg32
g33
sS'StopBlocks.thisTrialN'
p233
I0
sg93
Vz
sg24
V
sg94
I0
sS'StopBlocks.thisTrial'
p234
Nsg31
I3
sg34
g35
sS'StopTrials.thisTrialN'
p235
I1
sg17
S'z'
sg25
V
sS'StopTrials.thisIndex'
p236
I0
sS'StopBlocks.thisRepN'
p237
I0
sg23
g12
sS'StopBlocks.thisN'
p238
I0
sS'StopTrials.thisN'
p239
I13
sg95
I-200
sa(dp240
g18
I1
sS'StopBlocks.thisIndex'
p241
g82
sg19
F0.40073585510253906
sg26
g30
sS'StopTrials.thisRepN'
p242
I7
sg32
g33
sS'StopBlocks.thisTrialN'
p243
I0
sg93
Vz
sg24
V
sg94
I0
sS'StopBlocks.thisTrial'
p244
Nsg31
I3
sg34
g35
sS'StopTrials.thisTrialN'
p245
I0
sg17
S'z'
sg25
V
sS'StopTrials.thisIndex'
p246
I0
sS'StopBlocks.thisRepN'
p247
I0
sg23
g12
sS'StopBlocks.thisN'
p248
I0
sS'StopTrials.thisN'
p249
I14
sg95
I-200
sa(dp250
g18
I1
sS'StopBlocks.thisIndex'
p251
g82
sg19
F0.36759185791015625
sg26
g30
sS'StopTrials.thisRepN'
p252
I7
sg32
g33
sS'StopBlocks.thisTrialN'
p253
I0
sg93
Vz
sg24
V
sg94
I0
sS'StopBlocks.thisTrial'
p254
Nsg31
I3
sg34
g35
sS'StopTrials.thisTrialN'
p255
I1
sg17
S'z'
sg25
V
sS'StopTrials.thisIndex'
p256
I0
sS'StopBlocks.thisRepN'
p257
I0
sg23
g12
sS'StopBlocks.thisN'
p258
I0
sS'StopTrials.thisN'
p259
I15
sg95
I-200
sa(dp260
g18
I1
sS'StopBlocks.thisIndex'
p261
g82
sg19
F0.31750702857971191
sg26
g30
sS'StopTrials.thisRepN'
p262
I8
sg32
g33
sS'StopBlocks.thisTrialN'
p263
I0
sg93
Vm
sg24
V
sg94
I0
sS'StopBlocks.thisTrial'
p264
Nsg31
I3
sg34
g35
sS'StopTrials.thisTrialN'
p265
I0
sg17
S'm'
sg25
V
sS'StopTrials.thisIndex'
p266
I1
sS'StopBlocks.thisRepN'
p267
I0
sg23
g12
sS'StopBlocks.thisN'
p268
I0
sS'StopTrials.thisN'
p269
I16
sg95
I200
sa(dp270
g31
I3
sg23
g12
sg18
I0
sS'StopBlocks.thisIndex'
p271
g82
sS'StopTrials.thisTrialN'
p272
I1
sg17
Nsg25
V
sg34
g35
sg26
g30
sS'StopTrials.thisRepN'
p273
I8
sS'StopTrials.thisIndex'
p274
I1
sg95
I200
sS'StopBlocks.thisRepN'
p275
I0
sS'StopBlocks.thisTrialN'
p276
I0
sg32
g33
sg93
Vm
sg24
V
sS'StopBlocks.thisN'
p277
I0
sS'StopTrials.thisN'
p278
I17
sS'StopBlocks.thisTrial'
p279
Nsg94
I0
sa(dp280
g31
I3
sg23
g12
sg18
I0
sS'StopBlocks.thisIndex'
p281
g82
sS'StopTrials.thisTrialN'
p282
I0
sg17
Nsg25
V
sg34
g35
sg26
g30
sS'StopTrials.thisRepN'
p283
I9
sS'StopTrials.thisIndex'
p284
I0
sg95
I-200
sS'StopBlocks.thisRepN'
p285
I0
sS'StopBlocks.thisTrialN'
p286
I0
sg32
g33
sg93
Vz
sg24
V
sS'StopBlocks.thisN'
p287
I0
sS'StopTrials.thisN'
p288
I18
sS'StopBlocks.thisTrial'
p289
Nsg94
I0
sa(dp290
g31
I3
sg23
g12
sg18
I0
sS'StopBlocks.thisIndex'
p291
g82
sS'StopTrials.thisTrialN'
p292
I1
sg17
Nsg25
V
sg34
g35
sg26
g30
sS'StopTrials.thisRepN'
p293
I9
sS'StopTrials.thisIndex'
p294
I1
sg95
I200
sS'StopBlocks.thisRepN'
p295
I0
sS'StopBlocks.thisTrialN'
p296
I0
sg32
g33
sg93
Vm
sg24
V
sS'StopBlocks.thisN'
p297
I0
sS'StopTrials.thisN'
p298
I19
sS'StopBlocks.thisTrial'
p299
Nsg94
I0
sa(dp300
g31
I3
sg23
g12
sg18
I0
sS'StopBlocks.thisIndex'
p301
g82
sS'StopTrials.thisTrialN'
p302
I0
sg17
Nsg25
V
sg34
g35
sg26
g30
sS'StopTrials.thisRepN'
p303
I10
sS'StopTrials.thisIndex'
p304
I0
sg95
I-200
sS'StopBlocks.thisRepN'
p305
I0
sS'StopBlocks.thisTrialN'
p306
I0
sg32
g33
sg93
Vz
sg24
V
sS'StopBlocks.thisN'
p307
I0
sS'StopTrials.thisN'
p308
I20
sS'StopBlocks.thisTrial'
p309
Nsg94
I0
sa(dp310
g31
I3
sg23
g12
sg18
I0
sS'StopBlocks.thisIndex'
p311
g82
sS'StopTrials.thisTrialN'
p312
I1
sg17
Nsg25
V
sg34
g35
sg26
g30
sS'StopTrials.thisRepN'
p313
I10
sS'StopTrials.thisIndex'
p314
I0
sg95
I-200
sS'StopBlocks.thisRepN'
p315
I0
sS'StopBlocks.thisTrialN'
p316
I0
sg32
g33
sg93
Vz
sg24
V
sS'StopBlocks.thisN'
p317
I0
sS'StopTrials.thisN'
p318
I21
sS'StopBlocks.thisTrial'
p319
Nsg94
I0
sa(dp320
g31
I3
sg23
g12
sg18
I0
sS'StopBlocks.thisIndex'
p321
g82
sS'StopTrials.thisTrialN'
p322
I0
sg17
Nsg25
V
sg34
g35
sg26
g30
sS'StopTrials.thisRepN'
p323
I11
sS'StopTrials.thisIndex'
p324
I1
sg95
I200
sS'StopBlocks.thisRepN'
p325
I0
sS'StopBlocks.thisTrialN'
p326
I0
sg32
g33
sg93
Vm
sg24
V
sS'StopBlocks.thisN'
p327
I0
sS'StopTrials.thisN'
p328
I22
sS'StopBlocks.thisTrial'
p329
Nsg94
I0
sa(dp330
g31
I3
sg23
g12
sg18
I0
sS'StopBlocks.thisIndex'
p331
g82
sS'StopTrials.thisTrialN'
p332
I1
sg17
Nsg25
V
sg34
g35
sg26
g30
sS'StopTrials.thisRepN'
p333
I11
sS'StopTrials.thisIndex'
p334
I1
sg95
I200
sS'StopBlocks.thisRepN'
p335
I0
sS'StopBlocks.thisTrialN'
p336
I0
sg32
g33
sg93
Vm
sg24
V
sS'StopBlocks.thisN'
p337
I0
sS'StopTrials.thisN'
p338
I23
sS'StopBlocks.thisTrial'
p339
Nsg94
I0
sa(dp340
g31
I3
sg23
g12
sg18
I0
sS'StopBlocks.thisIndex'
p341
g82
sS'StopTrials.thisTrialN'
p342
I0
sg17
Nsg25
V
sg34
g35
sg26
g30
sS'StopTrials.thisRepN'
p343
I12
sS'StopTrials.thisIndex'
p344
I1
sg95
I200
sS'StopBlocks.thisRepN'
p345
I0
sS'StopBlocks.thisTrialN'
p346
I0
sg32
g33
sg93
Vm
sg24
V
sS'StopBlocks.thisN'
p347
I0
sS'StopTrials.thisN'
p348
I24
sS'StopBlocks.thisTrial'
p349
Nsg94
I0
sa(dp350
g31
I3
sg23
g12
sg18
I0
sS'StopBlocks.thisIndex'
p351
g82
sS'StopTrials.thisTrialN'
p352
I1
sg17
Nsg25
V
sg34
g35
sg26
g30
sS'StopTrials.thisRepN'
p353
I12
sS'StopTrials.thisIndex'
p354
I1
sg95
I200
sS'StopBlocks.thisRepN'
p355
I0
sS'StopBlocks.thisTrialN'
p356
I0
sg32
g33
sg93
Vm
sg24
V
sS'StopBlocks.thisN'
p357
I0
sS'StopTrials.thisN'
p358
I25
sS'StopBlocks.thisTrial'
p359
Nsg94
I0
sa(dp360
g31
I3
sg23
g12
sg18
I0
sS'StopBlocks.thisIndex'
p361
g82
sS'StopTrials.thisTrialN'
p362
I0
sg17
Nsg25
V
sg34
g35
sg26
g30
sS'StopTrials.thisRepN'
p363
I13
sS'StopTrials.thisIndex'
p364
I1
sg95
I200
sS'StopBlocks.thisRepN'
p365
I0
sS'StopBlocks.thisTrialN'
p366
I0
sg32
g33
sg93
Vm
sg24
V
sS'StopBlocks.thisN'
p367
I0
sS'StopTrials.thisN'
p368
I26
sS'StopBlocks.thisTrial'
p369
Nsg94
I0
sa(dp370
g31
I3
sg23
g12
sg18
I0
sS'StopBlocks.thisIndex'
p371
g82
sS'StopTrials.thisTrialN'
p372
I1
sg17
Nsg25
V
sg34
g35
sg26
g30
sS'StopTrials.thisRepN'
p373
I13
sS'StopTrials.thisIndex'
p374
I0
sg95
I-200
sS'StopBlocks.thisRepN'
p375
I0
sS'StopBlocks.thisTrialN'
p376
I0
sg32
g33
sg93
Vz
sg24
V
sS'StopBlocks.thisN'
p377
I0
sS'StopTrials.thisN'
p378
I27
sS'StopBlocks.thisTrial'
p379
Nsg94
I0
sa(dp380
g31
I3
sg23
g12
sg18
I0
sS'StopBlocks.thisIndex'
p381
g82
sS'StopTrials.thisTrialN'
p382
I0
sg17
Nsg25
V
sg34
g35
sg26
g30
sS'StopTrials.thisRepN'
p383
I14
sS'StopTrials.thisIndex'
p384
I1
sg95
I200
sS'StopBlocks.thisRepN'
p385
I0
sS'StopBlocks.thisTrialN'
p386
I0
sg32
g33
sg93
Vm
sg24
V
sS'StopBlocks.thisN'
p387
I0
sS'StopTrials.thisN'
p388
I28
sS'StopBlocks.thisTrial'
p389
Nsg94
I0
sa(dp390
g31
I3
sg23
g12
sg18
I0
sS'StopBlocks.thisIndex'
p391
g82
sS'StopTrials.thisTrialN'
p392
I1
sg17
Nsg25
V
sg34
g35
sg26
g30
sS'StopTrials.thisRepN'
p393
I14
sS'StopTrials.thisIndex'
p394
I0
sg95
I-200
sS'StopBlocks.thisRepN'
p395
I0
sS'StopBlocks.thisTrialN'
p396
I0
sg32
g33
sg93
Vz
sg24
V
sS'StopBlocks.thisN'
p397
I0
sS'StopTrials.thisN'
p398
I29
sS'StopBlocks.thisTrial'
p399
Nsg94
I0
sa(dp400
g31
I3
sg23
g12
sg18
I0
sS'StopBlocks.thisIndex'
p401
g82
sS'StopTrials.thisTrialN'
p402
I0
sg17
Nsg25
V
sg34
g35
sg26
g30
sS'StopTrials.thisRepN'
p403
I15
sS'StopTrials.thisIndex'
p404
I1
sg95
I200
sS'StopBlocks.thisRepN'
p405
I0
sS'StopBlocks.thisTrialN'
p406
I0
sg32
g33
sg93
Vm
sg24
V
sS'StopBlocks.thisN'
p407
I0
sS'StopTrials.thisN'
p408
I30
sS'StopBlocks.thisTrial'
p409
Nsg94
I0
sa(dp410
g31
I3
sg23
g12
sg18
I0
sS'StopBlocks.thisIndex'
p411
g82
sS'StopTrials.thisTrialN'
p412
I1
sg17
Nsg25
V
sg34
g35
sg26
g30
sS'StopTrials.thisRepN'
p413
I15
sS'StopTrials.thisIndex'
p414
I0
sg95
I-200
sS'StopBlocks.thisRepN'
p415
I0
sS'StopBlocks.thisTrialN'
p416
I0
sg32
g33
sg93
Vz
sg24
V
sS'StopBlocks.thisN'
p417
I0
sS'StopTrials.thisN'
p418
I31
sS'StopBlocks.thisTrial'
p419
Nsg94
I0
sa(dp420
g31
I3
sg23
g12
sg18
I0
sS'StopBlocks.thisIndex'
p421
g82
sS'StopTrials.thisTrialN'
p422
I0
sg17
Nsg25
V
sg34
g35
sg26
g30
sS'StopTrials.thisRepN'
p423
I16
sS'StopTrials.thisIndex'
p424
I1
sg95
I200
sS'StopBlocks.thisRepN'
p425
I0
sS'StopBlocks.thisTrialN'
p426
I0
sg32
g33
sg93
Vm
sg24
V
sS'StopBlocks.thisN'
p427
I0
sS'StopTrials.thisN'
p428
I32
sS'StopBlocks.thisTrial'
p429
Nsg94
I0
sa(dp430
g31
I3
sg23
g12
sg18
I0
sS'StopBlocks.thisIndex'
p431
g82
sS'StopTrials.thisTrialN'
p432
I1
sg17
Nsg25
V
sg34
g35
sg26
g30
sS'StopTrials.thisRepN'
p433
I16
sS'StopTrials.thisIndex'
p434
I1
sg95
I200
sS'StopBlocks.thisRepN'
p435
I0
sS'StopBlocks.thisTrialN'
p436
I0
sg32
g33
sg93
Vm
sg24
V
sS'StopBlocks.thisN'
p437
I0
sS'StopTrials.thisN'
p438
I33
sS'StopBlocks.thisTrial'
p439
Nsg94
I0
sa(dp440
g31
I3
sg23
g12
sg18
I0
sS'StopBlocks.thisIndex'
p441
g82
sS'StopTrials.thisTrialN'
p442
I0
sg17
Nsg25
V
sg34
g35
sg26
g30
sS'StopTrials.thisRepN'
p443
I17
sS'StopTrials.thisIndex'
p444
I0
sg95
I-200
sS'StopBlocks.thisRepN'
p445
I0
sS'StopBlocks.thisTrialN'
p446
I0
sg32
g33
sg93
Vz
sg24
V
sS'StopBlocks.thisN'
p447
I0
sS'StopTrials.thisN'
p448
I34
sS'StopBlocks.thisTrial'
p449
Nsg94
I0
sa(dp450
g31
I3
sg23
g12
sg18
I0
sS'StopBlocks.thisIndex'
p451
g82
sS'StopTrials.thisTrialN'
p452
I1
sg17
Nsg25
V
sg34
g35
sg26
g30
sS'StopTrials.thisRepN'
p453
I17
sS'StopTrials.thisIndex'
p454
I1
sg95
I200
sS'StopBlocks.thisRepN'
p455
I0
sS'StopBlocks.thisTrialN'
p456
I0
sg32
g33
sg93
Vm
sg24
V
sS'StopBlocks.thisN'
p457
I0
sS'StopTrials.thisN'
p458
I35
sS'StopBlocks.thisTrial'
p459
Nsg94
I0
sa(dp460
g31
I3
sg23
g12
sg18
I0
sS'StopBlocks.thisIndex'
p461
g82
sS'StopTrials.thisTrialN'
p462
I0
sg17
Nsg25
V
sg34
g35
sg26
g30
sS'StopTrials.thisRepN'
p463
I18
sS'StopTrials.thisIndex'
p464
I0
sg95
I-200
sS'StopBlocks.thisRepN'
p465
I0
sS'StopBlocks.thisTrialN'
p466
I0
sg32
g33
sg93
Vz
sg24
V
sS'StopBlocks.thisN'
p467
I0
sS'StopTrials.thisN'
p468
I36
sS'StopBlocks.thisTrial'
p469
Nsg94
I0
sa(dp470
g31
I3
sg23
g12
sg18
I0
sS'StopBlocks.thisIndex'
p471
g82
sS'StopTrials.thisTrialN'
p472
I1
sg17
Nsg25
V
sg34
g35
sg26
g30
sS'StopTrials.thisRepN'
p473
I18
sS'StopTrials.thisIndex'
p474
I0
sg95
I-200
sS'StopBlocks.thisRepN'
p475
I0
sS'StopBlocks.thisTrialN'
p476
I0
sg32
g33
sg93
Vz
sg24
V
sS'StopBlocks.thisN'
p477
I0
sS'StopTrials.thisN'
p478
I37
sS'StopBlocks.thisTrial'
p479
Nsg94
I0
sa(dp480
g31
I3
sg23
g12
sg18
I0
sS'StopBlocks.thisIndex'
p481
g82
sS'StopTrials.thisTrialN'
p482
I0
sg17
Nsg25
V
sg34
g35
sg26
g30
sS'StopTrials.thisRepN'
p483
I19
sS'StopTrials.thisIndex'
p484
I1
sg95
I200
sS'StopBlocks.thisRepN'
p485
I0
sS'StopBlocks.thisTrialN'
p486
I0
sg32
g33
sg93
Vm
sg24
V
sS'StopBlocks.thisN'
p487
I0
sS'StopTrials.thisN'
p488
I38
sS'StopBlocks.thisTrial'
p489
Nsg94
I0
sa(dp490
g31
I3
sg23
g12
sg18
I0
sS'StopBlocks.thisIndex'
p491
g82
sS'StopTrials.thisTrialN'
p492
I1
sg17
Nsg25
V
sg34
g35
sg26
g30
sS'StopTrials.thisRepN'
p493
I19
sS'StopTrials.thisIndex'
p494
I1
sg95
I200
sS'StopBlocks.thisRepN'
p495
I0
sS'StopBlocks.thisTrialN'
p496
I0
sg32
g33
sg93
Vm
sg24
V
sS'StopBlocks.thisN'
p497
I0
sS'StopTrials.thisN'
p498
I39
sS'StopBlocks.thisTrial'
p499
Nsg94
I0
sa(dp500
g31
I3
sg23
g12
sg18
I0
sS'StopBlocks.thisIndex'
p501
g82
sS'StopTrials.thisTrialN'
p502
I0
sg17
Nsg25
V
sg34
g35
sg26
g30
sS'StopTrials.thisRepN'
p503
I20
sS'StopTrials.thisIndex'
p504
I0
sg95
I-200
sS'StopBlocks.thisRepN'
p505
I0
sS'StopBlocks.thisTrialN'
p506
I0
sg32
g33
sg93
Vz
sg24
V
sS'StopBlocks.thisN'
p507
I0
sS'StopTrials.thisN'
p508
I40
sS'StopBlocks.thisTrial'
p509
Nsg94
I0
sa(dp510
g31
I3
sg23
g12
sg18
I0
sS'StopBlocks.thisIndex'
p511
g82
sS'StopTrials.thisTrialN'
p512
I1
sg17
Nsg25
V
sg34
g35
sg26
g30
sS'StopTrials.thisRepN'
p513
I20
sS'StopTrials.thisIndex'
p514
I1
sg95
I200
sS'StopBlocks.thisRepN'
p515
I0
sS'StopBlocks.thisTrialN'
p516
I0
sg32
g33
sg93
Vm
sg24
V
sS'StopBlocks.thisN'
p517
I0
sS'StopTrials.thisN'
p518
I41
sS'StopBlocks.thisTrial'
p519
Nsg94
I0
sa(dp520
g31
I3
sg23
g12
sg18
I0
sS'StopBlocks.thisIndex'
p521
g82
sS'StopTrials.thisTrialN'
p522
I0
sg17
Nsg25
V
sg34
g35
sg26
g30
sS'StopTrials.thisRepN'
p523
I21
sS'StopTrials.thisIndex'
p524
I1
sg95
I200
sS'StopBlocks.thisRepN'
p525
I0
sS'StopBlocks.thisTrialN'
p526
I0
sg32
g33
sg93
Vm
sg24
V
sS'StopBlocks.thisN'
p527
I0
sS'StopTrials.thisN'
p528
I42
sS'StopBlocks.thisTrial'
p529
Nsg94
I0
sa(dp530
g31
I3
sg23
g12
sg18
I0
sS'StopBlocks.thisIndex'
p531
g82
sS'StopTrials.thisTrialN'
p532
I1
sg17
Nsg25
V
sg34
g35
sg26
g30
sS'StopTrials.thisRepN'
p533
I21
sS'StopTrials.thisIndex'
p534
I0
sg95
I-200
sS'StopBlocks.thisRepN'
p535
I0
sS'StopBlocks.thisTrialN'
p536
I0
sg32
g33
sg93
Vz
sg24
V
sS'StopBlocks.thisN'
p537
I0
sS'StopTrials.thisN'
p538
I43
sS'StopBlocks.thisTrial'
p539
Nsg94
I0
sa(dp540
g31
I3
sg23
g12
sg18
I0
sS'StopBlocks.thisIndex'
p541
g82
sS'StopTrials.thisTrialN'
p542
I0
sg17
Nsg25
V
sg34
g35
sg26
g30
sS'StopTrials.thisRepN'
p543
I22
sS'StopTrials.thisIndex'
p544
I0
sg95
I-200
sS'StopBlocks.thisRepN'
p545
I0
sS'StopBlocks.thisTrialN'
p546
I0
sg32
g33
sg93
Vz
sg24
V
sS'StopBlocks.thisN'
p547
I0
sS'StopTrials.thisN'
p548
I44
sS'StopBlocks.thisTrial'
p549
Nsg94
I0
sa(dp550
g31
I3
sg23
g12
sg18
I0
sS'StopBlocks.thisIndex'
p551
g82
sS'StopTrials.thisTrialN'
p552
I1
sg17
Nsg25
V
sg34
g35
sg26
g30
sS'StopTrials.thisRepN'
p553
I22
sS'StopTrials.thisIndex'
p554
I0
sg95
I-200
sS'StopBlocks.thisRepN'
p555
I0
sS'StopBlocks.thisTrialN'
p556
I0
sg32
g33
sg93
Vz
sg24
V
sS'StopBlocks.thisN'
p557
I0
sS'StopTrials.thisN'
p558
I45
sS'StopBlocks.thisTrial'
p559
Nsg94
I0
sa(dp560
g31
I3
sg23
g12
sg18
I0
sS'StopBlocks.thisIndex'
p561
g82
sS'StopTrials.thisTrialN'
p562
I0
sg17
Nsg25
V
sg34
g35
sg26
g30
sS'StopTrials.thisRepN'
p563
I23
sS'StopTrials.thisIndex'
p564
I0
sg95
I-200
sS'StopBlocks.thisRepN'
p565
I0
sS'StopBlocks.thisTrialN'
p566
I0
sg32
g33
sg93
Vz
sg24
V
sS'StopBlocks.thisN'
p567
I0
sS'StopTrials.thisN'
p568
I46
sS'StopBlocks.thisTrial'
p569
Nsg94
I0
sa(dp570
g31
I3
sg23
g12
sg18
I0
sS'StopBlocks.thisIndex'
p571
g82
sS'StopTrials.thisTrialN'
p572
I1
sg17
Nsg25
V
sg34
g35
sg26
g30
sS'StopTrials.thisRepN'
p573
I23
sS'StopTrials.thisIndex'
p574
I1
sg95
I200
sS'StopBlocks.thisRepN'
p575
I0
sS'StopBlocks.thisTrialN'
p576
I0
sg32
g33
sg93
Vm
sg24
V
sS'StopBlocks.thisN'
p577
I0
sS'StopTrials.thisN'
p578
I47
sS'StopBlocks.thisTrial'
p579
Nsg94
I0
sa(dp580
g31
I3
sg23
g12
sg18
I0
sS'StopBlocks.thisIndex'
p581
g82
sS'StopTrials.thisTrialN'
p582
I0
sg17
Nsg25
V
sg34
g35
sg26
g30
sS'StopTrials.thisRepN'
p583
I24
sS'StopTrials.thisIndex'
p584
I1
sg95
I200
sS'StopBlocks.thisRepN'
p585
I0
sS'StopBlocks.thisTrialN'
p586
I0
sg32
g33
sg93
Vm
sg24
V
sS'StopBlocks.thisN'
p587
I0
sS'StopTrials.thisN'
p588
I48
sS'StopBlocks.thisTrial'
p589
Nsg94
I0
sa(dp590
g31
I3
sg23
g12
sg18
I0
sS'StopBlocks.thisIndex'
p591
g82
sS'StopTrials.thisTrialN'
p592
I1
sg17
Nsg25
V
sg34
g35
sg26
g30
sS'StopTrials.thisRepN'
p593
I24
sS'StopTrials.thisIndex'
p594
I0
sg95
I-200
sS'StopBlocks.thisRepN'
p595
I0
sS'StopBlocks.thisTrialN'
p596
I0
sg32
g33
sg93
Vz
sg24
V
sS'StopBlocks.thisN'
p597
I0
sS'StopTrials.thisN'
p598
I49
sS'StopBlocks.thisTrial'
p599
Nsg94
I0
sa(dp600
g31
I3
sg23
g12
sg18
I0
sS'StopBlocks.thisIndex'
p601
g82
sS'StopTrials.thisTrialN'
p602
I0
sg17
Nsg25
V
sg34
g35
sg26
g30
sS'StopTrials.thisRepN'
p603
I25
sS'StopTrials.thisIndex'
p604
I1
sg95
I200
sS'StopBlocks.thisRepN'
p605
I0
sS'StopBlocks.thisTrialN'
p606
I0
sg32
g33
sg93
Vm
sg24
V
sS'StopBlocks.thisN'
p607
I0
sS'StopTrials.thisN'
p608
I50
sS'StopBlocks.thisTrial'
p609
Nsg94
I0
sa(dp610
g31
I3
sg23
g12
sg18
I0
sS'StopBlocks.thisIndex'
p611
g82
sS'StopTrials.thisTrialN'
p612
I1
sg17
Nsg25
V
sg34
g35
sg26
g30
sS'StopTrials.thisRepN'
p613
I25
sS'StopTrials.thisIndex'
p614
I0
sg95
I-200
sS'StopBlocks.thisRepN'
p615
I0
sS'StopBlocks.thisTrialN'
p616
I0
sg32
g33
sg93
Vz
sg24
V
sS'StopBlocks.thisN'
p617
I0
sS'StopTrials.thisN'
p618
I51
sS'StopBlocks.thisTrial'
p619
Nsg94
I0
sa(dp620
g31
I3
sg23
g12
sg18
I0
sS'StopBlocks.thisIndex'
p621
g82
sS'StopTrials.thisTrialN'
p622
I0
sg17
Nsg25
V
sg34
g35
sg26
g30
sS'StopTrials.thisRepN'
p623
I26
sS'StopTrials.thisIndex'
p624
I1
sg95
I200
sS'StopBlocks.thisRepN'
p625
I0
sS'StopBlocks.thisTrialN'
p626
I0
sg32
g33
sg93
Vm
sg24
V
sS'StopBlocks.thisN'
p627
I0
sS'StopTrials.thisN'
p628
I52
sS'StopBlocks.thisTrial'
p629
Nsg94
I0
sa(dp630
g31
I3
sg23
g12
sg18
I0
sS'StopBlocks.thisIndex'
p631
g82
sS'StopTrials.thisTrialN'
p632
I1
sg17
Nsg25
V
sg34
g35
sg26
g30
sS'StopTrials.thisRepN'
p633
I26
sS'StopTrials.thisIndex'
p634
I0
sg95
I-200
sS'StopBlocks.thisRepN'
p635
I0
sS'StopBlocks.thisTrialN'
p636
I0
sg32
g33
sg93
Vz
sg24
V
sS'StopBlocks.thisN'
p637
I0
sS'StopTrials.thisN'
p638
I53
sS'StopBlocks.thisTrial'
p639
Nsg94
I0
sa(dp640
g31
I3
sg23
g12
sg18
I0
sS'StopBlocks.thisIndex'
p641
g82
sS'StopTrials.thisTrialN'
p642
I0
sg17
Nsg25
V
sg34
g35
sg26
g30
sS'StopTrials.thisRepN'
p643
I27
sS'StopTrials.thisIndex'
p644
I0
sg95
I-200
sS'StopBlocks.thisRepN'
p645
I0
sS'StopBlocks.thisTrialN'
p646
I0
sg32
g33
sg93
Vz
sg24
V
sS'StopBlocks.thisN'
p647
I0
sS'StopTrials.thisN'
p648
I54
sS'StopBlocks.thisTrial'
p649
Nsg94
I0
sa(dp650
g31
I3
sg23
g12
sg18
I0
sS'StopBlocks.thisIndex'
p651
g82
sS'StopTrials.thisTrialN'
p652
I1
sg17
Nsg25
V
sg34
g35
sg26
g30
sS'StopTrials.thisRepN'
p653
I27
sS'StopTrials.thisIndex'
p654
I0
sg95
I-200
sS'StopBlocks.thisRepN'
p655
I0
sS'StopBlocks.thisTrialN'
p656
I0
sg32
g33
sg93
Vz
sg24
V
sS'StopBlocks.thisN'
p657
I0
sS'StopTrials.thisN'
p658
I55
sS'StopBlocks.thisTrial'
p659
Nsg94
I0
sa(dp660
g31
I3
sg23
g12
sg18
I0
sS'StopBlocks.thisIndex'
p661
g82
sS'StopTrials.thisTrialN'
p662
I0
sg17
Nsg25
V
sg34
g35
sg26
g30
sS'StopTrials.thisRepN'
p663
I28
sS'StopTrials.thisIndex'
p664
I1
sg95
I200
sS'StopBlocks.thisRepN'
p665
I0
sS'StopBlocks.thisTrialN'
p666
I0
sg32
g33
sg93
Vm
sg24
V
sS'StopBlocks.thisN'
p667
I0
sS'StopTrials.thisN'
p668
I56
sS'StopBlocks.thisTrial'
p669
Nsg94
I0
sa(dp670
g31
I3
sg23
g12
sg18
I0
sS'StopBlocks.thisIndex'
p671
g82
sS'StopTrials.thisTrialN'
p672
I1
sg17
Nsg25
V
sg34
g35
sg26
g30
sS'StopTrials.thisRepN'
p673
I28
sS'StopTrials.thisIndex'
p674
I1
sg95
I200
sS'StopBlocks.thisRepN'
p675
I0
sS'StopBlocks.thisTrialN'
p676
I0
sg32
g33
sg93
Vm
sg24
V
sS'StopBlocks.thisN'
p677
I0
sS'StopTrials.thisN'
p678
I57
sS'StopBlocks.thisTrial'
p679
Nsg94
I0
sa(dp680
g31
I3
sg23
g12
sg18
I0
sS'StopBlocks.thisIndex'
p681
g82
sS'StopTrials.thisTrialN'
p682
I0
sg17
Nsg25
V
sg34
g35
sg26
g30
sS'StopTrials.thisRepN'
p683
I29
sS'StopTrials.thisIndex'
p684
I0
sg95
I-200
sS'StopBlocks.thisRepN'
p685
I0
sS'StopBlocks.thisTrialN'
p686
I0
sg32
g33
sg93
Vz
sg24
V
sS'StopBlocks.thisN'
p687
I0
sS'StopTrials.thisN'
p688
I58
sS'StopBlocks.thisTrial'
p689
Nsg94
I0
sa(dp690
g31
I3
sg23
g12
sg18
I0
sS'StopBlocks.thisIndex'
p691
g82
sS'StopTrials.thisTrialN'
p692
I1
sg17
Nsg25
V
sg34
g35
sg26
g30
sS'StopTrials.thisRepN'
p693
I29
sS'StopTrials.thisIndex'
p694
I1
sg95
I200
sS'StopBlocks.thisRepN'
p695
I0
sS'StopBlocks.thisTrialN'
p696
I0
sg32
g33
sg93
Vm
sg24
V
sS'StopBlocks.thisN'
p697
I0
sS'StopTrials.thisN'
p698
I59
sS'StopBlocks.thisTrial'
p699
Nsg94
I0
sa(dp700
g31
I3
sg23
g12
sg18
I0
sS'StopBlocks.thisIndex'
p701
g82
sS'StopTrials.thisTrialN'
p702
I0
sg17
Nsg25
V
sg34
g35
sg26
g30
sS'StopTrials.thisRepN'
p703
I30
sS'StopTrials.thisIndex'
p704
I0
sg95
I-200
sS'StopBlocks.thisRepN'
p705
I0
sS'StopBlocks.thisTrialN'
p706
I0
sg32
g33
sg93
Vz
sg24
V
sS'StopBlocks.thisN'
p707
I0
sS'StopTrials.thisN'
p708
I60
sS'StopBlocks.thisTrial'
p709
Nsg94
I0
sa(dp710
g31
I3
sg23
g12
sg18
I0
sS'StopBlocks.thisIndex'
p711
g82
sS'StopTrials.thisTrialN'
p712
I1
sg17
Nsg25
V
sg34
g35
sg26
g30
sS'StopTrials.thisRepN'
p713
I30
sS'StopTrials.thisIndex'
p714
I1
sg95
I200
sS'StopBlocks.thisRepN'
p715
I0
sS'StopBlocks.thisTrialN'
p716
I0
sg32
g33
sg93
Vm
sg24
V
sS'StopBlocks.thisN'
p717
I0
sS'StopTrials.thisN'
p718
I61
sS'StopBlocks.thisTrial'
p719
Nsg94
I0
sa(dp720
g31
I3
sg23
g12
sg18
I0
sS'StopBlocks.thisIndex'
p721
g82
sS'StopTrials.thisTrialN'
p722
I0
sg17
Nsg25
V
sg34
g35
sg26
g30
sS'StopTrials.thisRepN'
p723
I31
sS'StopTrials.thisIndex'
p724
I1
sg95
I200
sS'StopBlocks.thisRepN'
p725
I0
sS'StopBlocks.thisTrialN'
p726
I0
sg32
g33
sg93
Vm
sg24
V
sS'StopBlocks.thisN'
p727
I0
sS'StopTrials.thisN'
p728
I62
sS'StopBlocks.thisTrial'
p729
Nsg94
I0
sa(dp730
g31
I3
sg23
g12
sg18
I0
sS'StopBlocks.thisIndex'
p731
g82
sS'StopTrials.thisTrialN'
p732
I1
sg17
Nsg25
V
sg34
g35
sg26
g30
sS'StopTrials.thisRepN'
p733
I31
sS'StopTrials.thisIndex'
p734
I0
sg95
I-200
sS'StopBlocks.thisRepN'
p735
I0
sS'StopBlocks.thisTrialN'
p736
I0
sg32
g33
sg93
Vz
sg24
V
sS'StopBlocks.thisN'
p737
I0
sS'StopTrials.thisN'
p738
I63
sS'StopBlocks.thisTrial'
p739
Nsg94
I0
sa(dp740
g31
I3
sg23
g12
sg18
I0
sS'StopBlocks.thisIndex'
p741
g82
sS'StopTrials.thisTrialN'
p742
I0
sg17
Nsg25
V
sg34
g35
sg26
g30
sS'StopTrials.thisRepN'
p743
I32
sS'StopTrials.thisIndex'
p744
I1
sg95
I200
sS'StopBlocks.thisRepN'
p745
I0
sS'StopBlocks.thisTrialN'
p746
I0
sg32
g33
sg93
Vm
sg24
V
sS'StopBlocks.thisN'
p747
I0
sS'StopTrials.thisN'
p748
I64
sS'StopBlocks.thisTrial'
p749
Nsg94
I0
sa(dp750
g31
I3
sg23
g12
sg18
I0
sS'StopBlocks.thisIndex'
p751
g82
sS'StopTrials.thisTrialN'
p752
I1
sg17
Nsg25
V
sg34
g35
sg26
g30
sS'StopTrials.thisRepN'
p753
I32
sS'StopTrials.thisIndex'
p754
I1
sg95
I200
sS'StopBlocks.thisRepN'
p755
I0
sS'StopBlocks.thisTrialN'
p756
I0
sg32
g33
sg93
Vm
sg24
V
sS'StopBlocks.thisN'
p757
I0
sS'StopTrials.thisN'
p758
I65
sS'StopBlocks.thisTrial'
p759
Nsg94
I0
sa(dp760
g31
I3
sg23
g12
sg18
I0
sS'StopBlocks.thisIndex'
p761
g82
sS'StopTrials.thisTrialN'
p762
I0
sg17
Nsg25
V
sg34
g35
sg26
g30
sS'StopTrials.thisRepN'
p763
I33
sS'StopTrials.thisIndex'
p764
I1
sg95
I200
sS'StopBlocks.thisRepN'
p765
I0
sS'StopBlocks.thisTrialN'
p766
I0
sg32
g33
sg93
Vm
sg24
V
sS'StopBlocks.thisN'
p767
I0
sS'StopTrials.thisN'
p768
I66
sS'StopBlocks.thisTrial'
p769
Nsg94
I0
sa(dp770
g31
I3
sg23
g12
sg18
I0
sS'StopBlocks.thisIndex'
p771
g82
sS'StopTrials.thisTrialN'
p772
I1
sg17
Nsg25
V
sg34
g35
sg26
g30
sS'StopTrials.thisRepN'
p773
I33
sS'StopTrials.thisIndex'
p774
I0
sg95
I-200
sS'StopBlocks.thisRepN'
p775
I0
sS'StopBlocks.thisTrialN'
p776
I0
sg32
g33
sg93
Vz
sg24
V
sS'StopBlocks.thisN'
p777
I0
sS'StopTrials.thisN'
p778
I67
sS'StopBlocks.thisTrial'
p779
Nsg94
I0
sasS'loops'
p780
(lp781
g1
(g38
g3
NtRp782
(dp783
g41
V<PsychoPy2experiment version="1.82.01" encoding="utf-8">\u000a  <Settings>\u000a    <Param name="Show mouse" val="False" valType="bool" updates="None"/>\u000a    <Param name="Data filename" val="u'data' + os.sep + '%s_%s' %(expInfo['participant'], expInfo['date'])" valType="code" updates="None"/>\u000a    <Param name="Monitor" val="testMonitor" valType="str" updates="None"/>\u000a    <Param name="Enable Escape" val="True" valType="bool" updates="None"/>\u000a    <Param name="color" val="black" valType="str" updates="None"/>\u000a    <Param name="Window size (pixels)" val="[1680, 1050]" valType="code" updates="None"/>\u000a    <Param name="Full-screen window" val="True" valType="bool" updates="None"/>\u000a    <Param name="colorSpace" val="rgb" valType="str" updates="None"/>\u000a    <Param name="Experiment info" val="{'participant':'', 'gender (m/f)':'', 'age':'', 'session':03}" valType="code" updates="None"/>\u000a    <Param name="Save csv file" val="False" valType="bool" updates="None"/>\u000a    <Param name="Show info dlg" val="True" valType="bool" updates="None"/>\u000a    <Param name="Save wide csv file" val="True" valType="bool" updates="None"/>\u000a    <Param name="Save psydat file" val="True" valType="bool" updates="None"/>\u000a    <Param name="expName" val="LearningTask" valType="str" updates="None"/>\u000a    <Param name="logging level" val="warning" valType="code" updates="None"/>\u000a    <Param name="blendMode" val="avg" valType="str" updates="None"/>\u000a    <Param name="Save excel file" val="True" valType="bool" updates="None"/>\u000a    <Param name="Units" val="use prefs" valType="str" updates="None"/>\u000a    <Param name="Save log file" val="True" valType="bool" updates="None"/>\u000a    <Param name="Screen" val="1" valType="num" updates="None"/>\u000a  </Settings>\u000a  <Routines>\u000a    <Routine name="stopBlockSetup">\u000a      <CodeComponent name="code_9">\u000a        <Param name="Begin Experiment" val="goCumRT = 0&#10;goRTCount = 0&#10;omissionCount = 0&#10;commissionCount = 0&#10;stopTrialCount = 0&#10;stopSuccessCount = 0&#10;goTrialCount = 0" valType="extendedCode" updates="constant"/>\u000a        <Param name="name" val="code_9" valType="code" updates="None"/>\u000a        <Param name="Begin Routine" val="" valType="extendedCode" updates="constant"/>\u000a        <Param name="End Routine" val="" valType="extendedCode" updates="constant"/>\u000a        <Param name="End Experiment" val="" valType="extendedCode" updates="constant"/>\u000a        <Param name="Each Frame" val="" valType="extendedCode" updates="constant"/>\u000a      </CodeComponent>\u000a    </Routine>\u000a    <Routine name="blankStop">\u000a      <TextComponent name="text_4">\u000a        <Param name="opacity" val="1" valType="code" updates="constant"/>\u000a        <Param name="colorSpace" val="rgb" valType="str" updates="constant"/>\u000a        <Param name="name" val="text_4" valType="code" updates="None"/>\u000a        <Param name="wrapWidth" val="" valType="code" updates="constant"/>\u000a        <Param name="color" val="white" valType="str" updates="constant"/>\u000a        <Param name="text" val="THIS IS THE BLANK SCREEN" valType="str" updates="constant"/>\u000a        <Param name="stopVal" val="1.5" valType="code" updates="constant"/>\u000a        <Param name="durationEstim" val="" valType="code" updates="None"/>\u000a        <Param name="pos" val="[0, 0]" valType="code" updates="constant"/>\u000a        <Param name="flip" val="" valType="str" updates="constant"/>\u000a        <Param name="startEstim" val="" valType="code" updates="None"/>\u000a        <Param name="units" val="from exp settings" valType="str" updates="None"/>\u000a        <Param name="startType" val="time (s)" valType="str" updates="None"/>\u000a        <Param name="ori" val="0" valType="code" updates="constant"/>\u000a        <Param name="stopType" val="duration (s)" valType="str" updates="None"/>\u000a        <Param name="startVal" val="0.0" valType="code" updates="None"/>\u000a        <Param name="font" val="Arial" valType="str" updates="constant"/>\u000a        <Param name="letterHeight" val="0.1" valType="code" updates="constant"/>\u000a      </TextComponent>\u000a    </Routine>\u000a    <Routine name="End">\u000a      <TextComponent name="text_6">\u000a        <Param name="opacity" val="1" valType="code" updates="constant"/>\u000a        <Param name="colorSpace" val="rgb" valType="str" updates="constant"/>\u000a        <Param name="name" val="text_6" valType="code" updates="None"/>\u000a        <Param name="wrapWidth" val="" valType="code" updates="constant"/>\u000a        <Param name="color" val="white" valType="str" updates="constant"/>\u000a        <Param name="text" val="Bye" valType="str" updates="constant"/>\u000a        <Param name="stopVal" val="1.0" valType="code" updates="constant"/>\u000a        <Param name="durationEstim" val="" valType="code" updates="None"/>\u000a        <Param name="pos" val="[0, 0]" valType="code" updates="constant"/>\u000a        <Param name="flip" val="" valType="str" updates="constant"/>\u000a        <Param name="startEstim" val="" valType="code" updates="None"/>\u000a        <Param name="units" val="from exp settings" valType="str" updates="None"/>\u000a        <Param name="startType" val="time (s)" valType="str" updates="None"/>\u000a        <Param name="ori" val="0" valType="code" updates="constant"/>\u000a        <Param name="stopType" val="duration (s)" valType="str" updates="None"/>\u000a        <Param name="startVal" val="0.0" valType="code" updates="None"/>\u000a        <Param name="font" val="Arial" valType="str" updates="constant"/>\u000a        <Param name="letterHeight" val="0.1" valType="code" updates="constant"/>\u000a      </TextComponent>\u000a    </Routine>\u000a    <Routine name="instrStopPrac">\u000a      <TextComponent name="instrStopText">\u000a        <Param name="opacity" val="1" valType="code" updates="constant"/>\u000a        <Param name="colorSpace" val="rgb" valType="str" updates="constant"/>\u000a        <Param name="name" val="instrStopText" valType="code" updates="None"/>\u000a        <Param name="wrapWidth" val="" valType="code" updates="constant"/>\u000a        <Param name="color" val="white" valType="str" updates="constant"/>\u000a        <Param name="text" val="A shape stimulus will appear on the left or right side of the screen&#10;&#10;If it appears on the left, press Z&#10;&#10;If it appears on the right, press M&#10;&#10;If you hear a tone, do not press anything on that trial" valType="str" updates="constant"/>\u000a        <Param name="stopVal" val="" valType="code" updates="constant"/>\u000a        <Param name="durationEstim" val="" valType="code" updates="None"/>\u000a        <Param name="pos" val="[0, 0]" valType="code" updates="constant"/>\u000a        <Param name="flip" val="" valType="str" updates="constant"/>\u000a        <Param name="startEstim" val="" valType="code" updates="None"/>\u000a        <Param name="units" val="from exp settings" valType="str" updates="None"/>\u000a        <Param name="startType" val="time (s)" valType="str" updates="None"/>\u000a        <Param name="ori" val="0" valType="code" updates="constant"/>\u000a        <Param name="stopType" val="duration (s)" valType="str" updates="None"/>\u000a        <Param name="startVal" val="0.0" valType="code" updates="None"/>\u000a        <Param name="font" val="Arial" valType="str" updates="constant"/>\u000a        <Param name="letterHeight" val="0.1" valType="code" updates="constant"/>\u000a      </TextComponent>\u000a      <KeyboardComponent name="key_resp_2">\u000a        <Param name="correctAns" val="" valType="str" updates="constant"/>\u000a        <Param name="storeCorrect" val="False" valType="bool" updates="constant"/>\u000a        <Param name="name" val="key_resp_2" valType="code" updates="None"/>\u000a        <Param name="stopVal" val="" valType="code" updates="constant"/>\u000a        <Param name="durationEstim" val="" valType="code" updates="None"/>\u000a        <Param name="forceEndRoutine" val="True" valType="bool" updates="constant"/>\u000a        <Param name="startEstim" val="" valType="code" updates="None"/>\u000a        <Param name="discard previous" val="True" valType="bool" updates="constant"/>\u000a        <Param name="startType" val="time (s)" valType="str" updates="None"/>\u000a        <Param name="allowedKeys" val="" valType="code" updates="constant"/>\u000a        <Param name="stopType" val="duration (s)" valType="str" updates="None"/>\u000a        <Param name="startVal" val="0.0" valType="code" updates="None"/>\u000a        <Param name="store" val="nothing" valType="str" updates="constant"/>\u000a      </KeyboardComponent>\u000a      <CodeComponent name="code_8">\u000a        <Param name="Begin Experiment" val="" valType="extendedCode" updates="constant"/>\u000a        <Param name="name" val="code_8" valType="code" updates="None"/>\u000a        <Param name="Begin Routine" val="InitSSD = 250&#10;SSDLeft = InitSSD&#10;SSDRight = InitSSD" valType="extendedCode" updates="constant"/>\u000a        <Param name="End Routine" val="" valType="extendedCode" updates="constant"/>\u000a        <Param name="End Experiment" val="" valType="extendedCode" updates="constant"/>\u000a        <Param name="Each Frame" val="" valType="extendedCode" updates="constant"/>\u000a      </CodeComponent>\u000a    </Routine>\u000a    <Routine name="ExitMain">\u000a      <CodeComponent name="code_6">\u000a        <Param name="Begin Experiment" val="" valType="extendedCode" updates="constant"/>\u000a        <Param name="name" val="code_6" valType="code" updates="None"/>\u000a        <Param name="Begin Routine" val="" valType="extendedCode" updates="constant"/>\u000a        <Param name="End Routine" val="if resp.corr:&#10;    ReDoLoopMain.finished = True" valType="extendedCode" updates="constant"/>\u000a        <Param name="End Experiment" val="" valType="extendedCode" updates="constant"/>\u000a        <Param name="Each Frame" val="" valType="extendedCode" updates="constant"/>\u000a      </CodeComponent>\u000a    </Routine>\u000a    <Routine name="endOfStopBlockFeedback">\u000a      <CodeComponent name="code_10">\u000a        <Param name="Begin Experiment" val="" valType="extendedCode" updates="constant"/>\u000a        <Param name="name" val="code_10" valType="code" updates="None"/>\u000a        <Param name="Begin Routine" val="goRTFeedback = str(goCumRT/goRTCount)&#10;commissionRate = str(commissionCount/goTrialCount)&#10;omissionRate = str(omissionCount/goTrialCount)&#10;probabilityOfStop = str(stopSuccessCount/stopTrialCount)&#10;SSDFeedback = str(numpy.mean(SSDLeft, SSDRight))" valType="extendedCode" updates="constant"/>\u000a        <Param name="End Routine" val="" valType="extendedCode" updates="constant"/>\u000a        <Param name="End Experiment" val="" valType="extendedCode" updates="constant"/>\u000a        <Param name="Each Frame" val="" valType="extendedCode" updates="constant"/>\u000a      </CodeComponent>\u000a      <TextComponent name="text_5">\u000a        <Param name="opacity" val="1" valType="code" updates="constant"/>\u000a        <Param name="colorSpace" val="rgb" valType="str" updates="constant"/>\u000a        <Param name="name" val="text_5" valType="code" updates="None"/>\u000a        <Param name="wrapWidth" val="" valType="code" updates="constant"/>\u000a        <Param name="color" val="white" valType="str" updates="constant"/>\u000a        <Param name="text" val="blah" valType="str" updates="constant"/>\u000a        <Param name="stopVal" val="" valType="code" updates="constant"/>\u000a        <Param name="durationEstim" val="" valType="code" updates="None"/>\u000a        <Param name="pos" val="[0, 0]" valType="code" updates="constant"/>\u000a        <Param name="flip" val="" valType="str" updates="constant"/>\u000a        <Param name="startEstim" val="" valType="code" updates="None"/>\u000a        <Param name="units" val="from exp settings" valType="str" updates="None"/>\u000a        <Param name="startType" val="time (s)" valType="str" updates="None"/>\u000a        <Param name="ori" val="0" valType="code" updates="constant"/>\u000a        <Param name="stopType" val="duration (s)" valType="str" updates="None"/>\u000a        <Param name="startVal" val="0.0" valType="code" updates="None"/>\u000a        <Param name="font" val="Arial" valType="str" updates="constant"/>\u000a        <Param name="letterHeight" val="0.1" valType="code" updates="constant"/>\u000a      </TextComponent>\u000a      <KeyboardComponent name="key_resp_3">\u000a        <Param name="correctAns" val="" valType="str" updates="constant"/>\u000a        <Param name="storeCorrect" val="False" valType="bool" updates="constant"/>\u000a        <Param name="name" val="key_resp_3" valType="code" updates="None"/>\u000a        <Param name="stopVal" val="" valType="code" updates="constant"/>\u000a        <Param name="durationEstim" val="" valType="code" updates="None"/>\u000a        <Param name="forceEndRoutine" val="True" valType="bool" updates="constant"/>\u000a        <Param name="startEstim" val="" valType="code" updates="None"/>\u000a        <Param name="discard previous" val="True" valType="bool" updates="constant"/>\u000a        <Param name="startType" val="time (s)" valType="str" updates="None"/>\u000a        <Param name="allowedKeys" val="'y','n','left','right','space'" valType="code" updates="set every repeat"/>\u000a        <Param name="stopType" val="duration (s)" valType="str" updates="None"/>\u000a        <Param name="startVal" val="0.0" valType="code" updates="None"/>\u000a        <Param name="store" val="last key" valType="str" updates="constant"/>\u000a      </KeyboardComponent>\u000a    </Routine>\u000a    <Routine name="NewStim">\u000a      <CodeComponent name="code_4">\u000a        <Param name="Begin Experiment" val="" valType="extendedCode" updates="constant"/>\u000a        <Param name="name" val="code_4" valType="code" updates="None"/>\u000a        <Param name="Begin Routine" val="currentLearningTrial = learningTrialList.pop(0)&#10;currentStimulus = currentLearningTrial['fileName']&#10;" valType="extendedCode" updates="constant"/>\u000a        <Param name="End Routine" val="" valType="extendedCode" updates="constant"/>\u000a        <Param name="End Experiment" val="" valType="extendedCode" updates="constant"/>\u000a        <Param name="Each Frame" val="" valType="extendedCode" updates="constant"/>\u000a      </CodeComponent>\u000a    </Routine>\u000a    <Routine name="SSDChange">\u000a      <CodeComponent name="code_2">\u000a        <Param name="Begin Experiment" val="" valType="extendedCode" updates="constant"/>\u000a        <Param name="name" val="code_2" valType="code" updates="None"/>\u000a        <Param name="Begin Routine" val="if goResp.keys is None:&#10;    if xPosGoStim == -200:&#10;        SSDLeft = SSDLeft  + 50&#10;    if xPosGoStim == 200:&#10;        SSDRight = SSDRight + 50&#10;else:&#10;    if xPosGoStim == -200:&#10;        SSDLeft = SSDLeft - 50&#10;    if xPosGoStim == 200:&#10;        SSDRight = SSDRight - 50&#10;&#10;if currentStopTrial['stopOrGo'] == 'go':&#10;    goTrialCount = goTrialCount + 1&#10;&#10;if goResp.corr and currentStopTrial['stopOrGo'] == 'go':&#10;    goCumRT = goCumRT + goResp.RT&#10;    goRTCount = goRTCount + 1&#10;&#10;if currentStopTrial['stopOrGo'] == 'stop':&#10;    stopTrialCount = stopTrialCount + 1&#10;&#10;if currentStopTrial['stopOrGo'] == 'stop' and goResp.keys is None:&#10;    stopSuccessCount = stopSuccessCount + 1&#10;&#10;if goResp.keys is None and currentStopTrial['stopOrGo'] == 'go':&#10;    omissionCount = 0&#10;&#10;if goResp != corrGoResp:&#10;    commissionCount = commissionCount + 1" valType="extendedCode" updates="constant"/>\u000a        <Param name="End Routine" val="" valType="extendedCode" updates="constant"/>\u000a        <Param name="End Experiment" val="" valType="extendedCode" updates="constant"/>\u000a        <Param name="Each Frame" val="" valType="extendedCode" updates="constant"/>\u000a      </CodeComponent>\u000a    </Routine>\u000a    <Routine name="instrPractice">\u000a      <TextComponent name="instruct1">\u000a        <Param name="opacity" val="1" valType="code" updates="constant"/>\u000a        <Param name="colorSpace" val="rgb" valType="str" updates="constant"/>\u000a        <Param name="name" val="instruct1" valType="code" updates="constant"/>\u000a        <Param name="wrapWidth" val="" valType="code" updates="constant"/>\u000a        <Param name="color" val="white" valType="str" updates="constant"/>\u000a        <Param name="text" val="A shape stimulus will appear on every trial. &#10;&#10;If it appears in the upper right quadrant, PRESS I&#10;&#10;If it appears in the lower right quadrant, PRESS K&#10;&#10;If it appears in the lower left quadrant, PRESS J&#10;&#10;If it appears in the upper left quadrant, PRESS U&#10;&#10;Press any key when you are ready to proceed. " valType="str" updates="constant"/>\u000a        <Param name="stopVal" val="" valType="code" updates="constant"/>\u000a        <Param name="durationEstim" val="" valType="code" updates="None"/>\u000a        <Param name="pos" val="[0, 0]" valType="code" updates="constant"/>\u000a        <Param name="flip" val="" valType="str" updates="constant"/>\u000a        <Param name="startEstim" val="" valType="code" updates="None"/>\u000a        <Param name="units" val="from exp settings" valType="str" updates="None"/>\u000a        <Param name="startType" val="time (s)" valType="str" updates="None"/>\u000a        <Param name="ori" val="0" valType="code" updates="constant"/>\u000a        <Param name="stopType" val="duration (s)" valType="str" updates="None"/>\u000a        <Param name="startVal" val="0.0" valType="code" updates="None"/>\u000a        <Param name="font" val="Arial" valType="str" updates="constant"/>\u000a        <Param name="letterHeight" val="0.07" valType="code" updates="constant"/>\u000a      </TextComponent>\u000a      <KeyboardComponent name="ok1">\u000a        <Param name="correctAns" val="" valType="str" updates="constant"/>\u000a        <Param name="storeCorrect" val="False" valType="bool" updates="constant"/>\u000a        <Param name="name" val="ok1" valType="code" updates="None"/>\u000a        <Param name="stopVal" val="" valType="code" updates="constant"/>\u000a        <Param name="durationEstim" val="" valType="code" updates="None"/>\u000a        <Param name="forceEndRoutine" val="True" valType="bool" updates="constant"/>\u000a        <Param name="startEstim" val="" valType="code" updates="None"/>\u000a        <Param name="discard previous" val="True" valType="bool" updates="constant"/>\u000a        <Param name="startType" val="time (s)" valType="str" updates="None"/>\u000a        <Param name="allowedKeys" val="" valType="code" updates="constant"/>\u000a        <Param name="stopType" val="duration (s)" valType="str" updates="None"/>\u000a        <Param name="startVal" val="0.0" valType="code" updates="None"/>\u000a        <Param name="store" val="last key" valType="str" updates="constant"/>\u000a      </KeyboardComponent>\u000a    </Routine>\u000a    <Routine name="ExitPrac">\u000a      <CodeComponent name="code_5">\u000a        <Param name="Begin Experiment" val="" valType="extendedCode" updates="constant"/>\u000a        <Param name="name" val="code_5" valType="code" updates="None"/>\u000a        <Param name="Begin Routine" val="" valType="extendedCode" updates="constant"/>\u000a        <Param name="End Routine" val="if resp.corr:&#10;    ReDoLoop.finished = True " valType="extendedCode" updates="constant"/>\u000a        <Param name="End Experiment" val="" valType="extendedCode" updates="constant"/>\u000a        <Param name="Each Frame" val="" valType="extendedCode" updates="constant"/>\u000a      </CodeComponent>\u000a    </Routine>\u000a    <Routine name="trial">\u000a      <KeyboardComponent name="resp">\u000a        <Param name="correctAns" val="$corrAns" valType="str" updates="constant"/>\u000a        <Param name="storeCorrect" val="True" valType="bool" updates="constant"/>\u000a        <Param name="name" val="resp" valType="code" updates="None"/>\u000a        <Param name="stopVal" val="1" valType="code" updates="constant"/>\u000a        <Param name="durationEstim" val="" valType="code" updates="None"/>\u000a        <Param name="forceEndRoutine" val="True" valType="bool" updates="constant"/>\u000a        <Param name="startEstim" val="" valType="code" updates="None"/>\u000a        <Param name="discard previous" val="True" valType="bool" updates="constant"/>\u000a        <Param name="startType" val="time (s)" valType="str" updates="None"/>\u000a        <Param name="allowedKeys" val="'u', 'i', 'j', 'k'" valType="code" updates="constant"/>\u000a        <Param name="stopType" val="duration (s)" valType="str" updates="None"/>\u000a        <Param name="startVal" val=".5" valType="code" updates="None"/>\u000a        <Param name="store" val="last key" valType="str" updates="constant"/>\u000a      </KeyboardComponent>\u000a      <TextComponent name="text">\u000a        <Param name="opacity" val="1" valType="code" updates="constant"/>\u000a        <Param name="colorSpace" val="rgb" valType="str" updates="constant"/>\u000a        <Param name="name" val="text" valType="code" updates="None"/>\u000a        <Param name="wrapWidth" val="" valType="code" updates="constant"/>\u000a        <Param name="color" val="white" valType="str" updates="constant"/>\u000a        <Param name="text" val="+" valType="str" updates="constant"/>\u000a        <Param name="stopVal" val="1.5" valType="code" updates="constant"/>\u000a        <Param name="durationEstim" val="" valType="code" updates="None"/>\u000a        <Param name="pos" val="[0, 0]" valType="code" updates="constant"/>\u000a        <Param name="flip" val="" valType="str" updates="constant"/>\u000a        <Param name="startEstim" val="" valType="code" updates="None"/>\u000a        <Param name="units" val="from exp settings" valType="str" updates="None"/>\u000a        <Param name="startType" val="time (s)" valType="str" updates="None"/>\u000a        <Param name="ori" val="0" valType="code" updates="constant"/>\u000a        <Param name="stopType" val="duration (s)" valType="str" updates="None"/>\u000a        <Param name="startVal" val="0.0" valType="code" updates="None"/>\u000a        <Param name="font" val="Arial" valType="str" updates="constant"/>\u000a        <Param name="letterHeight" val="1" valType="code" updates="constant"/>\u000a      </TextComponent>\u000a      <ImageComponent name="image_2">\u000a        <Param name="opacity" val="1" valType="code" updates="constant"/>\u000a        <Param name="flipVert" val="False" valType="bool" updates="constant"/>\u000a        <Param name="colorSpace" val="rgb" valType="str" updates="constant"/>\u000a        <Param name="name" val="image_2" valType="code" updates="None"/>\u000a        <Param name="color" val="$[1,1,1]" valType="str" updates="constant"/>\u000a        <Param name="stopVal" val="1.0" valType="code" updates="constant"/>\u000a        <Param name="durationEstim" val="" valType="code" updates="None"/>\u000a        <Param name="mask" val="None" valType="str" updates="constant"/>\u000a        <Param name="pos" val="$[xPos, yPos]" valType="code" updates="set every repeat"/>\u000a        <Param name="interpolate" val="linear" valType="str" updates="constant"/>\u000a        <Param name="startEstim" val="" valType="code" updates="None"/>\u000a        <Param name="units" val="pix" valType="str" updates="None"/>\u000a        <Param name="texture resolution" val="128" valType="code" updates="constant"/>\u000a        <Param name="startType" val="time (s)" valType="str" updates="None"/>\u000a        <Param name="ori" val="0" valType="code" updates="constant"/>\u000a        <Param name="stopType" val="duration (s)" valType="str" updates="None"/>\u000a        <Param name="startVal" val=".5" valType="code" updates="None"/>\u000a        <Param name="flipHoriz" val="False" valType="bool" updates="constant"/>\u000a        <Param name="image" val="$currentStimulus" valType="str" updates="set every repeat"/>\u000a        <Param name="size" val="[151, 151]" valType="code" updates="constant"/>\u000a      </ImageComponent>\u000a    </Routine>\u000a    <Routine name="StimSetup">\u000a      <CodeComponent name="code">\u000a        <Param name="Begin Experiment" val="from copy import deepcopy&#10;colors = ['yellow', 'white', 'orange', 'magenta', 'green', 'gray', 'cyan', 'blue']&#10;shapes = ['triangle', 'square', 'line', 'invertedtriangle', 'hexagon', 'diamond', 'cross', 'circle']&#10;rewards = [0.50, 1.00, 2.00, 4.00] * 2&#10;conditions = ['go', 'go', 'go', 'go', 'stop', 'stop', 'stop', 'stop']&#10;trialDetailsList = []&#10;learningTrialList = []&#10;&#10;shuffle(colors)&#10;shuffle(shapes)&#10;&#10;for i, color in enumerate(colors): # cycle through each color and keep track of an index number&#10;    trialDetails = {} # a dictionary of key-value pairs&#10;    trialDetails['fileName'] = shapes[i] + color + '.gif'&#10;    trialDetails['reward'] = rewards[i]&#10;    trialDetails['condition'] = conditions[i]&#10;    trialDetailsList.append(trialDetails)&#10;&#10;shuffle(trialDetailsList) # do this now to ensure that order of presentation of rewards and conditions is also shuffled&#10;&#10;conditionOne = trialDetailsList[0]&#10;conditionTwo = trialDetailsList[1]&#10;conditionThree = trialDetailsList[2]&#10;conditionFour = trialDetailsList[3]&#10;conditionFive = trialDetailsList[4]&#10;conditionSix = trialDetailsList[5]&#10;conditionSeven = trialDetailsList[6]&#10;conditionEight = trialDetailsList[7]&#10;&#10;numLearningTrials = 400&#10;numLearningRepetitions = 50&#10;for k in range(1, numLearningRepetitions + 1):&#10;    learningTrialList.append(conditionOne)&#10;    learningTrialList.append(conditionTwo)&#10;    learningTrialList.append(conditionThree)&#10;    learningTrialList.append(conditionFour)&#10;    learningTrialList.append(conditionFive)&#10;    learningTrialList.append(conditionSix)&#10;    learningTrialList.append(conditionSeven)&#10;    learningTrialList.append(conditionEight)&#10;&#10;shuffle(learningTrialList)&#10;&#10;stopTaskTrials = 272&#10;stopTrialsPerStopStim = 26&#10;goTrialsPerStopStim = 8&#10;goTrialsPerGoStim = 34&#10;numStim = 8&#10;stopTrialList = []&#10;&#10;if conditionOne['condition'] == 'go':&#10;    conditionOne['stopOrGo'] = 'go'&#10;    for i in range(1, goTrialsPerGoStim + 1):&#10;        stopTrialList.append(conditionOne)&#10;else:&#10;    for j in range(1, goTrialsPerStopStim + 1):&#10;        conditionOne['stopOrGo'] = 'go'&#10;        stopTrialList.append(deepcopy(conditionOne))&#10;    for i in range(1, stopTrialsPerStopStim + 1):&#10;        conditionOne['stopOrGo'] = 'stop'&#10;        stopTrialList.append(deepcopy(conditionOne))&#10;if conditionTwo['condition'] == 'go':&#10;    conditionTwo['stopOrGo'] = 'go'&#10;    for i in range(1, goTrialsPerGoStim + 1):&#10;        stopTrialList.append(conditionTwo)&#10;else:&#10;    for j in range(1, goTrialsPerStopStim + 1):&#10;        conditionTwo['stopOrGo'] = 'go'&#10;        stopTrialList.append(deepcopy(conditionTwo))&#10;    for i in range(1,  stopTrialsPerStopStim + 1):&#10;        conditionTwo['stopOrGo'] = 'stop'&#10;        stopTrialList.append(deepcopy(conditionTwo))&#10;if conditionThree['condition'] == 'go':&#10;    conditionThree['stopOrGo'] = 'go'&#10;    for i in range(1, goTrialsPerGoStim + 1):&#10;        stopTrialList.append(conditionThree)&#10;else:&#10;    for j in range(1, goTrialsPerStopStim + 1):&#10;        conditionThree['stopOrGo'] = 'go'&#10;        stopTrialList.append(deepcopy(conditionThree))&#10;    for i in range(1, stopTrialsPerStopStim + 1):&#10;        conditionThree['stopOrGo'] = 'stop'&#10;        stopTrialList.append(deepcopy(conditionThree))&#10;if conditionFour['condition'] == 'go':&#10;    conditionFour['stopOrGo'] = 'go'&#10;    for i in range(1, goTrialsPerGoStim + 1):&#10;        stopTrialList.append(conditionFour)&#10;else:&#10;    for j in range(1, goTrialsPerStopStim + 1):&#10;        conditionFour['stopOrGo'] = 'go'&#10;        stopTrialList.append(deepcopy(conditionFour))&#10;    for i in range(1, stopTrialsPerStopStim + 1):&#10;        conditionFour['stopOrGo'] = 'stop'&#10;        stopTrialList.append(deepcopy(conditionFour))&#10;if conditionFive['condition'] == 'go':&#10;    conditionFive['stopOrGo'] = 'go'&#10;    for i in range(1, goTrialsPerGoStim + 1):&#10;        stopTrialList.append(conditionFive)&#10;else:&#10;    for j in range(1, goTrialsPerStopStim + 1):&#10;        conditionFive['stopOrGo'] = 'go'&#10;        stopTrialList.append(deepcopy(conditionFive))&#10;    for i in range(1, stopTrialsPerStopStim + 1):&#10;        conditionFive['stopOrGo'] = 'stop'&#10;        stopTrialList.append(deepcopy(conditionFive))&#10;if conditionSix['condition'] == 'go':&#10;    conditionSix['stopOrGo'] = 'go'&#10;    for i in range(1, goTrialsPerGoStim + 1):&#10;        stopTrialList.append(conditionSix)&#10;else:&#10;    for j in range(1, stopTrialsPerStopStim + 1):&#10;        conditionSix['stopOrGo'] = 'go'&#10;        stopTrialList.append(deepcopy(conditionSix))&#10;    for i in range(1, goTrialsPerStopStim + 1):&#10;        conditionSix['stopOrGo'] = 'stop'&#10;        stopTrialList.append(deepcopy(conditionSix))&#10;if conditionSeven['condition'] == 'go':&#10;    conditionSeven['stopOrGo'] = 'go'&#10;    for i in range(1, goTrialsPerGoStim + 1):&#10;        stopTrialList.append(conditionSeven)&#10;else:&#10;    for j in range(1, goTrialsPerStopStim + 1):&#10;        conditionSeven['stopOrGo'] = 'go'&#10;        stopTrialList.append(deepcopy(conditionSeven))&#10;    for i in range(1, stopTrialsPerStopStim + 1):&#10;        conditionSeven['stopOrGo'] = 'stop'&#10;        stopTrialList.append(deepcopy(conditionSeven))&#10;if conditionEight['condition'] == 'go':&#10;    conditionEight['stopOrGo'] = 'go'&#10;    for i in range(1, goTrialsPerGoStim + 1):&#10;        stopTrialList.append(conditionEight)&#10;else:&#10;    for j in range(1, goTrialsPerStopStim + 1):&#10;        conditionEight['stopOrGo'] = 'go'&#10;        stopTrialList.append(deepcopy(conditionEight))&#10;    for i in range(1, stopTrialsPerStopStim + 1):&#10;        conditionEight['stopOrGo'] = 'stop'&#10;        stopTrialList.append(deepcopy(conditionEight))&#10;&#10;shuffle(stopTrialList)" valType="extendedCode" updates="constant"/>\u000a        <Param name="name" val="code" valType="code" updates="None"/>\u000a        <Param name="Begin Routine" val="" valType="extendedCode" updates="constant"/>\u000a        <Param name="End Routine" val="" valType="extendedCode" updates="constant"/>\u000a        <Param name="End Experiment" val="" valType="extendedCode" updates="constant"/>\u000a        <Param name="Each Frame" val="" valType="extendedCode" updates="constant"/>\u000a      </CodeComponent>\u000a    </Routine>\u000a    <Routine name="Bank"/>\u000a    <Routine name="Blank">\u000a      <TextComponent name="text_2">\u000a        <Param name="opacity" val="1" valType="code" updates="constant"/>\u000a        <Param name="colorSpace" val="rgb" valType="str" updates="constant"/>\u000a        <Param name="name" val="text_2" valType="code" updates="None"/>\u000a        <Param name="wrapWidth" val="" valType="code" updates="constant"/>\u000a        <Param name="color" val="white" valType="str" updates="constant"/>\u000a        <Param name="text" val="" valType="str" updates="constant"/>\u000a        <Param name="stopVal" val=".5" valType="code" updates="constant"/>\u000a        <Param name="durationEstim" val="" valType="code" updates="None"/>\u000a        <Param name="pos" val="[0, 0]" valType="code" updates="constant"/>\u000a        <Param name="flip" val="" valType="str" updates="constant"/>\u000a        <Param name="startEstim" val="" valType="code" updates="None"/>\u000a        <Param name="units" val="from exp settings" valType="str" updates="None"/>\u000a        <Param name="startType" val="time (s)" valType="str" updates="None"/>\u000a        <Param name="ori" val="0" valType="code" updates="constant"/>\u000a        <Param name="stopType" val="duration (s)" valType="str" updates="None"/>\u000a        <Param name="startVal" val="0" valType="code" updates="None"/>\u000a        <Param name="font" val="Arial" valType="str" updates="constant"/>\u000a        <Param name="letterHeight" val="0.1" valType="code" updates="constant"/>\u000a      </TextComponent>\u000a    </Routine>\u000a    <Routine name="ResetAtBlock">\u000a      <CodeComponent name="code_3">\u000a        <Param name="Begin Experiment" val="" valType="extendedCode" updates="constant"/>\u000a        <Param name="name" val="code_3" valType="code" updates="None"/>\u000a        <Param name="Begin Routine" val="Redo = 1" valType="extendedCode" updates="constant"/>\u000a        <Param name="End Routine" val="" valType="extendedCode" updates="constant"/>\u000a        <Param name="End Experiment" val="" valType="extendedCode" updates="constant"/>\u000a        <Param name="Each Frame" val="" valType="extendedCode" updates="constant"/>\u000a      </CodeComponent>\u000a    </Routine>\u000a    <Routine name="StopTrial">\u000a      <TextComponent name="text_3">\u000a        <Param name="opacity" val="1" valType="code" updates="constant"/>\u000a        <Param name="colorSpace" val="rgb" valType="str" updates="constant"/>\u000a        <Param name="name" val="text_3" valType="code" updates="None"/>\u000a        <Param name="wrapWidth" val="" valType="code" updates="constant"/>\u000a        <Param name="color" val="white" valType="str" updates="constant"/>\u000a        <Param name="text" val="|" valType="str" updates="constant"/>\u000a        <Param name="stopVal" val="1.5" valType="code" updates="constant"/>\u000a        <Param name="durationEstim" val="" valType="code" updates="None"/>\u000a        <Param name="pos" val="[0, 0]" valType="code" updates="constant"/>\u000a        <Param name="flip" val="" valType="str" updates="constant"/>\u000a        <Param name="startEstim" val="" valType="code" updates="None"/>\u000a        <Param name="units" val="from exp settings" valType="str" updates="None"/>\u000a        <Param name="startType" val="time (s)" valType="str" updates="None"/>\u000a        <Param name="ori" val="0" valType="code" updates="constant"/>\u000a        <Param name="stopType" val="duration (s)" valType="str" updates="None"/>\u000a        <Param name="startVal" val="0.0" valType="code" updates="None"/>\u000a        <Param name="font" val="Arial" valType="str" updates="constant"/>\u000a        <Param name="letterHeight" val="4" valType="code" updates="constant"/>\u000a      </TextComponent>\u000a      <ImageComponent name="image_3">\u000a        <Param name="opacity" val="1" valType="code" updates="constant"/>\u000a        <Param name="flipVert" val="False" valType="bool" updates="constant"/>\u000a        <Param name="colorSpace" val="rgb" valType="str" updates="constant"/>\u000a        <Param name="name" val="image_3" valType="code" updates="None"/>\u000a        <Param name="color" val="$[1,1,1]" valType="str" updates="constant"/>\u000a        <Param name="stopVal" val="1.0" valType="code" updates="constant"/>\u000a        <Param name="durationEstim" val="" valType="code" updates="None"/>\u000a        <Param name="mask" val="None" valType="str" updates="constant"/>\u000a        <Param name="pos" val="$[xPosGoStim, yPosGoStim]" valType="code" updates="set every repeat"/>\u000a        <Param name="interpolate" val="linear" valType="str" updates="constant"/>\u000a        <Param name="startEstim" val="" valType="code" updates="None"/>\u000a        <Param name="units" val="pix" valType="str" updates="None"/>\u000a        <Param name="texture resolution" val="128" valType="code" updates="constant"/>\u000a        <Param name="startType" val="time (s)" valType="str" updates="None"/>\u000a        <Param name="ori" val="0" valType="code" updates="constant"/>\u000a        <Param name="stopType" val="duration (s)" valType="str" updates="None"/>\u000a        <Param name="startVal" val=".5" valType="code" updates="None"/>\u000a        <Param name="flipHoriz" val="False" valType="bool" updates="constant"/>\u000a        <Param name="image" val="$currentGoStim" valType="str" updates="set every repeat"/>\u000a        <Param name="size" val="[151, 151]" valType="code" updates="constant"/>\u000a      </ImageComponent>\u000a      <SoundComponent name="sound_1">\u000a        <Param name="sound" val="900" valType="str" updates="constant"/>\u000a        <Param name="volume" val="1" valType="code" updates="constant"/>\u000a        <Param name="name" val="sound_1" valType="code" updates="None"/>\u000a        <Param name="stopVal" val=".2" valType="code" updates="constant"/>\u000a        <Param name="durationEstim" val="" valType="code" updates="None"/>\u000a        <Param name="startEstim" val=".75" valType="code" updates="None"/>\u000a        <Param name="startType" val="time (s)" valType="str" updates="None"/>\u000a        <Param name="stopType" val="duration (s)" valType="str" updates="None"/>\u000a        <Param name="startVal" val="750" valType="code" updates="None"/>\u000a      </SoundComponent>\u000a      <KeyboardComponent name="goResp">\u000a        <Param name="correctAns" val="$corrGoResp" valType="str" updates="constant"/>\u000a        <Param name="storeCorrect" val="True" valType="bool" updates="constant"/>\u000a        <Param name="name" val="goResp" valType="code" updates="None"/>\u000a        <Param name="stopVal" val="1" valType="code" updates="constant"/>\u000a        <Param name="durationEstim" val="" valType="code" updates="None"/>\u000a        <Param name="forceEndRoutine" val="False" valType="bool" updates="constant"/>\u000a        <Param name="startEstim" val="" valType="code" updates="None"/>\u000a        <Param name="discard previous" val="True" valType="bool" updates="constant"/>\u000a        <Param name="startType" val="time (s)" valType="str" updates="None"/>\u000a        <Param name="allowedKeys" val="'z','m'" valType="code" updates="constant"/>\u000a        <Param name="stopType" val="duration (s)" valType="str" updates="None"/>\u000a        <Param name="startVal" val=".5" valType="code" updates="None"/>\u000a        <Param name="store" val="first key" valType="str" updates="constant"/>\u000a      </KeyboardComponent>\u000a    </Routine>\u000a    <Routine name="instrMain">\u000a      <TextComponent name="instr2">\u000a        <Param name="opacity" val="1" valType="code" updates="constant"/>\u000a        <Param name="colorSpace" val="rgb" valType="str" updates="constant"/>\u000a        <Param name="name" val="instr2" valType="code" updates="constant"/>\u000a        <Param name="wrapWidth" val="" valType="code" updates="constant"/>\u000a        <Param name="color" val="white" valType="str" updates="constant"/>\u000a        <Param name="text" val="A shape stimulus will appear on every trial. &#10;&#10;If it appears in the upper right quadrant, PRESS Y&#10;&#10;If it appears in the lower right quadrant, PRESS H&#10;&#10;If it appears in the lower left quadrant, PRESS G&#10;&#10;If it appears in the upper left quadrant, PRESS T&#10;&#10;Press any key when you are ready to proceed. " valType="str" updates="constant"/>\u000a        <Param name="stopVal" val="" valType="code" updates="constant"/>\u000a        <Param name="durationEstim" val="" valType="code" updates="None"/>\u000a        <Param name="pos" val="[0, 0]" valType="code" updates="constant"/>\u000a        <Param name="flip" val="" valType="str" updates="constant"/>\u000a        <Param name="startEstim" val="" valType="code" updates="None"/>\u000a        <Param name="units" val="from exp settings" valType="str" updates="None"/>\u000a        <Param name="startType" val="time (s)" valType="str" updates="None"/>\u000a        <Param name="ori" val="0" valType="code" updates="constant"/>\u000a        <Param name="stopType" val="duration (s)" valType="str" updates="None"/>\u000a        <Param name="startVal" val="0.0" valType="code" updates="None"/>\u000a        <Param name="font" val="Arial" valType="str" updates="constant"/>\u000a        <Param name="letterHeight" val="0.075" valType="code" updates="constant"/>\u000a      </TextComponent>\u000a      <KeyboardComponent name="ok2">\u000a        <Param name="correctAns" val="" valType="str" updates="constant"/>\u000a        <Param name="storeCorrect" val="False" valType="bool" updates="constant"/>\u000a        <Param name="name" val="ok2" valType="code" updates="None"/>\u000a        <Param name="stopVal" val="" valType="code" updates="constant"/>\u000a        <Param name="durationEstim" val="" valType="code" updates="None"/>\u000a        <Param name="forceEndRoutine" val="True" valType="bool" updates="constant"/>\u000a        <Param name="startEstim" val="" valType="code" updates="None"/>\u000a        <Param name="discard previous" val="True" valType="bool" updates="constant"/>\u000a        <Param name="startType" val="time (s)" valType="str" updates="None"/>\u000a        <Param name="allowedKeys" val="" valType="code" updates="constant"/>\u000a        <Param name="stopType" val="duration (s)" valType="str" updates="None"/>\u000a        <Param name="startVal" val="0.0" valType="code" updates="None"/>\u000a        <Param name="store" val="nothing" valType="str" updates="constant"/>\u000a      </KeyboardComponent>\u000a    </Routine>\u000a    <Routine name="newStopStim">\u000a      <CodeComponent name="code_7">\u000a        <Param name="Begin Experiment" val="" valType="extendedCode" updates="constant"/>\u000a        <Param name="name" val="code_7" valType="code" updates="None"/>\u000a        <Param name="Begin Routine" val="currentStopTrial = stopTrialList.pop(0)&#10;currentGoStim = currentStopTrial['fileName']&#10;&#10;if xPosGoStim == -200:&#10;    SSD = SSDLeft + 500&#10;else:&#10;    SSD = SSDRight + 500" valType="extendedCode" updates="constant"/>\u000a        <Param name="End Routine" val="" valType="extendedCode" updates="constant"/>\u000a        <Param name="End Experiment" val="" valType="extendedCode" updates="constant"/>\u000a        <Param name="Each Frame" val="" valType="extendedCode" updates="constant"/>\u000a      </CodeComponent>\u000a    </Routine>\u000a    <Routine name="feedback">\u000a      <CodeComponent name="message">\u000a        <Param name="Begin Experiment" val="#message variable just needs some value at start&#10;message=0" valType="extendedCode" updates="constant"/>\u000a        <Param name="name" val="message" valType="code" updates="None"/>\u000a        <Param name="Begin Routine" val="import random&#10;&#10;displayReward = random.randrange(1, 6)&#10;&#10;if resp.corr:#stored on last run routine&#10;    if displayReward == 1:&#10;            message = &quot;You won $&quot; + str(0);&#10;    else: &#10;            currentReward = currentLearningTrial['reward']&#10;            message = &quot;You won $&quot; + str(currentReward + (random.randrange(-25, 26)*.01))&#10;elif resp.keys is None: #or len(key_resp.keys)&lt;1:&#10;#elif resp.rt == 0:&#10;    message =&quot;Too Slow&quot;&#10;else:&#10;  message=&quot;Wrong&quot;" valType="extendedCode" updates="constant"/>\u000a        <Param name="End Routine" val="" valType="extendedCode" updates="constant"/>\u000a        <Param name="End Experiment" val="" valType="extendedCode" updates="constant"/>\u000a        <Param name="Each Frame" val="" valType="extendedCode" updates="constant"/>\u000a      </CodeComponent>\u000a      <TextComponent name="feedback_2">\u000a        <Param name="opacity" val="1" valType="code" updates="constant"/>\u000a        <Param name="colorSpace" val="rgb" valType="str" updates="constant"/>\u000a        <Param name="name" val="feedback_2" valType="code" updates="constant"/>\u000a        <Param name="wrapWidth" val="" valType="code" updates="constant"/>\u000a        <Param name="color" val="$[1,1,1]" valType="str" updates="constant"/>\u000a        <Param name="text" val="$message" valType="str" updates="set every repeat"/>\u000a        <Param name="stopVal" val="1.0" valType="code" updates="constant"/>\u000a        <Param name="durationEstim" val="" valType="code" updates="None"/>\u000a        <Param name="pos" val="[0, 0]" valType="code" updates="constant"/>\u000a        <Param name="flip" val="" valType="str" updates="constant"/>\u000a        <Param name="startEstim" val="" valType="code" updates="None"/>\u000a        <Param name="units" val="from exp settings" valType="str" updates="None"/>\u000a        <Param name="startType" val="time (s)" valType="str" updates="None"/>\u000a        <Param name="ori" val="0" valType="code" updates="constant"/>\u000a        <Param name="stopType" val="duration (s)" valType="str" updates="None"/>\u000a        <Param name="startVal" val="0.0" valType="code" updates="None"/>\u000a        <Param name="font" val="Arial" valType="str" updates="constant"/>\u000a        <Param name="letterHeight" val=".2" valType="code" updates="constant"/>\u000a      </TextComponent>\u000a      <ImageComponent name="image">\u000a        <Param name="opacity" val="1" valType="code" updates="constant"/>\u000a        <Param name="flipVert" val="False" valType="bool" updates="constant"/>\u000a        <Param name="colorSpace" val="rgb" valType="str" updates="constant"/>\u000a        <Param name="name" val="image" valType="code" updates="None"/>\u000a        <Param name="color" val="$[1,1,1]" valType="str" updates="constant"/>\u000a        <Param name="stopVal" val="1.0" valType="code" updates="constant"/>\u000a        <Param name="durationEstim" val="" valType="code" updates="None"/>\u000a        <Param name="mask" val="None" valType="str" updates="constant"/>\u000a        <Param name="pos" val="$[xPos, yPos]" valType="code" updates="set every repeat"/>\u000a        <Param name="interpolate" val="linear" valType="str" updates="constant"/>\u000a        <Param name="startEstim" val="" valType="code" updates="None"/>\u000a        <Param name="units" val="pix" valType="str" updates="None"/>\u000a        <Param name="texture resolution" val="128" valType="code" updates="constant"/>\u000a        <Param name="startType" val="time (s)" valType="str" updates="None"/>\u000a        <Param name="ori" val="0" valType="code" updates="constant"/>\u000a        <Param name="stopType" val="duration (s)" valType="str" updates="None"/>\u000a        <Param name="startVal" val="0.0" valType="code" updates="None"/>\u000a        <Param name="flipHoriz" val="False" valType="bool" updates="constant"/>\u000a        <Param name="image" val="$currentStimulus" valType="str" updates="set every repeat"/>\u000a        <Param name="size" val="[151, 151]" valType="code" updates="constant"/>\u000a      </ImageComponent>\u000a    </Routine>\u000a  </Routines>\u000a  <Flow>\u000a    <Routine name="StimSetup"/>\u000a    <Routine name="instrPractice"/>\u000a    <LoopInitiator loopType="TrialHandler" name="Blocks">\u000a      <Param name="conditionsFile" val="" valType="str" updates="None"/>\u000a      <Param name="name" val="Blocks" valType="code" updates="None"/>\u000a      <Param name="isTrials" val="True" valType="bool" updates="None"/>\u000a      <Param name="random seed" val="" valType="code" updates="None"/>\u000a      <Param name="loopType" val="sequential" valType="str" updates="None"/>\u000a      <Param name="nReps" val="0" valType="code" updates="None"/>\u000a      <Param name="endPoints" val="[0, 1]" valType="num" updates="None"/>\u000a      <Param name="conditions" val="None" valType="str" updates="None"/>\u000a      <Param name="Selected rows" val="" valType="str" updates="None"/>\u000a    </LoopInitiator>\u000a    <Routine name="ResetAtBlock"/>\u000a    <LoopInitiator loopType="TrialHandler" name="trials">\u000a      <Param name="conditionsFile" val="TrialtypesLearning.xlsx" valType="str" updates="None"/>\u000a      <Param name="name" val="trials" valType="code" updates="None"/>\u000a      <Param name="isTrials" val="True" valType="bool" updates="None"/>\u000a      <Param name="random seed" val="" valType="code" updates="None"/>\u000a      <Param name="loopType" val="fullRandom" valType="str" updates="None"/>\u000a      <Param name="nReps" val="25" valType="num" updates="None"/>\u000a      <Param name="endPoints" val="[0, 1]" valType="num" updates="None"/>\u000a      <Param name="conditions" val="[{u'xPos': 200, u'corrAns': u'h', u'yPos': 200}, {u'xPos': -200, u'corrAns': u'g', u'yPos': 200}, {u'xPos': 200, u'corrAns': u'n', u'yPos': -200}, {u'xPos': -200, u'corrAns': u'b', u'yPos': -200}]" valType="str" updates="None"/>\u000a      <Param name="Selected rows" val="" valType="str" updates="None"/>\u000a    </LoopInitiator>\u000a    <Routine name="NewStim"/>\u000a    <LoopInitiator loopType="TrialHandler" name="ReDoLoopMain">\u000a      <Param name="conditionsFile" val="" valType="str" updates="None"/>\u000a      <Param name="name" val="ReDoLoopMain" valType="code" updates="None"/>\u000a      <Param name="isTrials" val="False" valType="bool" updates="None"/>\u000a      <Param name="random seed" val="" valType="code" updates="None"/>\u000a      <Param name="loopType" val="random" valType="str" updates="None"/>\u000a      <Param name="nReps" val="999" valType="code" updates="None"/>\u000a      <Param name="endPoints" val="[0, 1]" valType="num" updates="None"/>\u000a      <Param name="conditions" val="None" valType="str" updates="None"/>\u000a      <Param name="Selected rows" val="" valType="str" updates="None"/>\u000a    </LoopInitiator>\u000a    <Routine name="trial"/>\u000a    <Routine name="feedback"/>\u000a    <Routine name="Blank"/>\u000a    <Routine name="ExitMain"/>\u000a    <LoopTerminator name="ReDoLoopMain"/>\u000a    <LoopTerminator name="trials"/>\u000a    <LoopTerminator name="Blocks"/>\u000a    <Routine name="instrStopPrac"/>\u000a    <LoopInitiator loopType="TrialHandler" name="StopBlocks">\u000a      <Param name="conditionsFile" val="" valType="str" updates="None"/>\u000a      <Param name="name" val="StopBlocks" valType="code" updates="None"/>\u000a      <Param name="isTrials" val="True" valType="bool" updates="None"/>\u000a      <Param name="random seed" val="" valType="code" updates="None"/>\u000a      <Param name="loopType" val="sequential" valType="str" updates="None"/>\u000a      <Param name="nReps" val="4" valType="code" updates="None"/>\u000a      <Param name="endPoints" val="[0, 1]" valType="num" updates="None"/>\u000a      <Param name="conditions" val="None" valType="str" updates="None"/>\u000a      <Param name="Selected rows" val="" valType="str" updates="None"/>\u000a    </LoopInitiator>\u000a    <Routine name="stopBlockSetup"/>\u000a    <LoopInitiator loopType="TrialHandler" name="StopTrials">\u000a      <Param name="conditionsFile" val="trialtypeStop.xlsx" valType="str" updates="None"/>\u000a      <Param name="name" val="StopTrials" valType="code" updates="None"/>\u000a      <Param name="isTrials" val="True" valType="bool" updates="None"/>\u000a      <Param name="random seed" val="" valType="code" updates="None"/>\u000a      <Param name="loopType" val="fullRandom" valType="str" updates="None"/>\u000a      <Param name="nReps" val="34" valType="code" updates="None"/>\u000a      <Param name="endPoints" val="[0, 1]" valType="num" updates="None"/>\u000a      <Param name="conditions" val="[{u'corrGoResp': u'z', u'yPosGoStim': 0, u'xPosGoStim': -200}, {u'corrGoResp': u'm', u'yPosGoStim': 0, u'xPosGoStim': 200}]" valType="str" updates="None"/>\u000a      <Param name="Selected rows" val="" valType="str" updates="None"/>\u000a    </LoopInitiator>\u000a    <Routine name="newStopStim"/>\u000a    <Routine name="StopTrial"/>\u000a    <Routine name="blankStop"/>\u000a    <Routine name="SSDChange"/>\u000a    <LoopTerminator name="StopTrials"/>\u000a    <Routine name="endOfStopBlockFeedback"/>\u000a    <LoopTerminator name="StopBlocks"/>\u000a    <Routine name="End"/>\u000a  </Flow>\u000a</PsychoPy2experiment>\u000a
p784
sg43
(lp785
sg44
I313991632
sg11
S'Blocks'
p786
sg6
g7
sg46
I0
sg20
I01
sg21
g22
sg47
g1
(g48
g49
(dp787
g51
g52
(g53
g54
g55
S'b'
tRp788
(I1
(I1
I0
tg57
I00
S''
S''
Ntbsg58
g52
(g53
g54
g55
S'b'
tRp789
(I1
(I1
I0
tg57
I00
S''
S''
NtbstRp790
(dp791
g62
(dp792
g51
I01
sg58
I01
ssg64
g782
sg65
(lp793
g51
ag58
asg67
(lp794
I1
aI0
asbsg69
g70
sg71
g72
(g54
(I0
tS'b'
tRp795
(I1
(I1
I0
tg74
I00
S''
tbsg75
I01
sg76
I0
sg77
I-1
sg78
(lp796
Nasg80
Nsg81
I0
sg83
I0
sg84
I0
sg85
I0
sg86
I01
sbag39
ag1
(g38
g3
NtRp797
(dp798
g41
V<PsychoPy2experiment version="1.82.01" encoding="utf-8">\u000a  <Settings>\u000a    <Param name="Show mouse" val="False" valType="bool" updates="None"/>\u000a    <Param name="Data filename" val="u'data' + os.sep + '%s_%s' %(expInfo['participant'], expInfo['date'])" valType="code" updates="None"/>\u000a    <Param name="Monitor" val="testMonitor" valType="str" updates="None"/>\u000a    <Param name="Enable Escape" val="True" valType="bool" updates="None"/>\u000a    <Param name="color" val="black" valType="str" updates="None"/>\u000a    <Param name="Window size (pixels)" val="[1680, 1050]" valType="code" updates="None"/>\u000a    <Param name="Full-screen window" val="True" valType="bool" updates="None"/>\u000a    <Param name="colorSpace" val="rgb" valType="str" updates="None"/>\u000a    <Param name="Experiment info" val="{'participant':'', 'gender (m/f)':'', 'age':'', 'session':03}" valType="code" updates="None"/>\u000a    <Param name="Save csv file" val="False" valType="bool" updates="None"/>\u000a    <Param name="Show info dlg" val="True" valType="bool" updates="None"/>\u000a    <Param name="Save wide csv file" val="True" valType="bool" updates="None"/>\u000a    <Param name="Save psydat file" val="True" valType="bool" updates="None"/>\u000a    <Param name="expName" val="LearningTask" valType="str" updates="None"/>\u000a    <Param name="logging level" val="warning" valType="code" updates="None"/>\u000a    <Param name="blendMode" val="avg" valType="str" updates="None"/>\u000a    <Param name="Save excel file" val="True" valType="bool" updates="None"/>\u000a    <Param name="Units" val="use prefs" valType="str" updates="None"/>\u000a    <Param name="Save log file" val="True" valType="bool" updates="None"/>\u000a    <Param name="Screen" val="1" valType="num" updates="None"/>\u000a  </Settings>\u000a  <Routines>\u000a    <Routine name="stopBlockSetup">\u000a      <CodeComponent name="code_9">\u000a        <Param name="Begin Experiment" val="goCumRT = 0&#10;goRTCount = 0&#10;omissionCount = 0&#10;commissionCount = 0&#10;stopTrialCount = 0&#10;stopSuccessCount = 0&#10;goTrialCount = 0" valType="extendedCode" updates="constant"/>\u000a        <Param name="name" val="code_9" valType="code" updates="None"/>\u000a        <Param name="Begin Routine" val="" valType="extendedCode" updates="constant"/>\u000a        <Param name="End Routine" val="" valType="extendedCode" updates="constant"/>\u000a        <Param name="End Experiment" val="" valType="extendedCode" updates="constant"/>\u000a        <Param name="Each Frame" val="" valType="extendedCode" updates="constant"/>\u000a      </CodeComponent>\u000a    </Routine>\u000a    <Routine name="blankStop">\u000a      <TextComponent name="text_4">\u000a        <Param name="opacity" val="1" valType="code" updates="constant"/>\u000a        <Param name="colorSpace" val="rgb" valType="str" updates="constant"/>\u000a        <Param name="name" val="text_4" valType="code" updates="None"/>\u000a        <Param name="wrapWidth" val="" valType="code" updates="constant"/>\u000a        <Param name="color" val="white" valType="str" updates="constant"/>\u000a        <Param name="text" val="THIS IS THE BLANK SCREEN" valType="str" updates="constant"/>\u000a        <Param name="stopVal" val="1.5" valType="code" updates="constant"/>\u000a        <Param name="durationEstim" val="" valType="code" updates="None"/>\u000a        <Param name="pos" val="[0, 0]" valType="code" updates="constant"/>\u000a        <Param name="flip" val="" valType="str" updates="constant"/>\u000a        <Param name="startEstim" val="" valType="code" updates="None"/>\u000a        <Param name="units" val="from exp settings" valType="str" updates="None"/>\u000a        <Param name="startType" val="time (s)" valType="str" updates="None"/>\u000a        <Param name="ori" val="0" valType="code" updates="constant"/>\u000a        <Param name="stopType" val="duration (s)" valType="str" updates="None"/>\u000a        <Param name="startVal" val="0.0" valType="code" updates="None"/>\u000a        <Param name="font" val="Arial" valType="str" updates="constant"/>\u000a        <Param name="letterHeight" val="0.1" valType="code" updates="constant"/>\u000a      </TextComponent>\u000a    </Routine>\u000a    <Routine name="End">\u000a      <TextComponent name="text_6">\u000a        <Param name="opacity" val="1" valType="code" updates="constant"/>\u000a        <Param name="colorSpace" val="rgb" valType="str" updates="constant"/>\u000a        <Param name="name" val="text_6" valType="code" updates="None"/>\u000a        <Param name="wrapWidth" val="" valType="code" updates="constant"/>\u000a        <Param name="color" val="white" valType="str" updates="constant"/>\u000a        <Param name="text" val="Bye" valType="str" updates="constant"/>\u000a        <Param name="stopVal" val="1.0" valType="code" updates="constant"/>\u000a        <Param name="durationEstim" val="" valType="code" updates="None"/>\u000a        <Param name="pos" val="[0, 0]" valType="code" updates="constant"/>\u000a        <Param name="flip" val="" valType="str" updates="constant"/>\u000a        <Param name="startEstim" val="" valType="code" updates="None"/>\u000a        <Param name="units" val="from exp settings" valType="str" updates="None"/>\u000a        <Param name="startType" val="time (s)" valType="str" updates="None"/>\u000a        <Param name="ori" val="0" valType="code" updates="constant"/>\u000a        <Param name="stopType" val="duration (s)" valType="str" updates="None"/>\u000a        <Param name="startVal" val="0.0" valType="code" updates="None"/>\u000a        <Param name="font" val="Arial" valType="str" updates="constant"/>\u000a        <Param name="letterHeight" val="0.1" valType="code" updates="constant"/>\u000a      </TextComponent>\u000a    </Routine>\u000a    <Routine name="instrStopPrac">\u000a      <TextComponent name="instrStopText">\u000a        <Param name="opacity" val="1" valType="code" updates="constant"/>\u000a        <Param name="colorSpace" val="rgb" valType="str" updates="constant"/>\u000a        <Param name="name" val="instrStopText" valType="code" updates="None"/>\u000a        <Param name="wrapWidth" val="" valType="code" updates="constant"/>\u000a        <Param name="color" val="white" valType="str" updates="constant"/>\u000a        <Param name="text" val="A shape stimulus will appear on the left or right side of the screen&#10;&#10;If it appears on the left, press Z&#10;&#10;If it appears on the right, press M&#10;&#10;If you hear a tone, do not press anything on that trial" valType="str" updates="constant"/>\u000a        <Param name="stopVal" val="" valType="code" updates="constant"/>\u000a        <Param name="durationEstim" val="" valType="code" updates="None"/>\u000a        <Param name="pos" val="[0, 0]" valType="code" updates="constant"/>\u000a        <Param name="flip" val="" valType="str" updates="constant"/>\u000a        <Param name="startEstim" val="" valType="code" updates="None"/>\u000a        <Param name="units" val="from exp settings" valType="str" updates="None"/>\u000a        <Param name="startType" val="time (s)" valType="str" updates="None"/>\u000a        <Param name="ori" val="0" valType="code" updates="constant"/>\u000a        <Param name="stopType" val="duration (s)" valType="str" updates="None"/>\u000a        <Param name="startVal" val="0.0" valType="code" updates="None"/>\u000a        <Param name="font" val="Arial" valType="str" updates="constant"/>\u000a        <Param name="letterHeight" val="0.1" valType="code" updates="constant"/>\u000a      </TextComponent>\u000a      <KeyboardComponent name="key_resp_2">\u000a        <Param name="correctAns" val="" valType="str" updates="constant"/>\u000a        <Param name="storeCorrect" val="False" valType="bool" updates="constant"/>\u000a        <Param name="name" val="key_resp_2" valType="code" updates="None"/>\u000a        <Param name="stopVal" val="" valType="code" updates="constant"/>\u000a        <Param name="durationEstim" val="" valType="code" updates="None"/>\u000a        <Param name="forceEndRoutine" val="True" valType="bool" updates="constant"/>\u000a        <Param name="startEstim" val="" valType="code" updates="None"/>\u000a        <Param name="discard previous" val="True" valType="bool" updates="constant"/>\u000a        <Param name="startType" val="time (s)" valType="str" updates="None"/>\u000a        <Param name="allowedKeys" val="" valType="code" updates="constant"/>\u000a        <Param name="stopType" val="duration (s)" valType="str" updates="None"/>\u000a        <Param name="startVal" val="0.0" valType="code" updates="None"/>\u000a        <Param name="store" val="nothing" valType="str" updates="constant"/>\u000a      </KeyboardComponent>\u000a      <CodeComponent name="code_8">\u000a        <Param name="Begin Experiment" val="" valType="extendedCode" updates="constant"/>\u000a        <Param name="name" val="code_8" valType="code" updates="None"/>\u000a        <Param name="Begin Routine" val="InitSSD = 250&#10;SSDLeft = InitSSD&#10;SSDRight = InitSSD" valType="extendedCode" updates="constant"/>\u000a        <Param name="End Routine" val="" valType="extendedCode" updates="constant"/>\u000a        <Param name="End Experiment" val="" valType="extendedCode" updates="constant"/>\u000a        <Param name="Each Frame" val="" valType="extendedCode" updates="constant"/>\u000a      </CodeComponent>\u000a    </Routine>\u000a    <Routine name="ExitMain">\u000a      <CodeComponent name="code_6">\u000a        <Param name="Begin Experiment" val="" valType="extendedCode" updates="constant"/>\u000a        <Param name="name" val="code_6" valType="code" updates="None"/>\u000a        <Param name="Begin Routine" val="" valType="extendedCode" updates="constant"/>\u000a        <Param name="End Routine" val="if resp.corr:&#10;    ReDoLoopMain.finished = True" valType="extendedCode" updates="constant"/>\u000a        <Param name="End Experiment" val="" valType="extendedCode" updates="constant"/>\u000a        <Param name="Each Frame" val="" valType="extendedCode" updates="constant"/>\u000a      </CodeComponent>\u000a    </Routine>\u000a    <Routine name="endOfStopBlockFeedback">\u000a      <CodeComponent name="code_10">\u000a        <Param name="Begin Experiment" val="" valType="extendedCode" updates="constant"/>\u000a        <Param name="name" val="code_10" valType="code" updates="None"/>\u000a        <Param name="Begin Routine" val="goRTFeedback = str(goCumRT/goRTCount)&#10;commissionRate = str(commissionCount/goTrialCount)&#10;omissionRate = str(omissionCount/goTrialCount)&#10;probabilityOfStop = str(stopSuccessCount/stopTrialCount)&#10;SSDFeedback = str(numpy.mean(SSDLeft, SSDRight))" valType="extendedCode" updates="constant"/>\u000a        <Param name="End Routine" val="" valType="extendedCode" updates="constant"/>\u000a        <Param name="End Experiment" val="" valType="extendedCode" updates="constant"/>\u000a        <Param name="Each Frame" val="" valType="extendedCode" updates="constant"/>\u000a      </CodeComponent>\u000a      <TextComponent name="text_5">\u000a        <Param name="opacity" val="1" valType="code" updates="constant"/>\u000a        <Param name="colorSpace" val="rgb" valType="str" updates="constant"/>\u000a        <Param name="name" val="text_5" valType="code" updates="None"/>\u000a        <Param name="wrapWidth" val="" valType="code" updates="constant"/>\u000a        <Param name="color" val="white" valType="str" updates="constant"/>\u000a        <Param name="text" val="blah" valType="str" updates="constant"/>\u000a        <Param name="stopVal" val="" valType="code" updates="constant"/>\u000a        <Param name="durationEstim" val="" valType="code" updates="None"/>\u000a        <Param name="pos" val="[0, 0]" valType="code" updates="constant"/>\u000a        <Param name="flip" val="" valType="str" updates="constant"/>\u000a        <Param name="startEstim" val="" valType="code" updates="None"/>\u000a        <Param name="units" val="from exp settings" valType="str" updates="None"/>\u000a        <Param name="startType" val="time (s)" valType="str" updates="None"/>\u000a        <Param name="ori" val="0" valType="code" updates="constant"/>\u000a        <Param name="stopType" val="duration (s)" valType="str" updates="None"/>\u000a        <Param name="startVal" val="0.0" valType="code" updates="None"/>\u000a        <Param name="font" val="Arial" valType="str" updates="constant"/>\u000a        <Param name="letterHeight" val="0.1" valType="code" updates="constant"/>\u000a      </TextComponent>\u000a      <KeyboardComponent name="key_resp_3">\u000a        <Param name="correctAns" val="" valType="str" updates="constant"/>\u000a        <Param name="storeCorrect" val="False" valType="bool" updates="constant"/>\u000a        <Param name="name" val="key_resp_3" valType="code" updates="None"/>\u000a        <Param name="stopVal" val="" valType="code" updates="constant"/>\u000a        <Param name="durationEstim" val="" valType="code" updates="None"/>\u000a        <Param name="forceEndRoutine" val="True" valType="bool" updates="constant"/>\u000a        <Param name="startEstim" val="" valType="code" updates="None"/>\u000a        <Param name="discard previous" val="True" valType="bool" updates="constant"/>\u000a        <Param name="startType" val="time (s)" valType="str" updates="None"/>\u000a        <Param name="allowedKeys" val="'y','n','left','right','space'" valType="code" updates="set every repeat"/>\u000a        <Param name="stopType" val="duration (s)" valType="str" updates="None"/>\u000a        <Param name="startVal" val="0.0" valType="code" updates="None"/>\u000a        <Param name="store" val="last key" valType="str" updates="constant"/>\u000a      </KeyboardComponent>\u000a    </Routine>\u000a    <Routine name="NewStim">\u000a      <CodeComponent name="code_4">\u000a        <Param name="Begin Experiment" val="" valType="extendedCode" updates="constant"/>\u000a        <Param name="name" val="code_4" valType="code" updates="None"/>\u000a        <Param name="Begin Routine" val="currentLearningTrial = learningTrialList.pop(0)&#10;currentStimulus = currentLearningTrial['fileName']&#10;" valType="extendedCode" updates="constant"/>\u000a        <Param name="End Routine" val="" valType="extendedCode" updates="constant"/>\u000a        <Param name="End Experiment" val="" valType="extendedCode" updates="constant"/>\u000a        <Param name="Each Frame" val="" valType="extendedCode" updates="constant"/>\u000a      </CodeComponent>\u000a    </Routine>\u000a    <Routine name="SSDChange">\u000a      <CodeComponent name="code_2">\u000a        <Param name="Begin Experiment" val="" valType="extendedCode" updates="constant"/>\u000a        <Param name="name" val="code_2" valType="code" updates="None"/>\u000a        <Param name="Begin Routine" val="if goResp.keys is None:&#10;    if xPosGoStim == -200:&#10;        SSDLeft = SSDLeft  + 50&#10;    if xPosGoStim == 200:&#10;        SSDRight = SSDRight + 50&#10;else:&#10;    if xPosGoStim == -200:&#10;        SSDLeft = SSDLeft - 50&#10;    if xPosGoStim == 200:&#10;        SSDRight = SSDRight - 50&#10;&#10;if currentStopTrial['stopOrGo'] == 'go':&#10;    goTrialCount = goTrialCount + 1&#10;&#10;if goResp.corr and currentStopTrial['stopOrGo'] == 'go':&#10;    goCumRT = goCumRT + goResp.RT&#10;    goRTCount = goRTCount + 1&#10;&#10;if currentStopTrial['stopOrGo'] == 'stop':&#10;    stopTrialCount = stopTrialCount + 1&#10;&#10;if currentStopTrial['stopOrGo'] == 'stop' and goResp.keys is None:&#10;    stopSuccessCount = stopSuccessCount + 1&#10;&#10;if goResp.keys is None and currentStopTrial['stopOrGo'] == 'go':&#10;    omissionCount = 0&#10;&#10;if goResp != corrGoResp:&#10;    commissionCount = commissionCount + 1" valType="extendedCode" updates="constant"/>\u000a        <Param name="End Routine" val="" valType="extendedCode" updates="constant"/>\u000a        <Param name="End Experiment" val="" valType="extendedCode" updates="constant"/>\u000a        <Param name="Each Frame" val="" valType="extendedCode" updates="constant"/>\u000a      </CodeComponent>\u000a    </Routine>\u000a    <Routine name="instrPractice">\u000a      <TextComponent name="instruct1">\u000a        <Param name="opacity" val="1" valType="code" updates="constant"/>\u000a        <Param name="colorSpace" val="rgb" valType="str" updates="constant"/>\u000a        <Param name="name" val="instruct1" valType="code" updates="constant"/>\u000a        <Param name="wrapWidth" val="" valType="code" updates="constant"/>\u000a        <Param name="color" val="white" valType="str" updates="constant"/>\u000a        <Param name="text" val="A shape stimulus will appear on every trial. &#10;&#10;If it appears in the upper right quadrant, PRESS I&#10;&#10;If it appears in the lower right quadrant, PRESS K&#10;&#10;If it appears in the lower left quadrant, PRESS J&#10;&#10;If it appears in the upper left quadrant, PRESS U&#10;&#10;Press any key when you are ready to proceed. " valType="str" updates="constant"/>\u000a        <Param name="stopVal" val="" valType="code" updates="constant"/>\u000a        <Param name="durationEstim" val="" valType="code" updates="None"/>\u000a        <Param name="pos" val="[0, 0]" valType="code" updates="constant"/>\u000a        <Param name="flip" val="" valType="str" updates="constant"/>\u000a        <Param name="startEstim" val="" valType="code" updates="None"/>\u000a        <Param name="units" val="from exp settings" valType="str" updates="None"/>\u000a        <Param name="startType" val="time (s)" valType="str" updates="None"/>\u000a        <Param name="ori" val="0" valType="code" updates="constant"/>\u000a        <Param name="stopType" val="duration (s)" valType="str" updates="None"/>\u000a        <Param name="startVal" val="0.0" valType="code" updates="None"/>\u000a        <Param name="font" val="Arial" valType="str" updates="constant"/>\u000a        <Param name="letterHeight" val="0.07" valType="code" updates="constant"/>\u000a      </TextComponent>\u000a      <KeyboardComponent name="ok1">\u000a        <Param name="correctAns" val="" valType="str" updates="constant"/>\u000a        <Param name="storeCorrect" val="False" valType="bool" updates="constant"/>\u000a        <Param name="name" val="ok1" valType="code" updates="None"/>\u000a        <Param name="stopVal" val="" valType="code" updates="constant"/>\u000a        <Param name="durationEstim" val="" valType="code" updates="None"/>\u000a        <Param name="forceEndRoutine" val="True" valType="bool" updates="constant"/>\u000a        <Param name="startEstim" val="" valType="code" updates="None"/>\u000a        <Param name="discard previous" val="True" valType="bool" updates="constant"/>\u000a        <Param name="startType" val="time (s)" valType="str" updates="None"/>\u000a        <Param name="allowedKeys" val="" valType="code" updates="constant"/>\u000a        <Param name="stopType" val="duration (s)" valType="str" updates="None"/>\u000a        <Param name="startVal" val="0.0" valType="code" updates="None"/>\u000a        <Param name="store" val="last key" valType="str" updates="constant"/>\u000a      </KeyboardComponent>\u000a    </Routine>\u000a    <Routine name="ExitPrac">\u000a      <CodeComponent name="code_5">\u000a        <Param name="Begin Experiment" val="" valType="extendedCode" updates="constant"/>\u000a        <Param name="name" val="code_5" valType="code" updates="None"/>\u000a        <Param name="Begin Routine" val="" valType="extendedCode" updates="constant"/>\u000a        <Param name="End Routine" val="if resp.corr:&#10;    ReDoLoop.finished = True " valType="extendedCode" updates="constant"/>\u000a        <Param name="End Experiment" val="" valType="extendedCode" updates="constant"/>\u000a        <Param name="Each Frame" val="" valType="extendedCode" updates="constant"/>\u000a      </CodeComponent>\u000a    </Routine>\u000a    <Routine name="trial">\u000a      <KeyboardComponent name="resp">\u000a        <Param name="correctAns" val="$corrAns" valType="str" updates="constant"/>\u000a        <Param name="storeCorrect" val="True" valType="bool" updates="constant"/>\u000a        <Param name="name" val="resp" valType="code" updates="None"/>\u000a        <Param name="stopVal" val="1" valType="code" updates="constant"/>\u000a        <Param name="durationEstim" val="" valType="code" updates="None"/>\u000a        <Param name="forceEndRoutine" val="True" valType="bool" updates="constant"/>\u000a        <Param name="startEstim" val="" valType="code" updates="None"/>\u000a        <Param name="discard previous" val="True" valType="bool" updates="constant"/>\u000a        <Param name="startType" val="time (s)" valType="str" updates="None"/>\u000a        <Param name="allowedKeys" val="'u', 'i', 'j', 'k'" valType="code" updates="constant"/>\u000a        <Param name="stopType" val="duration (s)" valType="str" updates="None"/>\u000a        <Param name="startVal" val=".5" valType="code" updates="None"/>\u000a        <Param name="store" val="last key" valType="str" updates="constant"/>\u000a      </KeyboardComponent>\u000a      <TextComponent name="text">\u000a        <Param name="opacity" val="1" valType="code" updates="constant"/>\u000a        <Param name="colorSpace" val="rgb" valType="str" updates="constant"/>\u000a        <Param name="name" val="text" valType="code" updates="None"/>\u000a        <Param name="wrapWidth" val="" valType="code" updates="constant"/>\u000a        <Param name="color" val="white" valType="str" updates="constant"/>\u000a        <Param name="text" val="+" valType="str" updates="constant"/>\u000a        <Param name="stopVal" val="1.5" valType="code" updates="constant"/>\u000a        <Param name="durationEstim" val="" valType="code" updates="None"/>\u000a        <Param name="pos" val="[0, 0]" valType="code" updates="constant"/>\u000a        <Param name="flip" val="" valType="str" updates="constant"/>\u000a        <Param name="startEstim" val="" valType="code" updates="None"/>\u000a        <Param name="units" val="from exp settings" valType="str" updates="None"/>\u000a        <Param name="startType" val="time (s)" valType="str" updates="None"/>\u000a        <Param name="ori" val="0" valType="code" updates="constant"/>\u000a        <Param name="stopType" val="duration (s)" valType="str" updates="None"/>\u000a        <Param name="startVal" val="0.0" valType="code" updates="None"/>\u000a        <Param name="font" val="Arial" valType="str" updates="constant"/>\u000a        <Param name="letterHeight" val="1" valType="code" updates="constant"/>\u000a      </TextComponent>\u000a      <ImageComponent name="image_2">\u000a        <Param name="opacity" val="1" valType="code" updates="constant"/>\u000a        <Param name="flipVert" val="False" valType="bool" updates="constant"/>\u000a        <Param name="colorSpace" val="rgb" valType="str" updates="constant"/>\u000a        <Param name="name" val="image_2" valType="code" updates="None"/>\u000a        <Param name="color" val="$[1,1,1]" valType="str" updates="constant"/>\u000a        <Param name="stopVal" val="1.0" valType="code" updates="constant"/>\u000a        <Param name="durationEstim" val="" valType="code" updates="None"/>\u000a        <Param name="mask" val="None" valType="str" updates="constant"/>\u000a        <Param name="pos" val="$[xPos, yPos]" valType="code" updates="set every repeat"/>\u000a        <Param name="interpolate" val="linear" valType="str" updates="constant"/>\u000a        <Param name="startEstim" val="" valType="code" updates="None"/>\u000a        <Param name="units" val="pix" valType="str" updates="None"/>\u000a        <Param name="texture resolution" val="128" valType="code" updates="constant"/>\u000a        <Param name="startType" val="time (s)" valType="str" updates="None"/>\u000a        <Param name="ori" val="0" valType="code" updates="constant"/>\u000a        <Param name="stopType" val="duration (s)" valType="str" updates="None"/>\u000a        <Param name="startVal" val=".5" valType="code" updates="None"/>\u000a        <Param name="flipHoriz" val="False" valType="bool" updates="constant"/>\u000a        <Param name="image" val="$currentStimulus" valType="str" updates="set every repeat"/>\u000a        <Param name="size" val="[151, 151]" valType="code" updates="constant"/>\u000a      </ImageComponent>\u000a    </Routine>\u000a    <Routine name="StimSetup">\u000a      <CodeComponent name="code">\u000a        <Param name="Begin Experiment" val="from copy import deepcopy&#10;colors = ['yellow', 'white', 'orange', 'magenta', 'green', 'gray', 'cyan', 'blue']&#10;shapes = ['triangle', 'square', 'line', 'invertedtriangle', 'hexagon', 'diamond', 'cross', 'circle']&#10;rewards = [0.50, 1.00, 2.00, 4.00] * 2&#10;conditions = ['go', 'go', 'go', 'go', 'stop', 'stop', 'stop', 'stop']&#10;trialDetailsList = []&#10;learningTrialList = []&#10;&#10;shuffle(colors)&#10;shuffle(shapes)&#10;&#10;for i, color in enumerate(colors): # cycle through each color and keep track of an index number&#10;    trialDetails = {} # a dictionary of key-value pairs&#10;    trialDetails['fileName'] = shapes[i] + color + '.gif'&#10;    trialDetails['reward'] = rewards[i]&#10;    trialDetails['condition'] = conditions[i]&#10;    trialDetailsList.append(trialDetails)&#10;&#10;shuffle(trialDetailsList) # do this now to ensure that order of presentation of rewards and conditions is also shuffled&#10;&#10;conditionOne = trialDetailsList[0]&#10;conditionTwo = trialDetailsList[1]&#10;conditionThree = trialDetailsList[2]&#10;conditionFour = trialDetailsList[3]&#10;conditionFive = trialDetailsList[4]&#10;conditionSix = trialDetailsList[5]&#10;conditionSeven = trialDetailsList[6]&#10;conditionEight = trialDetailsList[7]&#10;&#10;numLearningTrials = 400&#10;numLearningRepetitions = 50&#10;for k in range(1, numLearningRepetitions + 1):&#10;    learningTrialList.append(conditionOne)&#10;    learningTrialList.append(conditionTwo)&#10;    learningTrialList.append(conditionThree)&#10;    learningTrialList.append(conditionFour)&#10;    learningTrialList.append(conditionFive)&#10;    learningTrialList.append(conditionSix)&#10;    learningTrialList.append(conditionSeven)&#10;    learningTrialList.append(conditionEight)&#10;&#10;shuffle(learningTrialList)&#10;&#10;stopTaskTrials = 272&#10;stopTrialsPerStopStim = 26&#10;goTrialsPerStopStim = 8&#10;goTrialsPerGoStim = 34&#10;numStim = 8&#10;stopTrialList = []&#10;&#10;if conditionOne['condition'] == 'go':&#10;    conditionOne['stopOrGo'] = 'go'&#10;    for i in range(1, goTrialsPerGoStim + 1):&#10;        stopTrialList.append(conditionOne)&#10;else:&#10;    for j in range(1, goTrialsPerStopStim + 1):&#10;        conditionOne['stopOrGo'] = 'go'&#10;        stopTrialList.append(deepcopy(conditionOne))&#10;    for i in range(1, stopTrialsPerStopStim + 1):&#10;        conditionOne['stopOrGo'] = 'stop'&#10;        stopTrialList.append(deepcopy(conditionOne))&#10;if conditionTwo['condition'] == 'go':&#10;    conditionTwo['stopOrGo'] = 'go'&#10;    for i in range(1, goTrialsPerGoStim + 1):&#10;        stopTrialList.append(conditionTwo)&#10;else:&#10;    for j in range(1, goTrialsPerStopStim + 1):&#10;        conditionTwo['stopOrGo'] = 'go'&#10;        stopTrialList.append(deepcopy(conditionTwo))&#10;    for i in range(1,  stopTrialsPerStopStim + 1):&#10;        conditionTwo['stopOrGo'] = 'stop'&#10;        stopTrialList.append(deepcopy(conditionTwo))&#10;if conditionThree['condition'] == 'go':&#10;    conditionThree['stopOrGo'] = 'go'&#10;    for i in range(1, goTrialsPerGoStim + 1):&#10;        stopTrialList.append(conditionThree)&#10;else:&#10;    for j in range(1, goTrialsPerStopStim + 1):&#10;        conditionThree['stopOrGo'] = 'go'&#10;        stopTrialList.append(deepcopy(conditionThree))&#10;    for i in range(1, stopTrialsPerStopStim + 1):&#10;        conditionThree['stopOrGo'] = 'stop'&#10;        stopTrialList.append(deepcopy(conditionThree))&#10;if conditionFour['condition'] == 'go':&#10;    conditionFour['stopOrGo'] = 'go'&#10;    for i in range(1, goTrialsPerGoStim + 1):&#10;        stopTrialList.append(conditionFour)&#10;else:&#10;    for j in range(1, goTrialsPerStopStim + 1):&#10;        conditionFour['stopOrGo'] = 'go'&#10;        stopTrialList.append(deepcopy(conditionFour))&#10;    for i in range(1, stopTrialsPerStopStim + 1):&#10;        conditionFour['stopOrGo'] = 'stop'&#10;        stopTrialList.append(deepcopy(conditionFour))&#10;if conditionFive['condition'] == 'go':&#10;    conditionFive['stopOrGo'] = 'go'&#10;    for i in range(1, goTrialsPerGoStim + 1):&#10;        stopTrialList.append(conditionFive)&#10;else:&#10;    for j in range(1, goTrialsPerStopStim + 1):&#10;        conditionFive['stopOrGo'] = 'go'&#10;        stopTrialList.append(deepcopy(conditionFive))&#10;    for i in range(1, stopTrialsPerStopStim + 1):&#10;        conditionFive['stopOrGo'] = 'stop'&#10;        stopTrialList.append(deepcopy(conditionFive))&#10;if conditionSix['condition'] == 'go':&#10;    conditionSix['stopOrGo'] = 'go'&#10;    for i in range(1, goTrialsPerGoStim + 1):&#10;        stopTrialList.append(conditionSix)&#10;else:&#10;    for j in range(1, stopTrialsPerStopStim + 1):&#10;        conditionSix['stopOrGo'] = 'go'&#10;        stopTrialList.append(deepcopy(conditionSix))&#10;    for i in range(1, goTrialsPerStopStim + 1):&#10;        conditionSix['stopOrGo'] = 'stop'&#10;        stopTrialList.append(deepcopy(conditionSix))&#10;if conditionSeven['condition'] == 'go':&#10;    conditionSeven['stopOrGo'] = 'go'&#10;    for i in range(1, goTrialsPerGoStim + 1):&#10;        stopTrialList.append(conditionSeven)&#10;else:&#10;    for j in range(1, goTrialsPerStopStim + 1):&#10;        conditionSeven['stopOrGo'] = 'go'&#10;        stopTrialList.append(deepcopy(conditionSeven))&#10;    for i in range(1, stopTrialsPerStopStim + 1):&#10;        conditionSeven['stopOrGo'] = 'stop'&#10;        stopTrialList.append(deepcopy(conditionSeven))&#10;if conditionEight['condition'] == 'go':&#10;    conditionEight['stopOrGo'] = 'go'&#10;    for i in range(1, goTrialsPerGoStim + 1):&#10;        stopTrialList.append(conditionEight)&#10;else:&#10;    for j in range(1, goTrialsPerStopStim + 1):&#10;        conditionEight['stopOrGo'] = 'go'&#10;        stopTrialList.append(deepcopy(conditionEight))&#10;    for i in range(1, stopTrialsPerStopStim + 1):&#10;        conditionEight['stopOrGo'] = 'stop'&#10;        stopTrialList.append(deepcopy(conditionEight))&#10;&#10;shuffle(stopTrialList)" valType="extendedCode" updates="constant"/>\u000a        <Param name="name" val="code" valType="code" updates="None"/>\u000a        <Param name="Begin Routine" val="" valType="extendedCode" updates="constant"/>\u000a        <Param name="End Routine" val="" valType="extendedCode" updates="constant"/>\u000a        <Param name="End Experiment" val="" valType="extendedCode" updates="constant"/>\u000a        <Param name="Each Frame" val="" valType="extendedCode" updates="constant"/>\u000a      </CodeComponent>\u000a    </Routine>\u000a    <Routine name="Bank"/>\u000a    <Routine name="Blank">\u000a      <TextComponent name="text_2">\u000a        <Param name="opacity" val="1" valType="code" updates="constant"/>\u000a        <Param name="colorSpace" val="rgb" valType="str" updates="constant"/>\u000a        <Param name="name" val="text_2" valType="code" updates="None"/>\u000a        <Param name="wrapWidth" val="" valType="code" updates="constant"/>\u000a        <Param name="color" val="white" valType="str" updates="constant"/>\u000a        <Param name="text" val="" valType="str" updates="constant"/>\u000a        <Param name="stopVal" val=".5" valType="code" updates="constant"/>\u000a        <Param name="durationEstim" val="" valType="code" updates="None"/>\u000a        <Param name="pos" val="[0, 0]" valType="code" updates="constant"/>\u000a        <Param name="flip" val="" valType="str" updates="constant"/>\u000a        <Param name="startEstim" val="" valType="code" updates="None"/>\u000a        <Param name="units" val="from exp settings" valType="str" updates="None"/>\u000a        <Param name="startType" val="time (s)" valType="str" updates="None"/>\u000a        <Param name="ori" val="0" valType="code" updates="constant"/>\u000a        <Param name="stopType" val="duration (s)" valType="str" updates="None"/>\u000a        <Param name="startVal" val="0" valType="code" updates="None"/>\u000a        <Param name="font" val="Arial" valType="str" updates="constant"/>\u000a        <Param name="letterHeight" val="0.1" valType="code" updates="constant"/>\u000a      </TextComponent>\u000a    </Routine>\u000a    <Routine name="ResetAtBlock">\u000a      <CodeComponent name="code_3">\u000a        <Param name="Begin Experiment" val="" valType="extendedCode" updates="constant"/>\u000a        <Param name="name" val="code_3" valType="code" updates="None"/>\u000a        <Param name="Begin Routine" val="Redo = 1" valType="extendedCode" updates="constant"/>\u000a        <Param name="End Routine" val="" valType="extendedCode" updates="constant"/>\u000a        <Param name="End Experiment" val="" valType="extendedCode" updates="constant"/>\u000a        <Param name="Each Frame" val="" valType="extendedCode" updates="constant"/>\u000a      </CodeComponent>\u000a    </Routine>\u000a    <Routine name="StopTrial">\u000a      <TextComponent name="text_3">\u000a        <Param name="opacity" val="1" valType="code" updates="constant"/>\u000a        <Param name="colorSpace" val="rgb" valType="str" updates="constant"/>\u000a        <Param name="name" val="text_3" valType="code" updates="None"/>\u000a        <Param name="wrapWidth" val="" valType="code" updates="constant"/>\u000a        <Param name="color" val="white" valType="str" updates="constant"/>\u000a        <Param name="text" val="|" valType="str" updates="constant"/>\u000a        <Param name="stopVal" val="1.5" valType="code" updates="constant"/>\u000a        <Param name="durationEstim" val="" valType="code" updates="None"/>\u000a        <Param name="pos" val="[0, 0]" valType="code" updates="constant"/>\u000a        <Param name="flip" val="" valType="str" updates="constant"/>\u000a        <Param name="startEstim" val="" valType="code" updates="None"/>\u000a        <Param name="units" val="from exp settings" valType="str" updates="None"/>\u000a        <Param name="startType" val="time (s)" valType="str" updates="None"/>\u000a        <Param name="ori" val="0" valType="code" updates="constant"/>\u000a        <Param name="stopType" val="duration (s)" valType="str" updates="None"/>\u000a        <Param name="startVal" val="0.0" valType="code" updates="None"/>\u000a        <Param name="font" val="Arial" valType="str" updates="constant"/>\u000a        <Param name="letterHeight" val="4" valType="code" updates="constant"/>\u000a      </TextComponent>\u000a      <ImageComponent name="image_3">\u000a        <Param name="opacity" val="1" valType="code" updates="constant"/>\u000a        <Param name="flipVert" val="False" valType="bool" updates="constant"/>\u000a        <Param name="colorSpace" val="rgb" valType="str" updates="constant"/>\u000a        <Param name="name" val="image_3" valType="code" updates="None"/>\u000a        <Param name="color" val="$[1,1,1]" valType="str" updates="constant"/>\u000a        <Param name="stopVal" val="1.0" valType="code" updates="constant"/>\u000a        <Param name="durationEstim" val="" valType="code" updates="None"/>\u000a        <Param name="mask" val="None" valType="str" updates="constant"/>\u000a        <Param name="pos" val="$[xPosGoStim, yPosGoStim]" valType="code" updates="set every repeat"/>\u000a        <Param name="interpolate" val="linear" valType="str" updates="constant"/>\u000a        <Param name="startEstim" val="" valType="code" updates="None"/>\u000a        <Param name="units" val="pix" valType="str" updates="None"/>\u000a        <Param name="texture resolution" val="128" valType="code" updates="constant"/>\u000a        <Param name="startType" val="time (s)" valType="str" updates="None"/>\u000a        <Param name="ori" val="0" valType="code" updates="constant"/>\u000a        <Param name="stopType" val="duration (s)" valType="str" updates="None"/>\u000a        <Param name="startVal" val=".5" valType="code" updates="None"/>\u000a        <Param name="flipHoriz" val="False" valType="bool" updates="constant"/>\u000a        <Param name="image" val="$currentGoStim" valType="str" updates="set every repeat"/>\u000a        <Param name="size" val="[151, 151]" valType="code" updates="constant"/>\u000a      </ImageComponent>\u000a      <SoundComponent name="sound_1">\u000a        <Param name="sound" val="900" valType="str" updates="constant"/>\u000a        <Param name="volume" val="1" valType="code" updates="constant"/>\u000a        <Param name="name" val="sound_1" valType="code" updates="None"/>\u000a        <Param name="stopVal" val=".2" valType="code" updates="constant"/>\u000a        <Param name="durationEstim" val="" valType="code" updates="None"/>\u000a        <Param name="startEstim" val=".75" valType="code" updates="None"/>\u000a        <Param name="startType" val="time (s)" valType="str" updates="None"/>\u000a        <Param name="stopType" val="duration (s)" valType="str" updates="None"/>\u000a        <Param name="startVal" val="750" valType="code" updates="None"/>\u000a      </SoundComponent>\u000a      <KeyboardComponent name="goResp">\u000a        <Param name="correctAns" val="$corrGoResp" valType="str" updates="constant"/>\u000a        <Param name="storeCorrect" val="True" valType="bool" updates="constant"/>\u000a        <Param name="name" val="goResp" valType="code" updates="None"/>\u000a        <Param name="stopVal" val="1" valType="code" updates="constant"/>\u000a        <Param name="durationEstim" val="" valType="code" updates="None"/>\u000a        <Param name="forceEndRoutine" val="False" valType="bool" updates="constant"/>\u000a        <Param name="startEstim" val="" valType="code" updates="None"/>\u000a        <Param name="discard previous" val="True" valType="bool" updates="constant"/>\u000a        <Param name="startType" val="time (s)" valType="str" updates="None"/>\u000a        <Param name="allowedKeys" val="'z','m'" valType="code" updates="constant"/>\u000a        <Param name="stopType" val="duration (s)" valType="str" updates="None"/>\u000a        <Param name="startVal" val=".5" valType="code" updates="None"/>\u000a        <Param name="store" val="first key" valType="str" updates="constant"/>\u000a      </KeyboardComponent>\u000a    </Routine>\u000a    <Routine name="instrMain">\u000a      <TextComponent name="instr2">\u000a        <Param name="opacity" val="1" valType="code" updates="constant"/>\u000a        <Param name="colorSpace" val="rgb" valType="str" updates="constant"/>\u000a        <Param name="name" val="instr2" valType="code" updates="constant"/>\u000a        <Param name="wrapWidth" val="" valType="code" updates="constant"/>\u000a        <Param name="color" val="white" valType="str" updates="constant"/>\u000a        <Param name="text" val="A shape stimulus will appear on every trial. &#10;&#10;If it appears in the upper right quadrant, PRESS Y&#10;&#10;If it appears in the lower right quadrant, PRESS H&#10;&#10;If it appears in the lower left quadrant, PRESS G&#10;&#10;If it appears in the upper left quadrant, PRESS T&#10;&#10;Press any key when you are ready to proceed. " valType="str" updates="constant"/>\u000a        <Param name="stopVal" val="" valType="code" updates="constant"/>\u000a        <Param name="durationEstim" val="" valType="code" updates="None"/>\u000a        <Param name="pos" val="[0, 0]" valType="code" updates="constant"/>\u000a        <Param name="flip" val="" valType="str" updates="constant"/>\u000a        <Param name="startEstim" val="" valType="code" updates="None"/>\u000a        <Param name="units" val="from exp settings" valType="str" updates="None"/>\u000a        <Param name="startType" val="time (s)" valType="str" updates="None"/>\u000a        <Param name="ori" val="0" valType="code" updates="constant"/>\u000a        <Param name="stopType" val="duration (s)" valType="str" updates="None"/>\u000a        <Param name="startVal" val="0.0" valType="code" updates="None"/>\u000a        <Param name="font" val="Arial" valType="str" updates="constant"/>\u000a        <Param name="letterHeight" val="0.075" valType="code" updates="constant"/>\u000a      </TextComponent>\u000a      <KeyboardComponent name="ok2">\u000a        <Param name="correctAns" val="" valType="str" updates="constant"/>\u000a        <Param name="storeCorrect" val="False" valType="bool" updates="constant"/>\u000a        <Param name="name" val="ok2" valType="code" updates="None"/>\u000a        <Param name="stopVal" val="" valType="code" updates="constant"/>\u000a        <Param name="durationEstim" val="" valType="code" updates="None"/>\u000a        <Param name="forceEndRoutine" val="True" valType="bool" updates="constant"/>\u000a        <Param name="startEstim" val="" valType="code" updates="None"/>\u000a        <Param name="discard previous" val="True" valType="bool" updates="constant"/>\u000a        <Param name="startType" val="time (s)" valType="str" updates="None"/>\u000a        <Param name="allowedKeys" val="" valType="code" updates="constant"/>\u000a        <Param name="stopType" val="duration (s)" valType="str" updates="None"/>\u000a        <Param name="startVal" val="0.0" valType="code" updates="None"/>\u000a        <Param name="store" val="nothing" valType="str" updates="constant"/>\u000a      </KeyboardComponent>\u000a    </Routine>\u000a    <Routine name="newStopStim">\u000a      <CodeComponent name="code_7">\u000a        <Param name="Begin Experiment" val="" valType="extendedCode" updates="constant"/>\u000a        <Param name="name" val="code_7" valType="code" updates="None"/>\u000a        <Param name="Begin Routine" val="currentStopTrial = stopTrialList.pop(0)&#10;currentGoStim = currentStopTrial['fileName']&#10;&#10;if xPosGoStim == -200:&#10;    SSD = SSDLeft + 500&#10;else:&#10;    SSD = SSDRight + 500" valType="extendedCode" updates="constant"/>\u000a        <Param name="End Routine" val="" valType="extendedCode" updates="constant"/>\u000a        <Param name="End Experiment" val="" valType="extendedCode" updates="constant"/>\u000a        <Param name="Each Frame" val="" valType="extendedCode" updates="constant"/>\u000a      </CodeComponent>\u000a    </Routine>\u000a    <Routine name="feedback">\u000a      <CodeComponent name="message">\u000a        <Param name="Begin Experiment" val="#message variable just needs some value at start&#10;message=0" valType="extendedCode" updates="constant"/>\u000a        <Param name="name" val="message" valType="code" updates="None"/>\u000a        <Param name="Begin Routine" val="import random&#10;&#10;displayReward = random.randrange(1, 6)&#10;&#10;if resp.corr:#stored on last run routine&#10;    if displayReward == 1:&#10;            message = &quot;You won $&quot; + str(0);&#10;    else: &#10;            currentReward = currentLearningTrial['reward']&#10;            message = &quot;You won $&quot; + str(currentReward + (random.randrange(-25, 26)*.01))&#10;elif resp.keys is None: #or len(key_resp.keys)&lt;1:&#10;#elif resp.rt == 0:&#10;    message =&quot;Too Slow&quot;&#10;else:&#10;  message=&quot;Wrong&quot;" valType="extendedCode" updates="constant"/>\u000a        <Param name="End Routine" val="" valType="extendedCode" updates="constant"/>\u000a        <Param name="End Experiment" val="" valType="extendedCode" updates="constant"/>\u000a        <Param name="Each Frame" val="" valType="extendedCode" updates="constant"/>\u000a      </CodeComponent>\u000a      <TextComponent name="feedback_2">\u000a        <Param name="opacity" val="1" valType="code" updates="constant"/>\u000a        <Param name="colorSpace" val="rgb" valType="str" updates="constant"/>\u000a        <Param name="name" val="feedback_2" valType="code" updates="constant"/>\u000a        <Param name="wrapWidth" val="" valType="code" updates="constant"/>\u000a        <Param name="color" val="$[1,1,1]" valType="str" updates="constant"/>\u000a        <Param name="text" val="$message" valType="str" updates="set every repeat"/>\u000a        <Param name="stopVal" val="1.0" valType="code" updates="constant"/>\u000a        <Param name="durationEstim" val="" valType="code" updates="None"/>\u000a        <Param name="pos" val="[0, 0]" valType="code" updates="constant"/>\u000a        <Param name="flip" val="" valType="str" updates="constant"/>\u000a        <Param name="startEstim" val="" valType="code" updates="None"/>\u000a        <Param name="units" val="from exp settings" valType="str" updates="None"/>\u000a        <Param name="startType" val="time (s)" valType="str" updates="None"/>\u000a        <Param name="ori" val="0" valType="code" updates="constant"/>\u000a        <Param name="stopType" val="duration (s)" valType="str" updates="None"/>\u000a        <Param name="startVal" val="0.0" valType="code" updates="None"/>\u000a        <Param name="font" val="Arial" valType="str" updates="constant"/>\u000a        <Param name="letterHeight" val=".2" valType="code" updates="constant"/>\u000a      </TextComponent>\u000a      <ImageComponent name="image">\u000a        <Param name="opacity" val="1" valType="code" updates="constant"/>\u000a        <Param name="flipVert" val="False" valType="bool" updates="constant"/>\u000a        <Param name="colorSpace" val="rgb" valType="str" updates="constant"/>\u000a        <Param name="name" val="image" valType="code" updates="None"/>\u000a        <Param name="color" val="$[1,1,1]" valType="str" updates="constant"/>\u000a        <Param name="stopVal" val="1.0" valType="code" updates="constant"/>\u000a        <Param name="durationEstim" val="" valType="code" updates="None"/>\u000a        <Param name="mask" val="None" valType="str" updates="constant"/>\u000a        <Param name="pos" val="$[xPos, yPos]" valType="code" updates="set every repeat"/>\u000a        <Param name="interpolate" val="linear" valType="str" updates="constant"/>\u000a        <Param name="startEstim" val="" valType="code" updates="None"/>\u000a        <Param name="units" val="pix" valType="str" updates="None"/>\u000a        <Param name="texture resolution" val="128" valType="code" updates="constant"/>\u000a        <Param name="startType" val="time (s)" valType="str" updates="None"/>\u000a        <Param name="ori" val="0" valType="code" updates="constant"/>\u000a        <Param name="stopType" val="duration (s)" valType="str" updates="None"/>\u000a        <Param name="startVal" val="0.0" valType="code" updates="None"/>\u000a        <Param name="flipHoriz" val="False" valType="bool" updates="constant"/>\u000a        <Param name="image" val="$currentStimulus" valType="str" updates="set every repeat"/>\u000a        <Param name="size" val="[151, 151]" valType="code" updates="constant"/>\u000a      </ImageComponent>\u000a    </Routine>\u000a  </Routines>\u000a  <Flow>\u000a    <Routine name="StimSetup"/>\u000a    <Routine name="instrPractice"/>\u000a    <LoopInitiator loopType="TrialHandler" name="Blocks">\u000a      <Param name="conditionsFile" val="" valType="str" updates="None"/>\u000a      <Param name="name" val="Blocks" valType="code" updates="None"/>\u000a      <Param name="isTrials" val="True" valType="bool" updates="None"/>\u000a      <Param name="random seed" val="" valType="code" updates="None"/>\u000a      <Param name="loopType" val="sequential" valType="str" updates="None"/>\u000a      <Param name="nReps" val="0" valType="code" updates="None"/>\u000a      <Param name="endPoints" val="[0, 1]" valType="num" updates="None"/>\u000a      <Param name="conditions" val="None" valType="str" updates="None"/>\u000a      <Param name="Selected rows" val="" valType="str" updates="None"/>\u000a    </LoopInitiator>\u000a    <Routine name="ResetAtBlock"/>\u000a    <LoopInitiator loopType="TrialHandler" name="trials">\u000a      <Param name="conditionsFile" val="TrialtypesLearning.xlsx" valType="str" updates="None"/>\u000a      <Param name="name" val="trials" valType="code" updates="None"/>\u000a      <Param name="isTrials" val="True" valType="bool" updates="None"/>\u000a      <Param name="random seed" val="" valType="code" updates="None"/>\u000a      <Param name="loopType" val="fullRandom" valType="str" updates="None"/>\u000a      <Param name="nReps" val="25" valType="num" updates="None"/>\u000a      <Param name="endPoints" val="[0, 1]" valType="num" updates="None"/>\u000a      <Param name="conditions" val="[{u'xPos': 200, u'corrAns': u'h', u'yPos': 200}, {u'xPos': -200, u'corrAns': u'g', u'yPos': 200}, {u'xPos': 200, u'corrAns': u'n', u'yPos': -200}, {u'xPos': -200, u'corrAns': u'b', u'yPos': -200}]" valType="str" updates="None"/>\u000a      <Param name="Selected rows" val="" valType="str" updates="None"/>\u000a    </LoopInitiator>\u000a    <Routine name="NewStim"/>\u000a    <LoopInitiator loopType="TrialHandler" name="ReDoLoopMain">\u000a      <Param name="conditionsFile" val="" valType="str" updates="None"/>\u000a      <Param name="name" val="ReDoLoopMain" valType="code" updates="None"/>\u000a      <Param name="isTrials" val="False" valType="bool" updates="None"/>\u000a      <Param name="random seed" val="" valType="code" updates="None"/>\u000a      <Param name="loopType" val="random" valType="str" updates="None"/>\u000a      <Param name="nReps" val="999" valType="code" updates="None"/>\u000a      <Param name="endPoints" val="[0, 1]" valType="num" updates="None"/>\u000a      <Param name="conditions" val="None" valType="str" updates="None"/>\u000a      <Param name="Selected rows" val="" valType="str" updates="None"/>\u000a    </LoopInitiator>\u000a    <Routine name="trial"/>\u000a    <Routine name="feedback"/>\u000a    <Routine name="Blank"/>\u000a    <Routine name="ExitMain"/>\u000a    <LoopTerminator name="ReDoLoopMain"/>\u000a    <LoopTerminator name="trials"/>\u000a    <LoopTerminator name="Blocks"/>\u000a    <Routine name="instrStopPrac"/>\u000a    <LoopInitiator loopType="TrialHandler" name="StopBlocks">\u000a      <Param name="conditionsFile" val="" valType="str" updates="None"/>\u000a      <Param name="name" val="StopBlocks" valType="code" updates="None"/>\u000a      <Param name="isTrials" val="True" valType="bool" updates="None"/>\u000a      <Param name="random seed" val="" valType="code" updates="None"/>\u000a      <Param name="loopType" val="sequential" valType="str" updates="None"/>\u000a      <Param name="nReps" val="4" valType="code" updates="None"/>\u000a      <Param name="endPoints" val="[0, 1]" valType="num" updates="None"/>\u000a      <Param name="conditions" val="None" valType="str" updates="None"/>\u000a      <Param name="Selected rows" val="" valType="str" updates="None"/>\u000a    </LoopInitiator>\u000a    <Routine name="stopBlockSetup"/>\u000a    <LoopInitiator loopType="TrialHandler" name="StopTrials">\u000a      <Param name="conditionsFile" val="trialtypeStop.xlsx" valType="str" updates="None"/>\u000a      <Param name="name" val="StopTrials" valType="code" updates="None"/>\u000a      <Param name="isTrials" val="True" valType="bool" updates="None"/>\u000a      <Param name="random seed" val="" valType="code" updates="None"/>\u000a      <Param name="loopType" val="fullRandom" valType="str" updates="None"/>\u000a      <Param name="nReps" val="34" valType="code" updates="None"/>\u000a      <Param name="endPoints" val="[0, 1]" valType="num" updates="None"/>\u000a      <Param name="conditions" val="[{u'corrGoResp': u'z', u'yPosGoStim': 0, u'xPosGoStim': -200}, {u'corrGoResp': u'm', u'yPosGoStim': 0, u'xPosGoStim': 200}]" valType="str" updates="None"/>\u000a      <Param name="Selected rows" val="" valType="str" updates="None"/>\u000a    </LoopInitiator>\u000a    <Routine name="newStopStim"/>\u000a    <Routine name="StopTrial"/>\u000a    <Routine name="blankStop"/>\u000a    <Routine name="SSDChange"/>\u000a    <LoopTerminator name="StopTrials"/>\u000a    <Routine name="endOfStopBlockFeedback"/>\u000a    <LoopTerminator name="StopBlocks"/>\u000a    <Routine name="End"/>\u000a  </Flow>\u000a</PsychoPy2experiment>\u000a
p799
sg43
(lp800
sg44
I313991632
sg11
S'StopTrials'
p801
sg6
g7
sg46
I34
sg20
I01
sg21
g22
sg47
g1
(g48
g49
(dp802
g51
g52
(g53
g54
g55
S'b'
tRp803
(I1
(I2
I34
tg57
I00
S'\x00\x00\x80?\x00\x00\x80?\x00\x00\x80?\x00\x00\x80?\x00\x00\x80?\x00\x00\x80?\x00\x00\x80?\x00\x00\x80?\x00\x00\x80?\x00\x00\x80?\x00\x00\x80?\x00\x00\x80?\x00\x00\x80?\x00\x00\x80?\x00\x00\x80?\x00\x00\x80?\x00\x00\x80?\x00\x00\x80?\x00\x00\x80?\x00\x00\x80?\x00\x00\x80?\x00\x00\x80?\x00\x00\x80?\x00\x00\x80?\x00\x00\x80?\x00\x00\x80?\x00\x00\x80?\x00\x00\x80?\x00\x00\x80?\x00\x00\x80?\x00\x00\x80?\x00\x00\x80?\x00\x00\x80?\x00\x00\x80?\x00\x00\x80?\x00\x00\x80?\x00\x00\x80?\x00\x00\x80?\x00\x00\x80?\x00\x00\x80?\x00\x00\x80?\x00\x00\x80?\x00\x00\x80?\x00\x00\x80?\x00\x00\x80?\x00\x00\x80?\x00\x00\x80?\x00\x00\x80?\x00\x00\x80?\x00\x00\x80?\x00\x00\x80?\x00\x00\x80?\x00\x00\x80?\x00\x00\x80?\x00\x00\x80?\x00\x00\x80?\x00\x00\x80?\x00\x00\x80?\x00\x00\x80?\x00\x00\x80?\x00\x00\x80?\x00\x00\x80?\x00\x00\x80?\x00\x00\x80?\x00\x00\x80?\x00\x00\x80?\x00\x00\x80?\x00\x00\x80?'
S'\x00\x00\x00\x00\x00\x00\x00\x00\x00\x00\x00\x00\x00\x00\x00\x00\x00\x00\x00\x00\x00\x00\x00\x00\x00\x00\x00\x00\x00\x00\x00\x00\x00\x00\x00\x00\x00\x00\x00\x00\x00\x00\x00\x00\x00\x00\x00\x00\x00\x00\x00\x00\x00\x00\x00\x00\x00\x00\x00\x00\x00\x00\x00\x00\x00\x00\x00\x00'
Ntbsg17
g72
(g54
(I0
tS'b'
tRp804
(I1
(I2
I34
tg28
(S'O4'
I0
I1
tRp805
(I3
S'|'
NNNI-1
I-1
I63
tbI00
(lp806
S'z'
aS'z'
aS'z'
aS'z'
aS'z'
aS'z'
aS'z'
aS'z'
aS'z'
aS'z'
aS'z'
aNaNaNaNaNaNaNaNaNaNaNaNaNaNaNaNaNaNaNaNaNaNaNaS'm'
aS'm'
aS'm'
aS'm'
aS'm'
aS'm'
aNaNaNaNaNaNaNaNaNaNaNaNaNaNaNaNaNaNaNaNaNaNaNaNaNaNaNaNatbsg18
g52
(g53
g54
g55
S'b'
tRp807
(I1
(I2
I34
tg57
I00
S'\x00\x00\x80?\x00\x00\x80?\x00\x00\x80?\x00\x00\x80?\x00\x00\x80?\x00\x00\x80?\x00\x00\x80?\x00\x00\x80?\x00\x00\x80?\x00\x00\x80?\x00\x00\x80?\x00\x00\x00\x00\x00\x00\x00\x00\x00\x00\x00\x00\x00\x00\x00\x00\x00\x00\x00\x00\x00\x00\x00\x00\x00\x00\x00\x00\x00\x00\x00\x00\x00\x00\x00\x00\x00\x00\x00\x00\x00\x00\x00\x00\x00\x00\x00\x00\x00\x00\x00\x00\x00\x00\x00\x00\x00\x00\x00\x00\x00\x00\x00\x00\x00\x00\x00\x00\x00\x00\x00\x00\x00\x00\x00\x00\x00\x00\x00\x00\x00\x00\x00\x00\x00\x00\x00\x00\x00\x00\x00\x00\x00\x00\x80?\x00\x00\x80?\x00\x00\x80?\x00\x00\x80?\x00\x00\x80?\x00\x00\x80?\x00\x00\x00\x00\x00\x00\x00\x00\x00\x00\x00\x00\x00\x00\x00\x00\x00\x00\x00\x00\x00\x00\x00\x00\x00\x00\x00\x00\x00\x00\x00\x00\x00\x00\x00\x00\x00\x00\x00\x00\x00\x00\x00\x00\x00\x00\x00\x00\x00\x00\x00\x00\x00\x00\x00\x00\x00\x00\x00\x00\x00\x00\x00\x00\x00\x00\x00\x00\x00\x00\x00\x00\x00\x00\x00\x00\x00\x00\x00\x00\x00\x00\x00\x00\x00\x00\x00\x00\x00\x00\x00\x00\x00\x00\x00\x00\x00\x00\x00\x00\x00\x00\x00\x00\x00\x00\x00\x00\x00\x00\x00\x00'
S'\x00\x00\x00\x00\x00\x00\x00\x00\x00\x00\x00\x00\x00\x00\x00\x00\x00\x00\x00\x00\x00\x00\x00\x00\x00\x00\x00\x00\x00\x00\x00\x00\x00\x00\x00\x00\x00\x00\x00\x00\x00\x00\x00\x00\x00\x00\x00\x00\x00\x00\x00\x00\x00\x00\x00\x00\x00\x00\x00\x00\x00\x00\x00\x00\x00\x00\x00\x00'
Ntbsg58
g52
(g53
g54
g55
S'b'
tRp808
(I1
(I2
I34
tg57
I00
S'\x00\x00\x00\x00\x00\x00\x80?\x00\x00@@\x00\x00\xa0@\x00\x00\x00A\x00\x00\x10A\x00\x00 A\x00\x000A\x00\x00PA\x00\x00`A\x00\x00pA\x00\x00\x90A\x00\x00\xa0A\x00\x00\xa8A\x00\x00\xd8A\x00\x00\xe8A\x00\x00\xf8A\x00\x00\x08B\x00\x00\x10B\x00\x00\x14B\x00\x00 B\x00\x00,B\x00\x000B\x00\x004B\x00\x008B\x00\x00DB\x00\x00LB\x00\x00TB\x00\x00XB\x00\x00\\B\x00\x00hB\x00\x00pB\x00\x00|B\x00\x00\x86B\x00\x00\x00@\x00\x00\x80@\x00\x00\xc0@\x00\x00\xe0@\x00\x00@A\x00\x00\x80A\x00\x00\x88A\x00\x00\x98A\x00\x00\xb0A\x00\x00\xb8A\x00\x00\xc0A\x00\x00\xc8A\x00\x00\xd0A\x00\x00\xe0A\x00\x00\xf0A\x00\x00\x00B\x00\x00\x04B\x00\x00\x0cB\x00\x00\x18B\x00\x00\x1cB\x00\x00$B\x00\x00(B\x00\x00<B\x00\x00@B\x00\x00HB\x00\x00PB\x00\x00`B\x00\x00dB\x00\x00lB\x00\x00tB\x00\x00xB\x00\x00\x80B\x00\x00\x82B\x00\x00\x84B'
S'\x00\x00\x00\x00\x00\x00\x00\x00\x00\x00\x00\x00\x00\x00\x00\x00\x00\x00\x00\x00\x00\x00\x00\x00\x00\x00\x00\x00\x00\x00\x00\x00\x00\x00\x00\x00\x00\x00\x00\x00\x00\x00\x00\x00\x00\x00\x00\x00\x00\x00\x00\x00\x00\x00\x00\x00\x00\x00\x00\x00\x00\x00\x00\x00\x00\x00\x00\x00'
Ntbsg19
g52
(g53
g54
g55
S'b'
tRp809
(I1
(I2
I34
tg57
I00
S'@\xa3\xe4>\xa8\xea\xf7>\xe8\x0c\xbc>\xc0)\xbc>h\xa1\xc4>(\xbf\xd5>\x10\xbe\x08?H\r\xe7>\x10\xf2\xaa>@-\xcd>\x005\xbc>\x00\x00\x00\x00\x00\x00\x00\x00\x00\x00\x00\x00\x00\x00\x00\x00\x00\x00\x00\x00\x00\x00\x00\x00\x00\x00\x00\x00\x00\x00\x00\x00\x00\x00\x00\x00\x00\x00\x00\x00\x00\x00\x00\x00\x00\x00\x00\x00\x00\x00\x00\x00\x00\x00\x00\x00\x00\x00\x00\x00\x00\x00\x00\x00\x00\x00\x00\x00\x00\x00\x00\x00\x00\x00\x00\x00\x00\x00\x00\x00\x00\x00\x00\x00\x00\x00\x00\x00\x00\x00\x00\x00\x98\xc0\xd5>\x80\xa8\xc4>\x88\x93\xb3>\x90\xe6\xe6>\xe8h\xde>H\x90\xa2>\x00\x00\x00\x00\x00\x00\x00\x00\x00\x00\x00\x00\x00\x00\x00\x00\x00\x00\x00\x00\x00\x00\x00\x00\x00\x00\x00\x00\x00\x00\x00\x00\x00\x00\x00\x00\x00\x00\x00\x00\x00\x00\x00\x00\x00\x00\x00\x00\x00\x00\x00\x00\x00\x00\x00\x00\x00\x00\x00\x00\x00\x00\x00\x00\x00\x00\x00\x00\x00\x00\x00\x00\x00\x00\x00\x00\x00\x00\x00\x00\x00\x00\x00\x00\x00\x00\x00\x00\x00\x00\x00\x00\x00\x00\x00\x00\x00\x00\x00\x00\x00\x00\x00\x00\x00\x00\x00\x00\x00\x00\x00\x00'
S'\x00\x00\x00\x00\x00\x00\x00\x00\x00\x00\x00\x01\x01\x01\x01\x01\x01\x01\x01\x01\x01\x01\x01\x01\x01\x01\x01\x01\x01\x01\x01\x01\x01\x01\x00\x00\x00\x00\x00\x00\x01\x01\x01\x01\x01\x01\x01\x01\x01\x01\x01\x01\x01\x01\x01\x01\x01\x01\x01\x01\x01\x01\x01\x01\x01\x01\x01\x01'
NtbstRp810
(dp811
g62
(dp812
g51
I01
sg17
I00
sg18
I01
sg58
I01
sg19
I01
ssg64
g797
sg65
(lp813
g51
ag58
ag17
ag18
ag19
asg67
(lp814
I2
aI34
asbsg69
S'fullRandom'
p815
sg71
g72
(g54
(I0
tS'b'
tRp816
(I1
(I2
I34
tg805
I00
(lp817
I0
aI1
aI1
aI1
aI0
aI0
aI1
aI0
aI1
aI0
aI0
aI1
aI1
aI1
aI1
aI1
aI1
aI0
aI0
aI1
aI0
aI1
aI0
aI0
aI1
aI1
aI1
aI0
aI1
aI0
aI0
aI1
aI1
aI1
aI0
aI0
aI0
aI1
aI0
aI0
aI0
aI0
aI1
aI1
aI0
aI1
aI1
aI0
aI0
aI0
aI1
aI1
aI0
aI1
aI1
aI0
aI0
aI1
aI0
aI0
aI0
aI0
aI1
aI1
aI1
aI0
aI1
aI0
atbsg75
I01
sg76
I34
sg77
I-1
sg78
(lp818
g1
(cpsychopy.data
TrialType
p819
g49
(dp820
g93
Vz
sg94
I0
sg95
I-200
stRp821
ag1
(g819
g49
(dp822
g93
Vm
sg94
I0
sg95
I200
stRp823
asg80
Nsg81
I0
sg83
I68
sg84
I0
sg85
I68
sg86
I01
sbasS'savePickle'
p824
I00
sb.