ccopy_reg
_reconstructor
p1
(cpsychopy.data
ExperimentHandler
p2
c__builtin__
object
p3
NtRp4
(dp5
S'originPath'
p6
V/Users/patrickbissett/OneDrive/Poldrack/TrainedInhibition/PsychoPy/ShapeLearningTaskCounterbalanceRemovePrac9.psyexp
p7
sS'dataFileName'
p8
V/Users/patrickbissett/OneDrive/Poldrack/TrainedInhibition/PsychoPy/data/3007_2015_Mar_31_1004
p9
sS'runtimeInfo'
p10
NsS'name'
p11
S'LearningTask'
p12
sS'dataNames'
p13
(lp14
S'ok1.keys'
p15
aS'ok1.rt'
p16
aS'goResp.keys'
p17
aS'goResp.corr'
p18
asS'autoLog'
p19
I01
sS'extraInfo'
p20
(dp21
S'expName'
p22
g12
sS'gender (m/f)'
p23
V
sS'age'
p24
V
sS'frameRate'
p25
cnumpy.core.multiarray
scalar
p26
(cnumpy
dtype
p27
(S'f8'
I0
I1
tRp28
(I3
S'<'
NNNI-1
I-1
I0
tbS'Rx\xa8\xbf\x17tN@'
tRp29
sS'session'
p30
I3
sS'date'
p31
V2015_Mar_31_1004
p32
sS'participant'
p33
V3007
p34
ssS'loopsUnfinished'
p35
(lp36
g1
(cpsychopy.data
TrialHandler
p37
g3
NtRp38
(dp39
S'origin'
p40
V<PsychoPy2experiment version="1.82.01" encoding="utf-8">\u000a  <Settings>\u000a    <Param name="Show mouse" val="False" valType="bool" updates="None"/>\u000a    <Param name="Data filename" val="u'data' + os.sep + '%s_%s' %(expInfo['participant'], expInfo['date'])" valType="code" updates="None"/>\u000a    <Param name="Monitor" val="testMonitor" valType="str" updates="None"/>\u000a    <Param name="Enable Escape" val="True" valType="bool" updates="None"/>\u000a    <Param name="color" val="black" valType="str" updates="None"/>\u000a    <Param name="Window size (pixels)" val="[1680, 1050]" valType="code" updates="None"/>\u000a    <Param name="Full-screen window" val="True" valType="bool" updates="None"/>\u000a    <Param name="colorSpace" val="rgb" valType="str" updates="None"/>\u000a    <Param name="Experiment info" val="{'participant':'', 'gender (m/f)':'', 'age':'', 'session':03}" valType="code" updates="None"/>\u000a    <Param name="Save csv file" val="False" valType="bool" updates="None"/>\u000a    <Param name="Show info dlg" val="True" valType="bool" updates="None"/>\u000a    <Param name="Save wide csv file" val="True" valType="bool" updates="None"/>\u000a    <Param name="Save psydat file" val="True" valType="bool" updates="None"/>\u000a    <Param name="expName" val="LearningTask" valType="str" updates="None"/>\u000a    <Param name="logging level" val="warning" valType="code" updates="None"/>\u000a    <Param name="blendMode" val="avg" valType="str" updates="None"/>\u000a    <Param name="Save excel file" val="True" valType="bool" updates="None"/>\u000a    <Param name="Units" val="use prefs" valType="str" updates="None"/>\u000a    <Param name="Save log file" val="True" valType="bool" updates="None"/>\u000a    <Param name="Screen" val="1" valType="num" updates="None"/>\u000a  </Settings>\u000a  <Routines>\u000a    <Routine name="stopBlockSetup">\u000a      <CodeComponent name="code_9">\u000a        <Param name="Begin Experiment" val="goCumRT = 0&#10;goRTCount = 0&#10;omissionCount = 0&#10;commissionCount = 0&#10;stopTrialCount = 0&#10;stopSuccessCount = 0&#10;goTrialCount = 0" valType="extendedCode" updates="constant"/>\u000a        <Param name="name" val="code_9" valType="code" updates="None"/>\u000a        <Param name="Begin Routine" val="" valType="extendedCode" updates="constant"/>\u000a        <Param name="End Routine" val="" valType="extendedCode" updates="constant"/>\u000a        <Param name="End Experiment" val="" valType="extendedCode" updates="constant"/>\u000a        <Param name="Each Frame" val="" valType="extendedCode" updates="constant"/>\u000a      </CodeComponent>\u000a    </Routine>\u000a    <Routine name="blankStop">\u000a      <TextComponent name="text_4">\u000a        <Param name="opacity" val="1" valType="code" updates="constant"/>\u000a        <Param name="colorSpace" val="rgb" valType="str" updates="constant"/>\u000a        <Param name="name" val="text_4" valType="code" updates="None"/>\u000a        <Param name="wrapWidth" val="" valType="code" updates="constant"/>\u000a        <Param name="color" val="white" valType="str" updates="constant"/>\u000a        <Param name="text" val="THIS IS THE BLANK SCREEN" valType="str" updates="constant"/>\u000a        <Param name="stopVal" val="1.5" valType="code" updates="constant"/>\u000a        <Param name="durationEstim" val="" valType="code" updates="None"/>\u000a        <Param name="pos" val="[0, 0]" valType="code" updates="constant"/>\u000a        <Param name="flip" val="" valType="str" updates="constant"/>\u000a        <Param name="startEstim" val="" valType="code" updates="None"/>\u000a        <Param name="units" val="from exp settings" valType="str" updates="None"/>\u000a        <Param name="startType" val="time (s)" valType="str" updates="None"/>\u000a        <Param name="ori" val="0" valType="code" updates="constant"/>\u000a        <Param name="stopType" val="duration (s)" valType="str" updates="None"/>\u000a        <Param name="startVal" val="0.0" valType="code" updates="None"/>\u000a        <Param name="font" val="Arial" valType="str" updates="constant"/>\u000a        <Param name="letterHeight" val="0.1" valType="code" updates="constant"/>\u000a      </TextComponent>\u000a    </Routine>\u000a    <Routine name="End">\u000a      <TextComponent name="text_6">\u000a        <Param name="opacity" val="1" valType="code" updates="constant"/>\u000a        <Param name="colorSpace" val="rgb" valType="str" updates="constant"/>\u000a        <Param name="name" val="text_6" valType="code" updates="None"/>\u000a        <Param name="wrapWidth" val="" valType="code" updates="constant"/>\u000a        <Param name="color" val="white" valType="str" updates="constant"/>\u000a        <Param name="text" val="This is the end, beautiful friend" valType="str" updates="constant"/>\u000a        <Param name="stopVal" val="5" valType="code" updates="constant"/>\u000a        <Param name="durationEstim" val="" valType="code" updates="None"/>\u000a        <Param name="pos" val="[0, 0]" valType="code" updates="constant"/>\u000a        <Param name="flip" val="" valType="str" updates="constant"/>\u000a        <Param name="startEstim" val="" valType="code" updates="None"/>\u000a        <Param name="units" val="from exp settings" valType="str" updates="None"/>\u000a        <Param name="startType" val="time (s)" valType="str" updates="None"/>\u000a        <Param name="ori" val="0" valType="code" updates="constant"/>\u000a        <Param name="stopType" val="duration (s)" valType="str" updates="None"/>\u000a        <Param name="startVal" val="0.0" valType="code" updates="None"/>\u000a        <Param name="font" val="Arial" valType="str" updates="constant"/>\u000a        <Param name="letterHeight" val="0.1" valType="code" updates="constant"/>\u000a      </TextComponent>\u000a    </Routine>\u000a    <Routine name="instrStopPrac">\u000a      <TextComponent name="instrStopText">\u000a        <Param name="opacity" val="1" valType="code" updates="constant"/>\u000a        <Param name="colorSpace" val="rgb" valType="str" updates="constant"/>\u000a        <Param name="name" val="instrStopText" valType="code" updates="None"/>\u000a        <Param name="wrapWidth" val="" valType="code" updates="constant"/>\u000a        <Param name="color" val="white" valType="str" updates="constant"/>\u000a        <Param name="text" val="A shape stimulus will appear on the left or right side of the screen&#10;&#10;If it appears on the left, press Z&#10;&#10;If it appears on the right, press M&#10;&#10;If you hear a tone, do not press anything on that trial" valType="str" updates="constant"/>\u000a        <Param name="stopVal" val="" valType="code" updates="constant"/>\u000a        <Param name="durationEstim" val="" valType="code" updates="None"/>\u000a        <Param name="pos" val="[0, 0]" valType="code" updates="constant"/>\u000a        <Param name="flip" val="" valType="str" updates="constant"/>\u000a        <Param name="startEstim" val="" valType="code" updates="None"/>\u000a        <Param name="units" val="from exp settings" valType="str" updates="None"/>\u000a        <Param name="startType" val="time (s)" valType="str" updates="None"/>\u000a        <Param name="ori" val="0" valType="code" updates="constant"/>\u000a        <Param name="stopType" val="duration (s)" valType="str" updates="None"/>\u000a        <Param name="startVal" val="0.0" valType="code" updates="None"/>\u000a        <Param name="font" val="Arial" valType="str" updates="constant"/>\u000a        <Param name="letterHeight" val="0.1" valType="code" updates="constant"/>\u000a      </TextComponent>\u000a      <KeyboardComponent name="key_resp_2">\u000a        <Param name="correctAns" val="" valType="str" updates="constant"/>\u000a        <Param name="storeCorrect" val="False" valType="bool" updates="constant"/>\u000a        <Param name="name" val="key_resp_2" valType="code" updates="None"/>\u000a        <Param name="stopVal" val="" valType="code" updates="constant"/>\u000a        <Param name="durationEstim" val="" valType="code" updates="None"/>\u000a        <Param name="forceEndRoutine" val="True" valType="bool" updates="constant"/>\u000a        <Param name="startEstim" val="" valType="code" updates="None"/>\u000a        <Param name="discard previous" val="True" valType="bool" updates="constant"/>\u000a        <Param name="startType" val="time (s)" valType="str" updates="None"/>\u000a        <Param name="allowedKeys" val="" valType="code" updates="constant"/>\u000a        <Param name="stopType" val="duration (s)" valType="str" updates="None"/>\u000a        <Param name="startVal" val="0.0" valType="code" updates="None"/>\u000a        <Param name="store" val="nothing" valType="str" updates="constant"/>\u000a      </KeyboardComponent>\u000a      <CodeComponent name="code_8">\u000a        <Param name="Begin Experiment" val="" valType="extendedCode" updates="constant"/>\u000a        <Param name="name" val="code_8" valType="code" updates="None"/>\u000a        <Param name="Begin Routine" val="InitSSD = 250&#10;SSDLeft = InitSSD&#10;SSDRight = InitSSD" valType="extendedCode" updates="constant"/>\u000a        <Param name="End Routine" val="" valType="extendedCode" updates="constant"/>\u000a        <Param name="End Experiment" val="" valType="extendedCode" updates="constant"/>\u000a        <Param name="Each Frame" val="" valType="extendedCode" updates="constant"/>\u000a      </CodeComponent>\u000a    </Routine>\u000a    <Routine name="ExitMain">\u000a      <CodeComponent name="code_6">\u000a        <Param name="Begin Experiment" val="" valType="extendedCode" updates="constant"/>\u000a        <Param name="name" val="code_6" valType="code" updates="None"/>\u000a        <Param name="Begin Routine" val="" valType="extendedCode" updates="constant"/>\u000a        <Param name="End Routine" val="if resp.corr:&#10;    ReDoLoopMain.finished = True" valType="extendedCode" updates="constant"/>\u000a        <Param name="End Experiment" val="" valType="extendedCode" updates="constant"/>\u000a        <Param name="Each Frame" val="" valType="extendedCode" updates="constant"/>\u000a      </CodeComponent>\u000a    </Routine>\u000a    <Routine name="ResetAtBlock">\u000a      <CodeComponent name="code_3">\u000a        <Param name="Begin Experiment" val="" valType="extendedCode" updates="constant"/>\u000a        <Param name="name" val="code_3" valType="code" updates="None"/>\u000a        <Param name="Begin Routine" val="Redo = 1" valType="extendedCode" updates="constant"/>\u000a        <Param name="End Routine" val="" valType="extendedCode" updates="constant"/>\u000a        <Param name="End Experiment" val="" valType="extendedCode" updates="constant"/>\u000a        <Param name="Each Frame" val="" valType="extendedCode" updates="constant"/>\u000a      </CodeComponent>\u000a    </Routine>\u000a    <Routine name="instrPractice">\u000a      <TextComponent name="instruct1">\u000a        <Param name="opacity" val="1" valType="code" updates="constant"/>\u000a        <Param name="colorSpace" val="rgb" valType="str" updates="constant"/>\u000a        <Param name="name" val="instruct1" valType="code" updates="constant"/>\u000a        <Param name="wrapWidth" val="" valType="code" updates="constant"/>\u000a        <Param name="color" val="white" valType="str" updates="constant"/>\u000a        <Param name="text" val="A shape stimulus will appear on every trial. &#10;&#10;If it appears in the upper right quadrant, PRESS I&#10;&#10;If it appears in the lower right quadrant, PRESS K&#10;&#10;If it appears in the lower left quadrant, PRESS J&#10;&#10;If it appears in the upper left quadrant, PRESS U&#10;&#10;Press any key when you are ready to proceed. " valType="str" updates="constant"/>\u000a        <Param name="stopVal" val="" valType="code" updates="constant"/>\u000a        <Param name="durationEstim" val="" valType="code" updates="None"/>\u000a        <Param name="pos" val="[0, 0]" valType="code" updates="constant"/>\u000a        <Param name="flip" val="" valType="str" updates="constant"/>\u000a        <Param name="startEstim" val="" valType="code" updates="None"/>\u000a        <Param name="units" val="from exp settings" valType="str" updates="None"/>\u000a        <Param name="startType" val="time (s)" valType="str" updates="None"/>\u000a        <Param name="ori" val="0" valType="code" updates="constant"/>\u000a        <Param name="stopType" val="duration (s)" valType="str" updates="None"/>\u000a        <Param name="startVal" val="0.0" valType="code" updates="None"/>\u000a        <Param name="font" val="Arial" valType="str" updates="constant"/>\u000a        <Param name="letterHeight" val="0.07" valType="code" updates="constant"/>\u000a      </TextComponent>\u000a      <KeyboardComponent name="ok1">\u000a        <Param name="correctAns" val="" valType="str" updates="constant"/>\u000a        <Param name="storeCorrect" val="False" valType="bool" updates="constant"/>\u000a        <Param name="name" val="ok1" valType="code" updates="None"/>\u000a        <Param name="stopVal" val="" valType="code" updates="constant"/>\u000a        <Param name="durationEstim" val="" valType="code" updates="None"/>\u000a        <Param name="forceEndRoutine" val="True" valType="bool" updates="constant"/>\u000a        <Param name="startEstim" val="" valType="code" updates="None"/>\u000a        <Param name="discard previous" val="True" valType="bool" updates="constant"/>\u000a        <Param name="startType" val="time (s)" valType="str" updates="None"/>\u000a        <Param name="allowedKeys" val="" valType="code" updates="constant"/>\u000a        <Param name="stopType" val="duration (s)" valType="str" updates="None"/>\u000a        <Param name="startVal" val="0.0" valType="code" updates="None"/>\u000a        <Param name="store" val="last key" valType="str" updates="constant"/>\u000a      </KeyboardComponent>\u000a    </Routine>\u000a    <Routine name="NewStim">\u000a      <CodeComponent name="code_4">\u000a        <Param name="Begin Experiment" val="" valType="extendedCode" updates="constant"/>\u000a        <Param name="name" val="code_4" valType="code" updates="None"/>\u000a        <Param name="Begin Routine" val="currentLearningTrial = learningTrialList.pop(0)&#10;currentStimulus = currentLearningTrial['fileName']&#10;" valType="extendedCode" updates="constant"/>\u000a        <Param name="End Routine" val="" valType="extendedCode" updates="constant"/>\u000a        <Param name="End Experiment" val="" valType="extendedCode" updates="constant"/>\u000a        <Param name="Each Frame" val="" valType="extendedCode" updates="constant"/>\u000a      </CodeComponent>\u000a    </Routine>\u000a    <Routine name="SSDChange">\u000a      <CodeComponent name="code_2">\u000a        <Param name="Begin Experiment" val="" valType="extendedCode" updates="constant"/>\u000a        <Param name="name" val="code_2" valType="code" updates="None"/>\u000a        <Param name="Begin Routine" val="if goResp.keys is None:&#10;    if xPosGoStim == -200:&#10;        SSDLeft = SSDLeft  + 50&#10;    if xPosGoStim == 200:&#10;        SSDRight = SSDRight + 50&#10;else:&#10;    if xPosGoStim == -200:&#10;        SSDLeft = SSDLeft - 50&#10;    if xPosGoStim == 200:&#10;        SSDRight = SSDRight - 50&#10;&#10;if currentStopTrial['stopOrGo'] == 'go':&#10;    goTrialCount = goTrialCount + 1&#10;&#10;if goResp.corr and currentStopTrial['stopOrGo'] == 'go':&#10;    goCumRT = goCumRT + goResp.rt&#10;    goRTCount = goRTCount + 1&#10;&#10;if currentStopTrial['stopOrGo'] == 'stop':&#10;    stopTrialCount = stopTrialCount + 1&#10;&#10;if currentStopTrial['stopOrGo'] == 'stop' and goResp.keys is None:&#10;    stopSuccessCount = stopSuccessCount + 1&#10;&#10;if goResp.keys is None and currentStopTrial['stopOrGo'] == 'go':&#10;    omissionCount = 0&#10;&#10;if goResp != corrGoResp:&#10;    commissionCount = commissionCount + 1" valType="extendedCode" updates="constant"/>\u000a        <Param name="End Routine" val="" valType="extendedCode" updates="constant"/>\u000a        <Param name="End Experiment" val="" valType="extendedCode" updates="constant"/>\u000a        <Param name="Each Frame" val="" valType="extendedCode" updates="constant"/>\u000a      </CodeComponent>\u000a    </Routine>\u000a    <Routine name="endOfStopBlockFeedback">\u000a      <CodeComponent name="code_10">\u000a        <Param name="Begin Experiment" val="" valType="extendedCode" updates="constant"/>\u000a        <Param name="name" val="code_10" valType="code" updates="None"/>\u000a        <Param name="Begin Routine" val="goRTFeedback = str(goCumRT/goRTCount)&#10;commissionRate = str(commissionCount/goTrialCount)&#10;omissionRate = str(omissionCount/goTrialCount)&#10;probabilityOfStop = str(stopSuccessCount/stopTrialCount)&#10;SSDFeedback = str((SSDLeft+SSDRight)/2)" valType="extendedCode" updates="constant"/>\u000a        <Param name="End Routine" val="" valType="extendedCode" updates="constant"/>\u000a        <Param name="End Experiment" val="" valType="extendedCode" updates="constant"/>\u000a        <Param name="Each Frame" val="" valType="extendedCode" updates="constant"/>\u000a      </CodeComponent>\u000a      <TextComponent name="text_5">\u000a        <Param name="opacity" val="1" valType="code" updates="constant"/>\u000a        <Param name="colorSpace" val="rgb" valType="str" updates="constant"/>\u000a        <Param name="name" val="text_5" valType="code" updates="None"/>\u000a        <Param name="wrapWidth" val="" valType="code" updates="constant"/>\u000a        <Param name="color" val="white" valType="str" updates="constant"/>\u000a        <Param name="text" val="$SSDFeedback" valType="str" updates="set every repeat"/>\u000a        <Param name="stopVal" val="" valType="code" updates="constant"/>\u000a        <Param name="durationEstim" val="" valType="code" updates="None"/>\u000a        <Param name="pos" val="[0, 0]" valType="code" updates="constant"/>\u000a        <Param name="flip" val="" valType="str" updates="constant"/>\u000a        <Param name="startEstim" val="" valType="code" updates="None"/>\u000a        <Param name="units" val="from exp settings" valType="str" updates="None"/>\u000a        <Param name="startType" val="time (s)" valType="str" updates="None"/>\u000a        <Param name="ori" val="0" valType="code" updates="constant"/>\u000a        <Param name="stopType" val="duration (s)" valType="str" updates="None"/>\u000a        <Param name="startVal" val="0.0" valType="code" updates="None"/>\u000a        <Param name="font" val="Arial" valType="str" updates="constant"/>\u000a        <Param name="letterHeight" val="0.1" valType="code" updates="constant"/>\u000a      </TextComponent>\u000a      <KeyboardComponent name="key_resp_3">\u000a        <Param name="correctAns" val="" valType="str" updates="constant"/>\u000a        <Param name="storeCorrect" val="False" valType="bool" updates="constant"/>\u000a        <Param name="name" val="key_resp_3" valType="code" updates="None"/>\u000a        <Param name="stopVal" val="" valType="code" updates="constant"/>\u000a        <Param name="durationEstim" val="" valType="code" updates="None"/>\u000a        <Param name="forceEndRoutine" val="True" valType="bool" updates="constant"/>\u000a        <Param name="startEstim" val="" valType="code" updates="None"/>\u000a        <Param name="discard previous" val="True" valType="bool" updates="constant"/>\u000a        <Param name="startType" val="time (s)" valType="str" updates="None"/>\u000a        <Param name="allowedKeys" val="'y','n','left','right','space'" valType="code" updates="set every repeat"/>\u000a        <Param name="stopType" val="duration (s)" valType="str" updates="None"/>\u000a        <Param name="startVal" val="0.0" valType="code" updates="None"/>\u000a        <Param name="store" val="last key" valType="str" updates="constant"/>\u000a      </KeyboardComponent>\u000a    </Routine>\u000a    <Routine name="ExitPrac">\u000a      <CodeComponent name="code_5">\u000a        <Param name="Begin Experiment" val="" valType="extendedCode" updates="constant"/>\u000a        <Param name="name" val="code_5" valType="code" updates="None"/>\u000a        <Param name="Begin Routine" val="" valType="extendedCode" updates="constant"/>\u000a        <Param name="End Routine" val="if resp.corr:&#10;    ReDoLoop.finished = True " valType="extendedCode" updates="constant"/>\u000a        <Param name="End Experiment" val="" valType="extendedCode" updates="constant"/>\u000a        <Param name="Each Frame" val="" valType="extendedCode" updates="constant"/>\u000a      </CodeComponent>\u000a    </Routine>\u000a    <Routine name="trial">\u000a      <KeyboardComponent name="resp">\u000a        <Param name="correctAns" val="$corrAns" valType="str" updates="constant"/>\u000a        <Param name="storeCorrect" val="True" valType="bool" updates="constant"/>\u000a        <Param name="name" val="resp" valType="code" updates="None"/>\u000a        <Param name="stopVal" val="1" valType="code" updates="constant"/>\u000a        <Param name="durationEstim" val="" valType="code" updates="None"/>\u000a        <Param name="forceEndRoutine" val="True" valType="bool" updates="constant"/>\u000a        <Param name="startEstim" val="" valType="code" updates="None"/>\u000a        <Param name="discard previous" val="True" valType="bool" updates="constant"/>\u000a        <Param name="startType" val="time (s)" valType="str" updates="None"/>\u000a        <Param name="allowedKeys" val="'u', 'i', 'j', 'k'" valType="code" updates="constant"/>\u000a        <Param name="stopType" val="duration (s)" valType="str" updates="None"/>\u000a        <Param name="startVal" val=".5" valType="code" updates="None"/>\u000a        <Param name="store" val="last key" valType="str" updates="constant"/>\u000a      </KeyboardComponent>\u000a      <TextComponent name="text">\u000a        <Param name="opacity" val="1" valType="code" updates="constant"/>\u000a        <Param name="colorSpace" val="rgb" valType="str" updates="constant"/>\u000a        <Param name="name" val="text" valType="code" updates="None"/>\u000a        <Param name="wrapWidth" val="" valType="code" updates="constant"/>\u000a        <Param name="color" val="white" valType="str" updates="constant"/>\u000a        <Param name="text" val="+" valType="str" updates="constant"/>\u000a        <Param name="stopVal" val="1.5" valType="code" updates="constant"/>\u000a        <Param name="durationEstim" val="" valType="code" updates="None"/>\u000a        <Param name="pos" val="[0, 0]" valType="code" updates="constant"/>\u000a        <Param name="flip" val="" valType="str" updates="constant"/>\u000a        <Param name="startEstim" val="" valType="code" updates="None"/>\u000a        <Param name="units" val="from exp settings" valType="str" updates="None"/>\u000a        <Param name="startType" val="time (s)" valType="str" updates="None"/>\u000a        <Param name="ori" val="0" valType="code" updates="constant"/>\u000a        <Param name="stopType" val="duration (s)" valType="str" updates="None"/>\u000a        <Param name="startVal" val="0.0" valType="code" updates="None"/>\u000a        <Param name="font" val="Arial" valType="str" updates="constant"/>\u000a        <Param name="letterHeight" val="1" valType="code" updates="constant"/>\u000a      </TextComponent>\u000a      <ImageComponent name="image_2">\u000a        <Param name="opacity" val="1" valType="code" updates="constant"/>\u000a        <Param name="flipVert" val="False" valType="bool" updates="constant"/>\u000a        <Param name="colorSpace" val="rgb" valType="str" updates="constant"/>\u000a        <Param name="name" val="image_2" valType="code" updates="None"/>\u000a        <Param name="color" val="$[1,1,1]" valType="str" updates="constant"/>\u000a        <Param name="stopVal" val="1.0" valType="code" updates="constant"/>\u000a        <Param name="durationEstim" val="" valType="code" updates="None"/>\u000a        <Param name="mask" val="None" valType="str" updates="constant"/>\u000a        <Param name="pos" val="$[xPos, yPos]" valType="code" updates="set every repeat"/>\u000a        <Param name="interpolate" val="linear" valType="str" updates="constant"/>\u000a        <Param name="startEstim" val="" valType="code" updates="None"/>\u000a        <Param name="units" val="pix" valType="str" updates="None"/>\u000a        <Param name="texture resolution" val="128" valType="code" updates="constant"/>\u000a        <Param name="startType" val="time (s)" valType="str" updates="None"/>\u000a        <Param name="ori" val="0" valType="code" updates="constant"/>\u000a        <Param name="stopType" val="duration (s)" valType="str" updates="None"/>\u000a        <Param name="startVal" val=".5" valType="code" updates="None"/>\u000a        <Param name="flipHoriz" val="False" valType="bool" updates="constant"/>\u000a        <Param name="image" val="$currentStimulus" valType="str" updates="set every repeat"/>\u000a        <Param name="size" val="[151, 151]" valType="code" updates="constant"/>\u000a      </ImageComponent>\u000a    </Routine>\u000a    <Routine name="newStopStim">\u000a      <CodeComponent name="code_7">\u000a        <Param name="Begin Experiment" val="" valType="extendedCode" updates="constant"/>\u000a        <Param name="name" val="code_7" valType="code" updates="None"/>\u000a        <Param name="Begin Routine" val="currentStopTrial = stopTrialList.pop(0)&#10;currentGoStim = currentStopTrial['fileName']&#10;&#10;if xPosGoStim == -200:&#10;    SSD = SSDLeft + 500&#10;else:&#10;    SSD = SSDRight + 500" valType="extendedCode" updates="constant"/>\u000a        <Param name="End Routine" val="" valType="extendedCode" updates="constant"/>\u000a        <Param name="End Experiment" val="" valType="extendedCode" updates="constant"/>\u000a        <Param name="Each Frame" val="" valType="extendedCode" updates="constant"/>\u000a      </CodeComponent>\u000a    </Routine>\u000a    <Routine name="Blank">\u000a      <TextComponent name="text_2">\u000a        <Param name="opacity" val="1" valType="code" updates="constant"/>\u000a        <Param name="colorSpace" val="rgb" valType="str" updates="constant"/>\u000a        <Param name="name" val="text_2" valType="code" updates="None"/>\u000a        <Param name="wrapWidth" val="" valType="code" updates="constant"/>\u000a        <Param name="color" val="white" valType="str" updates="constant"/>\u000a        <Param name="text" val="" valType="str" updates="constant"/>\u000a        <Param name="stopVal" val=".5" valType="code" updates="constant"/>\u000a        <Param name="durationEstim" val="" valType="code" updates="None"/>\u000a        <Param name="pos" val="[0, 0]" valType="code" updates="constant"/>\u000a        <Param name="flip" val="" valType="str" updates="constant"/>\u000a        <Param name="startEstim" val="" valType="code" updates="None"/>\u000a        <Param name="units" val="from exp settings" valType="str" updates="None"/>\u000a        <Param name="startType" val="time (s)" valType="str" updates="None"/>\u000a        <Param name="ori" val="0" valType="code" updates="constant"/>\u000a        <Param name="stopType" val="duration (s)" valType="str" updates="None"/>\u000a        <Param name="startVal" val="0" valType="code" updates="None"/>\u000a        <Param name="font" val="Arial" valType="str" updates="constant"/>\u000a        <Param name="letterHeight" val="0.1" valType="code" updates="constant"/>\u000a      </TextComponent>\u000a    </Routine>\u000a    <Routine name="StimSetup">\u000a      <CodeComponent name="code">\u000a        <Param name="Begin Experiment" val="from copy import deepcopy&#10;colors = ['yellow', 'white', 'orange', 'magenta', 'green', 'gray', 'cyan', 'blue']&#10;shapes = ['triangle', 'square', 'line', 'invertedtriangle', 'hexagon', 'diamond', 'cross', 'circle']&#10;rewards = [0.50, 1.00, 2.00, 4.00] * 2&#10;conditions = ['go', 'go', 'go', 'go', 'stop', 'stop', 'stop', 'stop']&#10;trialDetailsList = []&#10;learningTrialList = []&#10;&#10;shuffle(colors)&#10;shuffle(shapes)&#10;&#10;for i, color in enumerate(colors): # cycle through each color and keep track of an index number&#10;    trialDetails = {} # a dictionary of key-value pairs&#10;    trialDetails['fileName'] = shapes[i] + color + '.gif'&#10;    trialDetails['reward'] = rewards[i]&#10;    trialDetails['condition'] = conditions[i]&#10;    trialDetailsList.append(trialDetails)&#10;&#10;shuffle(trialDetailsList) # do this now to ensure that order of presentation of rewards and conditions is also shuffled&#10;&#10;conditionOne = trialDetailsList[0]&#10;conditionTwo = trialDetailsList[1]&#10;conditionThree = trialDetailsList[2]&#10;conditionFour = trialDetailsList[3]&#10;conditionFive = trialDetailsList[4]&#10;conditionSix = trialDetailsList[5]&#10;conditionSeven = trialDetailsList[6]&#10;conditionEight = trialDetailsList[7]&#10;&#10;numLearningTrials = 400&#10;numLearningRepetitions = 50&#10;for k in range(1, numLearningRepetitions + 1):&#10;    learningTrialList.append(conditionOne)&#10;    learningTrialList.append(conditionTwo)&#10;    learningTrialList.append(conditionThree)&#10;    learningTrialList.append(conditionFour)&#10;    learningTrialList.append(conditionFive)&#10;    learningTrialList.append(conditionSix)&#10;    learningTrialList.append(conditionSeven)&#10;    learningTrialList.append(conditionEight)&#10;&#10;shuffle(learningTrialList)&#10;&#10;stopTaskTrials = 272&#10;stopTrialsPerStopStim = 26&#10;goTrialsPerStopStim = 8&#10;goTrialsPerGoStim = 34&#10;numStim = 8&#10;stopTrialList = []&#10;&#10;if conditionOne['condition'] == 'go':&#10;    conditionOne['stopOrGo'] = 'go'&#10;    for i in range(1, goTrialsPerGoStim + 1):&#10;        stopTrialList.append(conditionOne)&#10;else:&#10;    for j in range(1, goTrialsPerStopStim + 1):&#10;        conditionOne['stopOrGo'] = 'go'&#10;        stopTrialList.append(deepcopy(conditionOne))&#10;    for i in range(1, stopTrialsPerStopStim + 1):&#10;        conditionOne['stopOrGo'] = 'stop'&#10;        stopTrialList.append(deepcopy(conditionOne))&#10;if conditionTwo['condition'] == 'go':&#10;    conditionTwo['stopOrGo'] = 'go'&#10;    for i in range(1, goTrialsPerGoStim + 1):&#10;        stopTrialList.append(conditionTwo)&#10;else:&#10;    for j in range(1, goTrialsPerStopStim + 1):&#10;        conditionTwo['stopOrGo'] = 'go'&#10;        stopTrialList.append(deepcopy(conditionTwo))&#10;    for i in range(1,  stopTrialsPerStopStim + 1):&#10;        conditionTwo['stopOrGo'] = 'stop'&#10;        stopTrialList.append(deepcopy(conditionTwo))&#10;if conditionThree['condition'] == 'go':&#10;    conditionThree['stopOrGo'] = 'go'&#10;    for i in range(1, goTrialsPerGoStim + 1):&#10;        stopTrialList.append(conditionThree)&#10;else:&#10;    for j in range(1, goTrialsPerStopStim + 1):&#10;        conditionThree['stopOrGo'] = 'go'&#10;        stopTrialList.append(deepcopy(conditionThree))&#10;    for i in range(1, stopTrialsPerStopStim + 1):&#10;        conditionThree['stopOrGo'] = 'stop'&#10;        stopTrialList.append(deepcopy(conditionThree))&#10;if conditionFour['condition'] == 'go':&#10;    conditionFour['stopOrGo'] = 'go'&#10;    for i in range(1, goTrialsPerGoStim + 1):&#10;        stopTrialList.append(conditionFour)&#10;else:&#10;    for j in range(1, goTrialsPerStopStim + 1):&#10;        conditionFour['stopOrGo'] = 'go'&#10;        stopTrialList.append(deepcopy(conditionFour))&#10;    for i in range(1, stopTrialsPerStopStim + 1):&#10;        conditionFour['stopOrGo'] = 'stop'&#10;        stopTrialList.append(deepcopy(conditionFour))&#10;if conditionFive['condition'] == 'go':&#10;    conditionFive['stopOrGo'] = 'go'&#10;    for i in range(1, goTrialsPerGoStim + 1):&#10;        stopTrialList.append(conditionFive)&#10;else:&#10;    for j in range(1, goTrialsPerStopStim + 1):&#10;        conditionFive['stopOrGo'] = 'go'&#10;        stopTrialList.append(deepcopy(conditionFive))&#10;    for i in range(1, stopTrialsPerStopStim + 1):&#10;        conditionFive['stopOrGo'] = 'stop'&#10;        stopTrialList.append(deepcopy(conditionFive))&#10;if conditionSix['condition'] == 'go':&#10;    conditionSix['stopOrGo'] = 'go'&#10;    for i in range(1, goTrialsPerGoStim + 1):&#10;        stopTrialList.append(conditionSix)&#10;else:&#10;    for j in range(1, stopTrialsPerStopStim + 1):&#10;        conditionSix['stopOrGo'] = 'go'&#10;        stopTrialList.append(deepcopy(conditionSix))&#10;    for i in range(1, goTrialsPerStopStim + 1):&#10;        conditionSix['stopOrGo'] = 'stop'&#10;        stopTrialList.append(deepcopy(conditionSix))&#10;if conditionSeven['condition'] == 'go':&#10;    conditionSeven['stopOrGo'] = 'go'&#10;    for i in range(1, goTrialsPerGoStim + 1):&#10;        stopTrialList.append(conditionSeven)&#10;else:&#10;    for j in range(1, goTrialsPerStopStim + 1):&#10;        conditionSeven['stopOrGo'] = 'go'&#10;        stopTrialList.append(deepcopy(conditionSeven))&#10;    for i in range(1, stopTrialsPerStopStim + 1):&#10;        conditionSeven['stopOrGo'] = 'stop'&#10;        stopTrialList.append(deepcopy(conditionSeven))&#10;if conditionEight['condition'] == 'go':&#10;    conditionEight['stopOrGo'] = 'go'&#10;    for i in range(1, goTrialsPerGoStim + 1):&#10;        stopTrialList.append(conditionEight)&#10;else:&#10;    for j in range(1, goTrialsPerStopStim + 1):&#10;        conditionEight['stopOrGo'] = 'go'&#10;        stopTrialList.append(deepcopy(conditionEight))&#10;    for i in range(1, stopTrialsPerStopStim + 1):&#10;        conditionEight['stopOrGo'] = 'stop'&#10;        stopTrialList.append(deepcopy(conditionEight))&#10;&#10;shuffle(stopTrialList)" valType="extendedCode" updates="constant"/>\u000a        <Param name="name" val="code" valType="code" updates="None"/>\u000a        <Param name="Begin Routine" val="" valType="extendedCode" updates="constant"/>\u000a        <Param name="End Routine" val="" valType="extendedCode" updates="constant"/>\u000a        <Param name="End Experiment" val="" valType="extendedCode" updates="constant"/>\u000a        <Param name="Each Frame" val="" valType="extendedCode" updates="constant"/>\u000a      </CodeComponent>\u000a    </Routine>\u000a    <Routine name="instrMain">\u000a      <TextComponent name="instr2">\u000a        <Param name="opacity" val="1" valType="code" updates="constant"/>\u000a        <Param name="colorSpace" val="rgb" valType="str" updates="constant"/>\u000a        <Param name="name" val="instr2" valType="code" updates="constant"/>\u000a        <Param name="wrapWidth" val="" valType="code" updates="constant"/>\u000a        <Param name="color" val="white" valType="str" updates="constant"/>\u000a        <Param name="text" val="A shape stimulus will appear on every trial. &#10;&#10;If it appears in the upper right quadrant, PRESS Y&#10;&#10;If it appears in the lower right quadrant, PRESS H&#10;&#10;If it appears in the lower left quadrant, PRESS G&#10;&#10;If it appears in the upper left quadrant, PRESS T&#10;&#10;Press any key when you are ready to proceed. " valType="str" updates="constant"/>\u000a        <Param name="stopVal" val="" valType="code" updates="constant"/>\u000a        <Param name="durationEstim" val="" valType="code" updates="None"/>\u000a        <Param name="pos" val="[0, 0]" valType="code" updates="constant"/>\u000a        <Param name="flip" val="" valType="str" updates="constant"/>\u000a        <Param name="startEstim" val="" valType="code" updates="None"/>\u000a        <Param name="units" val="from exp settings" valType="str" updates="None"/>\u000a        <Param name="startType" val="time (s)" valType="str" updates="None"/>\u000a        <Param name="ori" val="0" valType="code" updates="constant"/>\u000a        <Param name="stopType" val="duration (s)" valType="str" updates="None"/>\u000a        <Param name="startVal" val="0.0" valType="code" updates="None"/>\u000a        <Param name="font" val="Arial" valType="str" updates="constant"/>\u000a        <Param name="letterHeight" val="0.075" valType="code" updates="constant"/>\u000a      </TextComponent>\u000a      <KeyboardComponent name="ok2">\u000a        <Param name="correctAns" val="" valType="str" updates="constant"/>\u000a        <Param name="storeCorrect" val="False" valType="bool" updates="constant"/>\u000a        <Param name="name" val="ok2" valType="code" updates="None"/>\u000a        <Param name="stopVal" val="" valType="code" updates="constant"/>\u000a        <Param name="durationEstim" val="" valType="code" updates="None"/>\u000a        <Param name="forceEndRoutine" val="True" valType="bool" updates="constant"/>\u000a        <Param name="startEstim" val="" valType="code" updates="None"/>\u000a        <Param name="discard previous" val="True" valType="bool" updates="constant"/>\u000a        <Param name="startType" val="time (s)" valType="str" updates="None"/>\u000a        <Param name="allowedKeys" val="" valType="code" updates="constant"/>\u000a        <Param name="stopType" val="duration (s)" valType="str" updates="None"/>\u000a        <Param name="startVal" val="0.0" valType="code" updates="None"/>\u000a        <Param name="store" val="nothing" valType="str" updates="constant"/>\u000a      </KeyboardComponent>\u000a    </Routine>\u000a    <Routine name="feedback">\u000a      <CodeComponent name="message">\u000a        <Param name="Begin Experiment" val="#message variable just needs some value at start&#10;message=0" valType="extendedCode" updates="constant"/>\u000a        <Param name="name" val="message" valType="code" updates="None"/>\u000a        <Param name="Begin Routine" val="import random&#10;&#10;displayReward = random.randrange(1, 6)&#10;&#10;if resp.corr:#stored on last run routine&#10;    if displayReward == 1:&#10;            message = &quot;You won $&quot; + str(0);&#10;    else: &#10;            currentReward = currentLearningTrial['reward']&#10;            message = &quot;You won $&quot; + str(currentReward + (random.randrange(-25, 26)*.01))&#10;elif resp.keys is None: #or len(key_resp.keys)&lt;1:&#10;#elif resp.rt == 0:&#10;    message =&quot;Too Slow&quot;&#10;else:&#10;  message=&quot;Wrong&quot;" valType="extendedCode" updates="constant"/>\u000a        <Param name="End Routine" val="" valType="extendedCode" updates="constant"/>\u000a        <Param name="End Experiment" val="" valType="extendedCode" updates="constant"/>\u000a        <Param name="Each Frame" val="" valType="extendedCode" updates="constant"/>\u000a      </CodeComponent>\u000a      <TextComponent name="feedback_2">\u000a        <Param name="opacity" val="1" valType="code" updates="constant"/>\u000a        <Param name="colorSpace" val="rgb" valType="str" updates="constant"/>\u000a        <Param name="name" val="feedback_2" valType="code" updates="constant"/>\u000a        <Param name="wrapWidth" val="" valType="code" updates="constant"/>\u000a        <Param name="color" val="$[1,1,1]" valType="str" updates="constant"/>\u000a        <Param name="text" val="$message" valType="str" updates="set every repeat"/>\u000a        <Param name="stopVal" val="1.0" valType="code" updates="constant"/>\u000a        <Param name="durationEstim" val="" valType="code" updates="None"/>\u000a        <Param name="pos" val="[0, 0]" valType="code" updates="constant"/>\u000a        <Param name="flip" val="" valType="str" updates="constant"/>\u000a        <Param name="startEstim" val="" valType="code" updates="None"/>\u000a        <Param name="units" val="from exp settings" valType="str" updates="None"/>\u000a        <Param name="startType" val="time (s)" valType="str" updates="None"/>\u000a        <Param name="ori" val="0" valType="code" updates="constant"/>\u000a        <Param name="stopType" val="duration (s)" valType="str" updates="None"/>\u000a        <Param name="startVal" val="0.0" valType="code" updates="None"/>\u000a        <Param name="font" val="Arial" valType="str" updates="constant"/>\u000a        <Param name="letterHeight" val=".2" valType="code" updates="constant"/>\u000a      </TextComponent>\u000a      <ImageComponent name="image">\u000a        <Param name="opacity" val="1" valType="code" updates="constant"/>\u000a        <Param name="flipVert" val="False" valType="bool" updates="constant"/>\u000a        <Param name="colorSpace" val="rgb" valType="str" updates="constant"/>\u000a        <Param name="name" val="image" valType="code" updates="None"/>\u000a        <Param name="color" val="$[1,1,1]" valType="str" updates="constant"/>\u000a        <Param name="stopVal" val="1.0" valType="code" updates="constant"/>\u000a        <Param name="durationEstim" val="" valType="code" updates="None"/>\u000a        <Param name="mask" val="None" valType="str" updates="constant"/>\u000a        <Param name="pos" val="$[xPos, yPos]" valType="code" updates="set every repeat"/>\u000a        <Param name="interpolate" val="linear" valType="str" updates="constant"/>\u000a        <Param name="startEstim" val="" valType="code" updates="None"/>\u000a        <Param name="units" val="pix" valType="str" updates="None"/>\u000a        <Param name="texture resolution" val="128" valType="code" updates="constant"/>\u000a        <Param name="startType" val="time (s)" valType="str" updates="None"/>\u000a        <Param name="ori" val="0" valType="code" updates="constant"/>\u000a        <Param name="stopType" val="duration (s)" valType="str" updates="None"/>\u000a        <Param name="startVal" val="0.0" valType="code" updates="None"/>\u000a        <Param name="flipHoriz" val="False" valType="bool" updates="constant"/>\u000a        <Param name="image" val="$currentStimulus" valType="str" updates="set every repeat"/>\u000a        <Param name="size" val="[151, 151]" valType="code" updates="constant"/>\u000a      </ImageComponent>\u000a    </Routine>\u000a    <Routine name="Bank"/>\u000a    <Routine name="StopTrial">\u000a      <SoundComponent name="sound_1">\u000a        <Param name="sound" val="900" valType="str" updates="constant"/>\u000a        <Param name="volume" val="1" valType="code" updates="constant"/>\u000a        <Param name="name" val="sound_1" valType="code" updates="None"/>\u000a        <Param name="stopVal" val=".2" valType="code" updates="constant"/>\u000a        <Param name="durationEstim" val="" valType="code" updates="None"/>\u000a        <Param name="startEstim" val=".75" valType="code" updates="None"/>\u000a        <Param name="startType" val="time (s)" valType="str" updates="None"/>\u000a        <Param name="stopType" val="duration (s)" valType="str" updates="None"/>\u000a        <Param name="startVal" val="750" valType="code" updates="None"/>\u000a      </SoundComponent>\u000a      <TextComponent name="text_3">\u000a        <Param name="opacity" val="1" valType="code" updates="constant"/>\u000a        <Param name="colorSpace" val="rgb" valType="str" updates="constant"/>\u000a        <Param name="name" val="text_3" valType="code" updates="None"/>\u000a        <Param name="wrapWidth" val="" valType="code" updates="constant"/>\u000a        <Param name="color" val="white" valType="str" updates="constant"/>\u000a        <Param name="text" val="|" valType="str" updates="constant"/>\u000a        <Param name="stopVal" val="1.5" valType="code" updates="constant"/>\u000a        <Param name="durationEstim" val="" valType="code" updates="None"/>\u000a        <Param name="pos" val="[0, 0]" valType="code" updates="constant"/>\u000a        <Param name="flip" val="" valType="str" updates="constant"/>\u000a        <Param name="startEstim" val="" valType="code" updates="None"/>\u000a        <Param name="units" val="from exp settings" valType="str" updates="None"/>\u000a        <Param name="startType" val="time (s)" valType="str" updates="None"/>\u000a        <Param name="ori" val="0" valType="code" updates="constant"/>\u000a        <Param name="stopType" val="duration (s)" valType="str" updates="None"/>\u000a        <Param name="startVal" val="0.0" valType="code" updates="None"/>\u000a        <Param name="font" val="Arial" valType="str" updates="constant"/>\u000a        <Param name="letterHeight" val="4" valType="code" updates="constant"/>\u000a      </TextComponent>\u000a      <ImageComponent name="image_3">\u000a        <Param name="opacity" val="1" valType="code" updates="constant"/>\u000a        <Param name="flipVert" val="False" valType="bool" updates="constant"/>\u000a        <Param name="colorSpace" val="rgb" valType="str" updates="constant"/>\u000a        <Param name="name" val="image_3" valType="code" updates="None"/>\u000a        <Param name="color" val="$[1,1,1]" valType="str" updates="constant"/>\u000a        <Param name="stopVal" val="1.0" valType="code" updates="constant"/>\u000a        <Param name="durationEstim" val="" valType="code" updates="None"/>\u000a        <Param name="mask" val="None" valType="str" updates="constant"/>\u000a        <Param name="pos" val="$[xPosGoStim, yPosGoStim]" valType="code" updates="set every repeat"/>\u000a        <Param name="interpolate" val="linear" valType="str" updates="constant"/>\u000a        <Param name="startEstim" val="" valType="code" updates="None"/>\u000a        <Param name="units" val="pix" valType="str" updates="None"/>\u000a        <Param name="texture resolution" val="128" valType="code" updates="constant"/>\u000a        <Param name="startType" val="time (s)" valType="str" updates="None"/>\u000a        <Param name="ori" val="0" valType="code" updates="constant"/>\u000a        <Param name="stopType" val="duration (s)" valType="str" updates="None"/>\u000a        <Param name="startVal" val=".5" valType="code" updates="None"/>\u000a        <Param name="flipHoriz" val="False" valType="bool" updates="constant"/>\u000a        <Param name="image" val="$currentGoStim" valType="str" updates="set every repeat"/>\u000a        <Param name="size" val="[151, 151]" valType="code" updates="constant"/>\u000a      </ImageComponent>\u000a      <KeyboardComponent name="goResp">\u000a        <Param name="correctAns" val="$corrGoResp" valType="str" updates="constant"/>\u000a        <Param name="storeCorrect" val="True" valType="bool" updates="constant"/>\u000a        <Param name="name" val="goResp" valType="code" updates="None"/>\u000a        <Param name="stopVal" val="1" valType="code" updates="constant"/>\u000a        <Param name="durationEstim" val="" valType="code" updates="None"/>\u000a        <Param name="forceEndRoutine" val="False" valType="bool" updates="constant"/>\u000a        <Param name="startEstim" val="" valType="code" updates="None"/>\u000a        <Param name="discard previous" val="True" valType="bool" updates="constant"/>\u000a        <Param name="startType" val="time (s)" valType="str" updates="None"/>\u000a        <Param name="allowedKeys" val="'z','m'" valType="code" updates="constant"/>\u000a        <Param name="stopType" val="duration (s)" valType="str" updates="None"/>\u000a        <Param name="startVal" val=".5" valType="code" updates="None"/>\u000a        <Param name="store" val="first key" valType="str" updates="constant"/>\u000a      </KeyboardComponent>\u000a    </Routine>\u000a  </Routines>\u000a  <Flow>\u000a    <Routine name="StimSetup"/>\u000a    <Routine name="instrPractice"/>\u000a    <LoopInitiator loopType="TrialHandler" name="Blocks">\u000a      <Param name="conditionsFile" val="" valType="str" updates="None"/>\u000a      <Param name="name" val="Blocks" valType="code" updates="None"/>\u000a      <Param name="isTrials" val="True" valType="bool" updates="None"/>\u000a      <Param name="random seed" val="" valType="code" updates="None"/>\u000a      <Param name="loopType" val="sequential" valType="str" updates="None"/>\u000a      <Param name="nReps" val="0" valType="code" updates="None"/>\u000a      <Param name="endPoints" val="[0, 1]" valType="num" updates="None"/>\u000a      <Param name="conditions" val="None" valType="str" updates="None"/>\u000a      <Param name="Selected rows" val="" valType="str" updates="None"/>\u000a    </LoopInitiator>\u000a    <Routine name="ResetAtBlock"/>\u000a    <LoopInitiator loopType="TrialHandler" name="trials">\u000a      <Param name="conditionsFile" val="TrialtypesLearning.xlsx" valType="str" updates="None"/>\u000a      <Param name="name" val="trials" valType="code" updates="None"/>\u000a      <Param name="isTrials" val="True" valType="bool" updates="None"/>\u000a      <Param name="random seed" val="" valType="code" updates="None"/>\u000a      <Param name="loopType" val="fullRandom" valType="str" updates="None"/>\u000a      <Param name="nReps" val="25" valType="num" updates="None"/>\u000a      <Param name="endPoints" val="[0, 1]" valType="num" updates="None"/>\u000a      <Param name="conditions" val="[{u'xPos': 200, u'corrAns': u'h', u'yPos': 200}, {u'xPos': -200, u'corrAns': u'g', u'yPos': 200}, {u'xPos': 200, u'corrAns': u'n', u'yPos': -200}, {u'xPos': -200, u'corrAns': u'b', u'yPos': -200}]" valType="str" updates="None"/>\u000a      <Param name="Selected rows" val="" valType="str" updates="None"/>\u000a    </LoopInitiator>\u000a    <Routine name="NewStim"/>\u000a    <LoopInitiator loopType="TrialHandler" name="ReDoLoopMain">\u000a      <Param name="conditionsFile" val="" valType="str" updates="None"/>\u000a      <Param name="name" val="ReDoLoopMain" valType="code" updates="None"/>\u000a      <Param name="isTrials" val="False" valType="bool" updates="None"/>\u000a      <Param name="random seed" val="" valType="code" updates="None"/>\u000a      <Param name="loopType" val="random" valType="str" updates="None"/>\u000a      <Param name="nReps" val="999" valType="code" updates="None"/>\u000a      <Param name="endPoints" val="[0, 1]" valType="num" updates="None"/>\u000a      <Param name="conditions" val="None" valType="str" updates="None"/>\u000a      <Param name="Selected rows" val="" valType="str" updates="None"/>\u000a    </LoopInitiator>\u000a    <Routine name="trial"/>\u000a    <Routine name="feedback"/>\u000a    <Routine name="Blank"/>\u000a    <Routine name="ExitMain"/>\u000a    <LoopTerminator name="ReDoLoopMain"/>\u000a    <LoopTerminator name="trials"/>\u000a    <LoopTerminator name="Blocks"/>\u000a    <Routine name="instrStopPrac"/>\u000a    <LoopInitiator loopType="TrialHandler" name="StopBlocks">\u000a      <Param name="conditionsFile" val="" valType="str" updates="None"/>\u000a      <Param name="name" val="StopBlocks" valType="code" updates="None"/>\u000a      <Param name="isTrials" val="True" valType="bool" updates="None"/>\u000a      <Param name="random seed" val="" valType="code" updates="None"/>\u000a      <Param name="loopType" val="sequential" valType="str" updates="None"/>\u000a      <Param name="nReps" val="4" valType="code" updates="None"/>\u000a      <Param name="endPoints" val="[0, 1]" valType="num" updates="None"/>\u000a      <Param name="conditions" val="None" valType="str" updates="None"/>\u000a      <Param name="Selected rows" val="" valType="str" updates="None"/>\u000a    </LoopInitiator>\u000a    <Routine name="stopBlockSetup"/>\u000a    <LoopInitiator loopType="TrialHandler" name="StopTrials">\u000a      <Param name="conditionsFile" val="trialtypeStop.xlsx" valType="str" updates="None"/>\u000a      <Param name="name" val="StopTrials" valType="code" updates="None"/>\u000a      <Param name="isTrials" val="True" valType="bool" updates="None"/>\u000a      <Param name="random seed" val="" valType="code" updates="None"/>\u000a      <Param name="loopType" val="fullRandom" valType="str" updates="None"/>\u000a      <Param name="nReps" val="2" valType="code" updates="None"/>\u000a      <Param name="endPoints" val="[0, 1]" valType="num" updates="None"/>\u000a      <Param name="conditions" val="[{u'corrGoResp': u'z', u'yPosGoStim': 0, u'xPosGoStim': -200}, {u'corrGoResp': u'm', u'yPosGoStim': 0, u'xPosGoStim': 200}]" valType="str" updates="None"/>\u000a      <Param name="Selected rows" val="" valType="str" updates="None"/>\u000a    </LoopInitiator>\u000a    <Routine name="newStopStim"/>\u000a    <Routine name="StopTrial"/>\u000a    <Routine name="blankStop"/>\u000a    <Routine name="SSDChange"/>\u000a    <LoopTerminator name="StopTrials"/>\u000a    <Routine name="endOfStopBlockFeedback"/>\u000a    <LoopTerminator name="StopBlocks"/>\u000a    <Routine name="End"/>\u000a  </Flow>\u000a</PsychoPy2experiment>\u000a
p41
sS'thisTrial'
p42
NsS'_exp'
p43
I305533200
sg11
S'StopBlocks'
p44
sg6
g7
sS'thisRepN'
p45
I0
sg19
I01
sg20
g21
sS'data'
p46
g1
(cpsychopy.data
DataHandler
p47
c__builtin__
dict
p48
(dp49
S'ran'
p50
cnumpy.ma.core
_mareconstruct
p51
(cnumpy.ma.core
MaskedArray
p52
cnumpy
ndarray
p53
(I0
tp54
S'b'
tRp55
(I1
(I1
I4
tg27
(S'f4'
I0
I1
tRp56
(I3
S'<'
NNNI-1
I-1
I0
tbI00
S'\x00\x00\x80?\x00\x00\x00\x00\x00\x00\x00\x00\x00\x00\x00\x00'
S'\x00\x00\x00\x00'
NtbsS'order'
p57
g51
(g52
g53
g54
S'b'
tRp58
(I1
(I1
I4
tg56
I00
S'\x00\x00\x00\x00\x00\x00\x00\x00\x00\x00\x00\x00\x00\x00\x00\x00'
S'\x00\x01\x01\x01'
NtbstRp59
(dp60
S'isNumeric'
p61
(dp62
g50
I01
sg57
I01
ssS'trials'
p63
g38
sS'dataTypes'
p64
(lp65
g50
ag57
asS'dataShape'
p66
(lp67
I1
aI4
asbsS'method'
p68
S'sequential'
p69
sS'sequenceIndices'
p70
cnumpy.core.multiarray
_reconstruct
p71
(g53
(I0
tS'b'
tRp72
(I1
(I1
I4
tg27
(S'i4'
I0
I1
tRp73
(I3
S'<'
NNNI-1
I-1
I0
tbI00
S'\x00\x00\x00\x00\x00\x00\x00\x00\x00\x00\x00\x00\x00\x00\x00\x00'
tbsS'finished'
p74
I00
sS'nReps'
p75
I4
sS'nRemaining'
p76
I3
sS'trialList'
p77
(lp78
NasS'seed'
p79
NsS'thisIndex'
p80
g26
(g73
S'\x00\x00\x00\x00'
tRp81
sS'thisN'
p82
I0
sS'thisTrialN'
p83
I0
sS'nTotal'
p84
I4
sS'_warnUseOfNext'
p85
I01
sbag1
(g37
g3
NtRp86
(dp87
g40
V<PsychoPy2experiment version="1.82.01" encoding="utf-8">\u000a  <Settings>\u000a    <Param name="Show mouse" val="False" valType="bool" updates="None"/>\u000a    <Param name="Data filename" val="u'data' + os.sep + '%s_%s' %(expInfo['participant'], expInfo['date'])" valType="code" updates="None"/>\u000a    <Param name="Monitor" val="testMonitor" valType="str" updates="None"/>\u000a    <Param name="Enable Escape" val="True" valType="bool" updates="None"/>\u000a    <Param name="color" val="black" valType="str" updates="None"/>\u000a    <Param name="Window size (pixels)" val="[1680, 1050]" valType="code" updates="None"/>\u000a    <Param name="Full-screen window" val="True" valType="bool" updates="None"/>\u000a    <Param name="colorSpace" val="rgb" valType="str" updates="None"/>\u000a    <Param name="Experiment info" val="{'participant':'', 'gender (m/f)':'', 'age':'', 'session':03}" valType="code" updates="None"/>\u000a    <Param name="Save csv file" val="False" valType="bool" updates="None"/>\u000a    <Param name="Show info dlg" val="True" valType="bool" updates="None"/>\u000a    <Param name="Save wide csv file" val="True" valType="bool" updates="None"/>\u000a    <Param name="Save psydat file" val="True" valType="bool" updates="None"/>\u000a    <Param name="expName" val="LearningTask" valType="str" updates="None"/>\u000a    <Param name="logging level" val="warning" valType="code" updates="None"/>\u000a    <Param name="blendMode" val="avg" valType="str" updates="None"/>\u000a    <Param name="Save excel file" val="True" valType="bool" updates="None"/>\u000a    <Param name="Units" val="use prefs" valType="str" updates="None"/>\u000a    <Param name="Save log file" val="True" valType="bool" updates="None"/>\u000a    <Param name="Screen" val="1" valType="num" updates="None"/>\u000a  </Settings>\u000a  <Routines>\u000a    <Routine name="stopBlockSetup">\u000a      <CodeComponent name="code_9">\u000a        <Param name="Begin Experiment" val="goCumRT = 0&#10;goRTCount = 0&#10;omissionCount = 0&#10;commissionCount = 0&#10;stopTrialCount = 0&#10;stopSuccessCount = 0&#10;goTrialCount = 0" valType="extendedCode" updates="constant"/>\u000a        <Param name="name" val="code_9" valType="code" updates="None"/>\u000a        <Param name="Begin Routine" val="" valType="extendedCode" updates="constant"/>\u000a        <Param name="End Routine" val="" valType="extendedCode" updates="constant"/>\u000a        <Param name="End Experiment" val="" valType="extendedCode" updates="constant"/>\u000a        <Param name="Each Frame" val="" valType="extendedCode" updates="constant"/>\u000a      </CodeComponent>\u000a    </Routine>\u000a    <Routine name="blankStop">\u000a      <TextComponent name="text_4">\u000a        <Param name="opacity" val="1" valType="code" updates="constant"/>\u000a        <Param name="colorSpace" val="rgb" valType="str" updates="constant"/>\u000a        <Param name="name" val="text_4" valType="code" updates="None"/>\u000a        <Param name="wrapWidth" val="" valType="code" updates="constant"/>\u000a        <Param name="color" val="white" valType="str" updates="constant"/>\u000a        <Param name="text" val="THIS IS THE BLANK SCREEN" valType="str" updates="constant"/>\u000a        <Param name="stopVal" val="1.5" valType="code" updates="constant"/>\u000a        <Param name="durationEstim" val="" valType="code" updates="None"/>\u000a        <Param name="pos" val="[0, 0]" valType="code" updates="constant"/>\u000a        <Param name="flip" val="" valType="str" updates="constant"/>\u000a        <Param name="startEstim" val="" valType="code" updates="None"/>\u000a        <Param name="units" val="from exp settings" valType="str" updates="None"/>\u000a        <Param name="startType" val="time (s)" valType="str" updates="None"/>\u000a        <Param name="ori" val="0" valType="code" updates="constant"/>\u000a        <Param name="stopType" val="duration (s)" valType="str" updates="None"/>\u000a        <Param name="startVal" val="0.0" valType="code" updates="None"/>\u000a        <Param name="font" val="Arial" valType="str" updates="constant"/>\u000a        <Param name="letterHeight" val="0.1" valType="code" updates="constant"/>\u000a      </TextComponent>\u000a    </Routine>\u000a    <Routine name="End">\u000a      <TextComponent name="text_6">\u000a        <Param name="opacity" val="1" valType="code" updates="constant"/>\u000a        <Param name="colorSpace" val="rgb" valType="str" updates="constant"/>\u000a        <Param name="name" val="text_6" valType="code" updates="None"/>\u000a        <Param name="wrapWidth" val="" valType="code" updates="constant"/>\u000a        <Param name="color" val="white" valType="str" updates="constant"/>\u000a        <Param name="text" val="This is the end, beautiful friend" valType="str" updates="constant"/>\u000a        <Param name="stopVal" val="5" valType="code" updates="constant"/>\u000a        <Param name="durationEstim" val="" valType="code" updates="None"/>\u000a        <Param name="pos" val="[0, 0]" valType="code" updates="constant"/>\u000a        <Param name="flip" val="" valType="str" updates="constant"/>\u000a        <Param name="startEstim" val="" valType="code" updates="None"/>\u000a        <Param name="units" val="from exp settings" valType="str" updates="None"/>\u000a        <Param name="startType" val="time (s)" valType="str" updates="None"/>\u000a        <Param name="ori" val="0" valType="code" updates="constant"/>\u000a        <Param name="stopType" val="duration (s)" valType="str" updates="None"/>\u000a        <Param name="startVal" val="0.0" valType="code" updates="None"/>\u000a        <Param name="font" val="Arial" valType="str" updates="constant"/>\u000a        <Param name="letterHeight" val="0.1" valType="code" updates="constant"/>\u000a      </TextComponent>\u000a    </Routine>\u000a    <Routine name="instrStopPrac">\u000a      <TextComponent name="instrStopText">\u000a        <Param name="opacity" val="1" valType="code" updates="constant"/>\u000a        <Param name="colorSpace" val="rgb" valType="str" updates="constant"/>\u000a        <Param name="name" val="instrStopText" valType="code" updates="None"/>\u000a        <Param name="wrapWidth" val="" valType="code" updates="constant"/>\u000a        <Param name="color" val="white" valType="str" updates="constant"/>\u000a        <Param name="text" val="A shape stimulus will appear on the left or right side of the screen&#10;&#10;If it appears on the left, press Z&#10;&#10;If it appears on the right, press M&#10;&#10;If you hear a tone, do not press anything on that trial" valType="str" updates="constant"/>\u000a        <Param name="stopVal" val="" valType="code" updates="constant"/>\u000a        <Param name="durationEstim" val="" valType="code" updates="None"/>\u000a        <Param name="pos" val="[0, 0]" valType="code" updates="constant"/>\u000a        <Param name="flip" val="" valType="str" updates="constant"/>\u000a        <Param name="startEstim" val="" valType="code" updates="None"/>\u000a        <Param name="units" val="from exp settings" valType="str" updates="None"/>\u000a        <Param name="startType" val="time (s)" valType="str" updates="None"/>\u000a        <Param name="ori" val="0" valType="code" updates="constant"/>\u000a        <Param name="stopType" val="duration (s)" valType="str" updates="None"/>\u000a        <Param name="startVal" val="0.0" valType="code" updates="None"/>\u000a        <Param name="font" val="Arial" valType="str" updates="constant"/>\u000a        <Param name="letterHeight" val="0.1" valType="code" updates="constant"/>\u000a      </TextComponent>\u000a      <KeyboardComponent name="key_resp_2">\u000a        <Param name="correctAns" val="" valType="str" updates="constant"/>\u000a        <Param name="storeCorrect" val="False" valType="bool" updates="constant"/>\u000a        <Param name="name" val="key_resp_2" valType="code" updates="None"/>\u000a        <Param name="stopVal" val="" valType="code" updates="constant"/>\u000a        <Param name="durationEstim" val="" valType="code" updates="None"/>\u000a        <Param name="forceEndRoutine" val="True" valType="bool" updates="constant"/>\u000a        <Param name="startEstim" val="" valType="code" updates="None"/>\u000a        <Param name="discard previous" val="True" valType="bool" updates="constant"/>\u000a        <Param name="startType" val="time (s)" valType="str" updates="None"/>\u000a        <Param name="allowedKeys" val="" valType="code" updates="constant"/>\u000a        <Param name="stopType" val="duration (s)" valType="str" updates="None"/>\u000a        <Param name="startVal" val="0.0" valType="code" updates="None"/>\u000a        <Param name="store" val="nothing" valType="str" updates="constant"/>\u000a      </KeyboardComponent>\u000a      <CodeComponent name="code_8">\u000a        <Param name="Begin Experiment" val="" valType="extendedCode" updates="constant"/>\u000a        <Param name="name" val="code_8" valType="code" updates="None"/>\u000a        <Param name="Begin Routine" val="InitSSD = 250&#10;SSDLeft = InitSSD&#10;SSDRight = InitSSD" valType="extendedCode" updates="constant"/>\u000a        <Param name="End Routine" val="" valType="extendedCode" updates="constant"/>\u000a        <Param name="End Experiment" val="" valType="extendedCode" updates="constant"/>\u000a        <Param name="Each Frame" val="" valType="extendedCode" updates="constant"/>\u000a      </CodeComponent>\u000a    </Routine>\u000a    <Routine name="ExitMain">\u000a      <CodeComponent name="code_6">\u000a        <Param name="Begin Experiment" val="" valType="extendedCode" updates="constant"/>\u000a        <Param name="name" val="code_6" valType="code" updates="None"/>\u000a        <Param name="Begin Routine" val="" valType="extendedCode" updates="constant"/>\u000a        <Param name="End Routine" val="if resp.corr:&#10;    ReDoLoopMain.finished = True" valType="extendedCode" updates="constant"/>\u000a        <Param name="End Experiment" val="" valType="extendedCode" updates="constant"/>\u000a        <Param name="Each Frame" val="" valType="extendedCode" updates="constant"/>\u000a      </CodeComponent>\u000a    </Routine>\u000a    <Routine name="ResetAtBlock">\u000a      <CodeComponent name="code_3">\u000a        <Param name="Begin Experiment" val="" valType="extendedCode" updates="constant"/>\u000a        <Param name="name" val="code_3" valType="code" updates="None"/>\u000a        <Param name="Begin Routine" val="Redo = 1" valType="extendedCode" updates="constant"/>\u000a        <Param name="End Routine" val="" valType="extendedCode" updates="constant"/>\u000a        <Param name="End Experiment" val="" valType="extendedCode" updates="constant"/>\u000a        <Param name="Each Frame" val="" valType="extendedCode" updates="constant"/>\u000a      </CodeComponent>\u000a    </Routine>\u000a    <Routine name="instrPractice">\u000a      <TextComponent name="instruct1">\u000a        <Param name="opacity" val="1" valType="code" updates="constant"/>\u000a        <Param name="colorSpace" val="rgb" valType="str" updates="constant"/>\u000a        <Param name="name" val="instruct1" valType="code" updates="constant"/>\u000a        <Param name="wrapWidth" val="" valType="code" updates="constant"/>\u000a        <Param name="color" val="white" valType="str" updates="constant"/>\u000a        <Param name="text" val="A shape stimulus will appear on every trial. &#10;&#10;If it appears in the upper right quadrant, PRESS I&#10;&#10;If it appears in the lower right quadrant, PRESS K&#10;&#10;If it appears in the lower left quadrant, PRESS J&#10;&#10;If it appears in the upper left quadrant, PRESS U&#10;&#10;Press any key when you are ready to proceed. " valType="str" updates="constant"/>\u000a        <Param name="stopVal" val="" valType="code" updates="constant"/>\u000a        <Param name="durationEstim" val="" valType="code" updates="None"/>\u000a        <Param name="pos" val="[0, 0]" valType="code" updates="constant"/>\u000a        <Param name="flip" val="" valType="str" updates="constant"/>\u000a        <Param name="startEstim" val="" valType="code" updates="None"/>\u000a        <Param name="units" val="from exp settings" valType="str" updates="None"/>\u000a        <Param name="startType" val="time (s)" valType="str" updates="None"/>\u000a        <Param name="ori" val="0" valType="code" updates="constant"/>\u000a        <Param name="stopType" val="duration (s)" valType="str" updates="None"/>\u000a        <Param name="startVal" val="0.0" valType="code" updates="None"/>\u000a        <Param name="font" val="Arial" valType="str" updates="constant"/>\u000a        <Param name="letterHeight" val="0.07" valType="code" updates="constant"/>\u000a      </TextComponent>\u000a      <KeyboardComponent name="ok1">\u000a        <Param name="correctAns" val="" valType="str" updates="constant"/>\u000a        <Param name="storeCorrect" val="False" valType="bool" updates="constant"/>\u000a        <Param name="name" val="ok1" valType="code" updates="None"/>\u000a        <Param name="stopVal" val="" valType="code" updates="constant"/>\u000a        <Param name="durationEstim" val="" valType="code" updates="None"/>\u000a        <Param name="forceEndRoutine" val="True" valType="bool" updates="constant"/>\u000a        <Param name="startEstim" val="" valType="code" updates="None"/>\u000a        <Param name="discard previous" val="True" valType="bool" updates="constant"/>\u000a        <Param name="startType" val="time (s)" valType="str" updates="None"/>\u000a        <Param name="allowedKeys" val="" valType="code" updates="constant"/>\u000a        <Param name="stopType" val="duration (s)" valType="str" updates="None"/>\u000a        <Param name="startVal" val="0.0" valType="code" updates="None"/>\u000a        <Param name="store" val="last key" valType="str" updates="constant"/>\u000a      </KeyboardComponent>\u000a    </Routine>\u000a    <Routine name="NewStim">\u000a      <CodeComponent name="code_4">\u000a        <Param name="Begin Experiment" val="" valType="extendedCode" updates="constant"/>\u000a        <Param name="name" val="code_4" valType="code" updates="None"/>\u000a        <Param name="Begin Routine" val="currentLearningTrial = learningTrialList.pop(0)&#10;currentStimulus = currentLearningTrial['fileName']&#10;" valType="extendedCode" updates="constant"/>\u000a        <Param name="End Routine" val="" valType="extendedCode" updates="constant"/>\u000a        <Param name="End Experiment" val="" valType="extendedCode" updates="constant"/>\u000a        <Param name="Each Frame" val="" valType="extendedCode" updates="constant"/>\u000a      </CodeComponent>\u000a    </Routine>\u000a    <Routine name="SSDChange">\u000a      <CodeComponent name="code_2">\u000a        <Param name="Begin Experiment" val="" valType="extendedCode" updates="constant"/>\u000a        <Param name="name" val="code_2" valType="code" updates="None"/>\u000a        <Param name="Begin Routine" val="if goResp.keys is None:&#10;    if xPosGoStim == -200:&#10;        SSDLeft = SSDLeft  + 50&#10;    if xPosGoStim == 200:&#10;        SSDRight = SSDRight + 50&#10;else:&#10;    if xPosGoStim == -200:&#10;        SSDLeft = SSDLeft - 50&#10;    if xPosGoStim == 200:&#10;        SSDRight = SSDRight - 50&#10;&#10;if currentStopTrial['stopOrGo'] == 'go':&#10;    goTrialCount = goTrialCount + 1&#10;&#10;if goResp.corr and currentStopTrial['stopOrGo'] == 'go':&#10;    goCumRT = goCumRT + goResp.rt&#10;    goRTCount = goRTCount + 1&#10;&#10;if currentStopTrial['stopOrGo'] == 'stop':&#10;    stopTrialCount = stopTrialCount + 1&#10;&#10;if currentStopTrial['stopOrGo'] == 'stop' and goResp.keys is None:&#10;    stopSuccessCount = stopSuccessCount + 1&#10;&#10;if goResp.keys is None and currentStopTrial['stopOrGo'] == 'go':&#10;    omissionCount = 0&#10;&#10;if goResp != corrGoResp:&#10;    commissionCount = commissionCount + 1" valType="extendedCode" updates="constant"/>\u000a        <Param name="End Routine" val="" valType="extendedCode" updates="constant"/>\u000a        <Param name="End Experiment" val="" valType="extendedCode" updates="constant"/>\u000a        <Param name="Each Frame" val="" valType="extendedCode" updates="constant"/>\u000a      </CodeComponent>\u000a    </Routine>\u000a    <Routine name="endOfStopBlockFeedback">\u000a      <CodeComponent name="code_10">\u000a        <Param name="Begin Experiment" val="" valType="extendedCode" updates="constant"/>\u000a        <Param name="name" val="code_10" valType="code" updates="None"/>\u000a        <Param name="Begin Routine" val="goRTFeedback = str(goCumRT/goRTCount)&#10;commissionRate = str(commissionCount/goTrialCount)&#10;omissionRate = str(omissionCount/goTrialCount)&#10;probabilityOfStop = str(stopSuccessCount/stopTrialCount)&#10;SSDFeedback = str((SSDLeft+SSDRight)/2)" valType="extendedCode" updates="constant"/>\u000a        <Param name="End Routine" val="" valType="extendedCode" updates="constant"/>\u000a        <Param name="End Experiment" val="" valType="extendedCode" updates="constant"/>\u000a        <Param name="Each Frame" val="" valType="extendedCode" updates="constant"/>\u000a      </CodeComponent>\u000a      <TextComponent name="text_5">\u000a        <Param name="opacity" val="1" valType="code" updates="constant"/>\u000a        <Param name="colorSpace" val="rgb" valType="str" updates="constant"/>\u000a        <Param name="name" val="text_5" valType="code" updates="None"/>\u000a        <Param name="wrapWidth" val="" valType="code" updates="constant"/>\u000a        <Param name="color" val="white" valType="str" updates="constant"/>\u000a        <Param name="text" val="$SSDFeedback" valType="str" updates="set every repeat"/>\u000a        <Param name="stopVal" val="" valType="code" updates="constant"/>\u000a        <Param name="durationEstim" val="" valType="code" updates="None"/>\u000a        <Param name="pos" val="[0, 0]" valType="code" updates="constant"/>\u000a        <Param name="flip" val="" valType="str" updates="constant"/>\u000a        <Param name="startEstim" val="" valType="code" updates="None"/>\u000a        <Param name="units" val="from exp settings" valType="str" updates="None"/>\u000a        <Param name="startType" val="time (s)" valType="str" updates="None"/>\u000a        <Param name="ori" val="0" valType="code" updates="constant"/>\u000a        <Param name="stopType" val="duration (s)" valType="str" updates="None"/>\u000a        <Param name="startVal" val="0.0" valType="code" updates="None"/>\u000a        <Param name="font" val="Arial" valType="str" updates="constant"/>\u000a        <Param name="letterHeight" val="0.1" valType="code" updates="constant"/>\u000a      </TextComponent>\u000a      <KeyboardComponent name="key_resp_3">\u000a        <Param name="correctAns" val="" valType="str" updates="constant"/>\u000a        <Param name="storeCorrect" val="False" valType="bool" updates="constant"/>\u000a        <Param name="name" val="key_resp_3" valType="code" updates="None"/>\u000a        <Param name="stopVal" val="" valType="code" updates="constant"/>\u000a        <Param name="durationEstim" val="" valType="code" updates="None"/>\u000a        <Param name="forceEndRoutine" val="True" valType="bool" updates="constant"/>\u000a        <Param name="startEstim" val="" valType="code" updates="None"/>\u000a        <Param name="discard previous" val="True" valType="bool" updates="constant"/>\u000a        <Param name="startType" val="time (s)" valType="str" updates="None"/>\u000a        <Param name="allowedKeys" val="'y','n','left','right','space'" valType="code" updates="set every repeat"/>\u000a        <Param name="stopType" val="duration (s)" valType="str" updates="None"/>\u000a        <Param name="startVal" val="0.0" valType="code" updates="None"/>\u000a        <Param name="store" val="last key" valType="str" updates="constant"/>\u000a      </KeyboardComponent>\u000a    </Routine>\u000a    <Routine name="ExitPrac">\u000a      <CodeComponent name="code_5">\u000a        <Param name="Begin Experiment" val="" valType="extendedCode" updates="constant"/>\u000a        <Param name="name" val="code_5" valType="code" updates="None"/>\u000a        <Param name="Begin Routine" val="" valType="extendedCode" updates="constant"/>\u000a        <Param name="End Routine" val="if resp.corr:&#10;    ReDoLoop.finished = True " valType="extendedCode" updates="constant"/>\u000a        <Param name="End Experiment" val="" valType="extendedCode" updates="constant"/>\u000a        <Param name="Each Frame" val="" valType="extendedCode" updates="constant"/>\u000a      </CodeComponent>\u000a    </Routine>\u000a    <Routine name="trial">\u000a      <KeyboardComponent name="resp">\u000a        <Param name="correctAns" val="$corrAns" valType="str" updates="constant"/>\u000a        <Param name="storeCorrect" val="True" valType="bool" updates="constant"/>\u000a        <Param name="name" val="resp" valType="code" updates="None"/>\u000a        <Param name="stopVal" val="1" valType="code" updates="constant"/>\u000a        <Param name="durationEstim" val="" valType="code" updates="None"/>\u000a        <Param name="forceEndRoutine" val="True" valType="bool" updates="constant"/>\u000a        <Param name="startEstim" val="" valType="code" updates="None"/>\u000a        <Param name="discard previous" val="True" valType="bool" updates="constant"/>\u000a        <Param name="startType" val="time (s)" valType="str" updates="None"/>\u000a        <Param name="allowedKeys" val="'u', 'i', 'j', 'k'" valType="code" updates="constant"/>\u000a        <Param name="stopType" val="duration (s)" valType="str" updates="None"/>\u000a        <Param name="startVal" val=".5" valType="code" updates="None"/>\u000a        <Param name="store" val="last key" valType="str" updates="constant"/>\u000a      </KeyboardComponent>\u000a      <TextComponent name="text">\u000a        <Param name="opacity" val="1" valType="code" updates="constant"/>\u000a        <Param name="colorSpace" val="rgb" valType="str" updates="constant"/>\u000a        <Param name="name" val="text" valType="code" updates="None"/>\u000a        <Param name="wrapWidth" val="" valType="code" updates="constant"/>\u000a        <Param name="color" val="white" valType="str" updates="constant"/>\u000a        <Param name="text" val="+" valType="str" updates="constant"/>\u000a        <Param name="stopVal" val="1.5" valType="code" updates="constant"/>\u000a        <Param name="durationEstim" val="" valType="code" updates="None"/>\u000a        <Param name="pos" val="[0, 0]" valType="code" updates="constant"/>\u000a        <Param name="flip" val="" valType="str" updates="constant"/>\u000a        <Param name="startEstim" val="" valType="code" updates="None"/>\u000a        <Param name="units" val="from exp settings" valType="str" updates="None"/>\u000a        <Param name="startType" val="time (s)" valType="str" updates="None"/>\u000a        <Param name="ori" val="0" valType="code" updates="constant"/>\u000a        <Param name="stopType" val="duration (s)" valType="str" updates="None"/>\u000a        <Param name="startVal" val="0.0" valType="code" updates="None"/>\u000a        <Param name="font" val="Arial" valType="str" updates="constant"/>\u000a        <Param name="letterHeight" val="1" valType="code" updates="constant"/>\u000a      </TextComponent>\u000a      <ImageComponent name="image_2">\u000a        <Param name="opacity" val="1" valType="code" updates="constant"/>\u000a        <Param name="flipVert" val="False" valType="bool" updates="constant"/>\u000a        <Param name="colorSpace" val="rgb" valType="str" updates="constant"/>\u000a        <Param name="name" val="image_2" valType="code" updates="None"/>\u000a        <Param name="color" val="$[1,1,1]" valType="str" updates="constant"/>\u000a        <Param name="stopVal" val="1.0" valType="code" updates="constant"/>\u000a        <Param name="durationEstim" val="" valType="code" updates="None"/>\u000a        <Param name="mask" val="None" valType="str" updates="constant"/>\u000a        <Param name="pos" val="$[xPos, yPos]" valType="code" updates="set every repeat"/>\u000a        <Param name="interpolate" val="linear" valType="str" updates="constant"/>\u000a        <Param name="startEstim" val="" valType="code" updates="None"/>\u000a        <Param name="units" val="pix" valType="str" updates="None"/>\u000a        <Param name="texture resolution" val="128" valType="code" updates="constant"/>\u000a        <Param name="startType" val="time (s)" valType="str" updates="None"/>\u000a        <Param name="ori" val="0" valType="code" updates="constant"/>\u000a        <Param name="stopType" val="duration (s)" valType="str" updates="None"/>\u000a        <Param name="startVal" val=".5" valType="code" updates="None"/>\u000a        <Param name="flipHoriz" val="False" valType="bool" updates="constant"/>\u000a        <Param name="image" val="$currentStimulus" valType="str" updates="set every repeat"/>\u000a        <Param name="size" val="[151, 151]" valType="code" updates="constant"/>\u000a      </ImageComponent>\u000a    </Routine>\u000a    <Routine name="newStopStim">\u000a      <CodeComponent name="code_7">\u000a        <Param name="Begin Experiment" val="" valType="extendedCode" updates="constant"/>\u000a        <Param name="name" val="code_7" valType="code" updates="None"/>\u000a        <Param name="Begin Routine" val="currentStopTrial = stopTrialList.pop(0)&#10;currentGoStim = currentStopTrial['fileName']&#10;&#10;if xPosGoStim == -200:&#10;    SSD = SSDLeft + 500&#10;else:&#10;    SSD = SSDRight + 500" valType="extendedCode" updates="constant"/>\u000a        <Param name="End Routine" val="" valType="extendedCode" updates="constant"/>\u000a        <Param name="End Experiment" val="" valType="extendedCode" updates="constant"/>\u000a        <Param name="Each Frame" val="" valType="extendedCode" updates="constant"/>\u000a      </CodeComponent>\u000a    </Routine>\u000a    <Routine name="Blank">\u000a      <TextComponent name="text_2">\u000a        <Param name="opacity" val="1" valType="code" updates="constant"/>\u000a        <Param name="colorSpace" val="rgb" valType="str" updates="constant"/>\u000a        <Param name="name" val="text_2" valType="code" updates="None"/>\u000a        <Param name="wrapWidth" val="" valType="code" updates="constant"/>\u000a        <Param name="color" val="white" valType="str" updates="constant"/>\u000a        <Param name="text" val="" valType="str" updates="constant"/>\u000a        <Param name="stopVal" val=".5" valType="code" updates="constant"/>\u000a        <Param name="durationEstim" val="" valType="code" updates="None"/>\u000a        <Param name="pos" val="[0, 0]" valType="code" updates="constant"/>\u000a        <Param name="flip" val="" valType="str" updates="constant"/>\u000a        <Param name="startEstim" val="" valType="code" updates="None"/>\u000a        <Param name="units" val="from exp settings" valType="str" updates="None"/>\u000a        <Param name="startType" val="time (s)" valType="str" updates="None"/>\u000a        <Param name="ori" val="0" valType="code" updates="constant"/>\u000a        <Param name="stopType" val="duration (s)" valType="str" updates="None"/>\u000a        <Param name="startVal" val="0" valType="code" updates="None"/>\u000a        <Param name="font" val="Arial" valType="str" updates="constant"/>\u000a        <Param name="letterHeight" val="0.1" valType="code" updates="constant"/>\u000a      </TextComponent>\u000a    </Routine>\u000a    <Routine name="StimSetup">\u000a      <CodeComponent name="code">\u000a        <Param name="Begin Experiment" val="from copy import deepcopy&#10;colors = ['yellow', 'white', 'orange', 'magenta', 'green', 'gray', 'cyan', 'blue']&#10;shapes = ['triangle', 'square', 'line', 'invertedtriangle', 'hexagon', 'diamond', 'cross', 'circle']&#10;rewards = [0.50, 1.00, 2.00, 4.00] * 2&#10;conditions = ['go', 'go', 'go', 'go', 'stop', 'stop', 'stop', 'stop']&#10;trialDetailsList = []&#10;learningTrialList = []&#10;&#10;shuffle(colors)&#10;shuffle(shapes)&#10;&#10;for i, color in enumerate(colors): # cycle through each color and keep track of an index number&#10;    trialDetails = {} # a dictionary of key-value pairs&#10;    trialDetails['fileName'] = shapes[i] + color + '.gif'&#10;    trialDetails['reward'] = rewards[i]&#10;    trialDetails['condition'] = conditions[i]&#10;    trialDetailsList.append(trialDetails)&#10;&#10;shuffle(trialDetailsList) # do this now to ensure that order of presentation of rewards and conditions is also shuffled&#10;&#10;conditionOne = trialDetailsList[0]&#10;conditionTwo = trialDetailsList[1]&#10;conditionThree = trialDetailsList[2]&#10;conditionFour = trialDetailsList[3]&#10;conditionFive = trialDetailsList[4]&#10;conditionSix = trialDetailsList[5]&#10;conditionSeven = trialDetailsList[6]&#10;conditionEight = trialDetailsList[7]&#10;&#10;numLearningTrials = 400&#10;numLearningRepetitions = 50&#10;for k in range(1, numLearningRepetitions + 1):&#10;    learningTrialList.append(conditionOne)&#10;    learningTrialList.append(conditionTwo)&#10;    learningTrialList.append(conditionThree)&#10;    learningTrialList.append(conditionFour)&#10;    learningTrialList.append(conditionFive)&#10;    learningTrialList.append(conditionSix)&#10;    learningTrialList.append(conditionSeven)&#10;    learningTrialList.append(conditionEight)&#10;&#10;shuffle(learningTrialList)&#10;&#10;stopTaskTrials = 272&#10;stopTrialsPerStopStim = 26&#10;goTrialsPerStopStim = 8&#10;goTrialsPerGoStim = 34&#10;numStim = 8&#10;stopTrialList = []&#10;&#10;if conditionOne['condition'] == 'go':&#10;    conditionOne['stopOrGo'] = 'go'&#10;    for i in range(1, goTrialsPerGoStim + 1):&#10;        stopTrialList.append(conditionOne)&#10;else:&#10;    for j in range(1, goTrialsPerStopStim + 1):&#10;        conditionOne['stopOrGo'] = 'go'&#10;        stopTrialList.append(deepcopy(conditionOne))&#10;    for i in range(1, stopTrialsPerStopStim + 1):&#10;        conditionOne['stopOrGo'] = 'stop'&#10;        stopTrialList.append(deepcopy(conditionOne))&#10;if conditionTwo['condition'] == 'go':&#10;    conditionTwo['stopOrGo'] = 'go'&#10;    for i in range(1, goTrialsPerGoStim + 1):&#10;        stopTrialList.append(conditionTwo)&#10;else:&#10;    for j in range(1, goTrialsPerStopStim + 1):&#10;        conditionTwo['stopOrGo'] = 'go'&#10;        stopTrialList.append(deepcopy(conditionTwo))&#10;    for i in range(1,  stopTrialsPerStopStim + 1):&#10;        conditionTwo['stopOrGo'] = 'stop'&#10;        stopTrialList.append(deepcopy(conditionTwo))&#10;if conditionThree['condition'] == 'go':&#10;    conditionThree['stopOrGo'] = 'go'&#10;    for i in range(1, goTrialsPerGoStim + 1):&#10;        stopTrialList.append(conditionThree)&#10;else:&#10;    for j in range(1, goTrialsPerStopStim + 1):&#10;        conditionThree['stopOrGo'] = 'go'&#10;        stopTrialList.append(deepcopy(conditionThree))&#10;    for i in range(1, stopTrialsPerStopStim + 1):&#10;        conditionThree['stopOrGo'] = 'stop'&#10;        stopTrialList.append(deepcopy(conditionThree))&#10;if conditionFour['condition'] == 'go':&#10;    conditionFour['stopOrGo'] = 'go'&#10;    for i in range(1, goTrialsPerGoStim + 1):&#10;        stopTrialList.append(conditionFour)&#10;else:&#10;    for j in range(1, goTrialsPerStopStim + 1):&#10;        conditionFour['stopOrGo'] = 'go'&#10;        stopTrialList.append(deepcopy(conditionFour))&#10;    for i in range(1, stopTrialsPerStopStim + 1):&#10;        conditionFour['stopOrGo'] = 'stop'&#10;        stopTrialList.append(deepcopy(conditionFour))&#10;if conditionFive['condition'] == 'go':&#10;    conditionFive['stopOrGo'] = 'go'&#10;    for i in range(1, goTrialsPerGoStim + 1):&#10;        stopTrialList.append(conditionFive)&#10;else:&#10;    for j in range(1, goTrialsPerStopStim + 1):&#10;        conditionFive['stopOrGo'] = 'go'&#10;        stopTrialList.append(deepcopy(conditionFive))&#10;    for i in range(1, stopTrialsPerStopStim + 1):&#10;        conditionFive['stopOrGo'] = 'stop'&#10;        stopTrialList.append(deepcopy(conditionFive))&#10;if conditionSix['condition'] == 'go':&#10;    conditionSix['stopOrGo'] = 'go'&#10;    for i in range(1, goTrialsPerGoStim + 1):&#10;        stopTrialList.append(conditionSix)&#10;else:&#10;    for j in range(1, stopTrialsPerStopStim + 1):&#10;        conditionSix['stopOrGo'] = 'go'&#10;        stopTrialList.append(deepcopy(conditionSix))&#10;    for i in range(1, goTrialsPerStopStim + 1):&#10;        conditionSix['stopOrGo'] = 'stop'&#10;        stopTrialList.append(deepcopy(conditionSix))&#10;if conditionSeven['condition'] == 'go':&#10;    conditionSeven['stopOrGo'] = 'go'&#10;    for i in range(1, goTrialsPerGoStim + 1):&#10;        stopTrialList.append(conditionSeven)&#10;else:&#10;    for j in range(1, goTrialsPerStopStim + 1):&#10;        conditionSeven['stopOrGo'] = 'go'&#10;        stopTrialList.append(deepcopy(conditionSeven))&#10;    for i in range(1, stopTrialsPerStopStim + 1):&#10;        conditionSeven['stopOrGo'] = 'stop'&#10;        stopTrialList.append(deepcopy(conditionSeven))&#10;if conditionEight['condition'] == 'go':&#10;    conditionEight['stopOrGo'] = 'go'&#10;    for i in range(1, goTrialsPerGoStim + 1):&#10;        stopTrialList.append(conditionEight)&#10;else:&#10;    for j in range(1, goTrialsPerStopStim + 1):&#10;        conditionEight['stopOrGo'] = 'go'&#10;        stopTrialList.append(deepcopy(conditionEight))&#10;    for i in range(1, stopTrialsPerStopStim + 1):&#10;        conditionEight['stopOrGo'] = 'stop'&#10;        stopTrialList.append(deepcopy(conditionEight))&#10;&#10;shuffle(stopTrialList)" valType="extendedCode" updates="constant"/>\u000a        <Param name="name" val="code" valType="code" updates="None"/>\u000a        <Param name="Begin Routine" val="" valType="extendedCode" updates="constant"/>\u000a        <Param name="End Routine" val="" valType="extendedCode" updates="constant"/>\u000a        <Param name="End Experiment" val="" valType="extendedCode" updates="constant"/>\u000a        <Param name="Each Frame" val="" valType="extendedCode" updates="constant"/>\u000a      </CodeComponent>\u000a    </Routine>\u000a    <Routine name="instrMain">\u000a      <TextComponent name="instr2">\u000a        <Param name="opacity" val="1" valType="code" updates="constant"/>\u000a        <Param name="colorSpace" val="rgb" valType="str" updates="constant"/>\u000a        <Param name="name" val="instr2" valType="code" updates="constant"/>\u000a        <Param name="wrapWidth" val="" valType="code" updates="constant"/>\u000a        <Param name="color" val="white" valType="str" updates="constant"/>\u000a        <Param name="text" val="A shape stimulus will appear on every trial. &#10;&#10;If it appears in the upper right quadrant, PRESS Y&#10;&#10;If it appears in the lower right quadrant, PRESS H&#10;&#10;If it appears in the lower left quadrant, PRESS G&#10;&#10;If it appears in the upper left quadrant, PRESS T&#10;&#10;Press any key when you are ready to proceed. " valType="str" updates="constant"/>\u000a        <Param name="stopVal" val="" valType="code" updates="constant"/>\u000a        <Param name="durationEstim" val="" valType="code" updates="None"/>\u000a        <Param name="pos" val="[0, 0]" valType="code" updates="constant"/>\u000a        <Param name="flip" val="" valType="str" updates="constant"/>\u000a        <Param name="startEstim" val="" valType="code" updates="None"/>\u000a        <Param name="units" val="from exp settings" valType="str" updates="None"/>\u000a        <Param name="startType" val="time (s)" valType="str" updates="None"/>\u000a        <Param name="ori" val="0" valType="code" updates="constant"/>\u000a        <Param name="stopType" val="duration (s)" valType="str" updates="None"/>\u000a        <Param name="startVal" val="0.0" valType="code" updates="None"/>\u000a        <Param name="font" val="Arial" valType="str" updates="constant"/>\u000a        <Param name="letterHeight" val="0.075" valType="code" updates="constant"/>\u000a      </TextComponent>\u000a      <KeyboardComponent name="ok2">\u000a        <Param name="correctAns" val="" valType="str" updates="constant"/>\u000a        <Param name="storeCorrect" val="False" valType="bool" updates="constant"/>\u000a        <Param name="name" val="ok2" valType="code" updates="None"/>\u000a        <Param name="stopVal" val="" valType="code" updates="constant"/>\u000a        <Param name="durationEstim" val="" valType="code" updates="None"/>\u000a        <Param name="forceEndRoutine" val="True" valType="bool" updates="constant"/>\u000a        <Param name="startEstim" val="" valType="code" updates="None"/>\u000a        <Param name="discard previous" val="True" valType="bool" updates="constant"/>\u000a        <Param name="startType" val="time (s)" valType="str" updates="None"/>\u000a        <Param name="allowedKeys" val="" valType="code" updates="constant"/>\u000a        <Param name="stopType" val="duration (s)" valType="str" updates="None"/>\u000a        <Param name="startVal" val="0.0" valType="code" updates="None"/>\u000a        <Param name="store" val="nothing" valType="str" updates="constant"/>\u000a      </KeyboardComponent>\u000a    </Routine>\u000a    <Routine name="feedback">\u000a      <CodeComponent name="message">\u000a        <Param name="Begin Experiment" val="#message variable just needs some value at start&#10;message=0" valType="extendedCode" updates="constant"/>\u000a        <Param name="name" val="message" valType="code" updates="None"/>\u000a        <Param name="Begin Routine" val="import random&#10;&#10;displayReward = random.randrange(1, 6)&#10;&#10;if resp.corr:#stored on last run routine&#10;    if displayReward == 1:&#10;            message = &quot;You won $&quot; + str(0);&#10;    else: &#10;            currentReward = currentLearningTrial['reward']&#10;            message = &quot;You won $&quot; + str(currentReward + (random.randrange(-25, 26)*.01))&#10;elif resp.keys is None: #or len(key_resp.keys)&lt;1:&#10;#elif resp.rt == 0:&#10;    message =&quot;Too Slow&quot;&#10;else:&#10;  message=&quot;Wrong&quot;" valType="extendedCode" updates="constant"/>\u000a        <Param name="End Routine" val="" valType="extendedCode" updates="constant"/>\u000a        <Param name="End Experiment" val="" valType="extendedCode" updates="constant"/>\u000a        <Param name="Each Frame" val="" valType="extendedCode" updates="constant"/>\u000a      </CodeComponent>\u000a      <TextComponent name="feedback_2">\u000a        <Param name="opacity" val="1" valType="code" updates="constant"/>\u000a        <Param name="colorSpace" val="rgb" valType="str" updates="constant"/>\u000a        <Param name="name" val="feedback_2" valType="code" updates="constant"/>\u000a        <Param name="wrapWidth" val="" valType="code" updates="constant"/>\u000a        <Param name="color" val="$[1,1,1]" valType="str" updates="constant"/>\u000a        <Param name="text" val="$message" valType="str" updates="set every repeat"/>\u000a        <Param name="stopVal" val="1.0" valType="code" updates="constant"/>\u000a        <Param name="durationEstim" val="" valType="code" updates="None"/>\u000a        <Param name="pos" val="[0, 0]" valType="code" updates="constant"/>\u000a        <Param name="flip" val="" valType="str" updates="constant"/>\u000a        <Param name="startEstim" val="" valType="code" updates="None"/>\u000a        <Param name="units" val="from exp settings" valType="str" updates="None"/>\u000a        <Param name="startType" val="time (s)" valType="str" updates="None"/>\u000a        <Param name="ori" val="0" valType="code" updates="constant"/>\u000a        <Param name="stopType" val="duration (s)" valType="str" updates="None"/>\u000a        <Param name="startVal" val="0.0" valType="code" updates="None"/>\u000a        <Param name="font" val="Arial" valType="str" updates="constant"/>\u000a        <Param name="letterHeight" val=".2" valType="code" updates="constant"/>\u000a      </TextComponent>\u000a      <ImageComponent name="image">\u000a        <Param name="opacity" val="1" valType="code" updates="constant"/>\u000a        <Param name="flipVert" val="False" valType="bool" updates="constant"/>\u000a        <Param name="colorSpace" val="rgb" valType="str" updates="constant"/>\u000a        <Param name="name" val="image" valType="code" updates="None"/>\u000a        <Param name="color" val="$[1,1,1]" valType="str" updates="constant"/>\u000a        <Param name="stopVal" val="1.0" valType="code" updates="constant"/>\u000a        <Param name="durationEstim" val="" valType="code" updates="None"/>\u000a        <Param name="mask" val="None" valType="str" updates="constant"/>\u000a        <Param name="pos" val="$[xPos, yPos]" valType="code" updates="set every repeat"/>\u000a        <Param name="interpolate" val="linear" valType="str" updates="constant"/>\u000a        <Param name="startEstim" val="" valType="code" updates="None"/>\u000a        <Param name="units" val="pix" valType="str" updates="None"/>\u000a        <Param name="texture resolution" val="128" valType="code" updates="constant"/>\u000a        <Param name="startType" val="time (s)" valType="str" updates="None"/>\u000a        <Param name="ori" val="0" valType="code" updates="constant"/>\u000a        <Param name="stopType" val="duration (s)" valType="str" updates="None"/>\u000a        <Param name="startVal" val="0.0" valType="code" updates="None"/>\u000a        <Param name="flipHoriz" val="False" valType="bool" updates="constant"/>\u000a        <Param name="image" val="$currentStimulus" valType="str" updates="set every repeat"/>\u000a        <Param name="size" val="[151, 151]" valType="code" updates="constant"/>\u000a      </ImageComponent>\u000a    </Routine>\u000a    <Routine name="Bank"/>\u000a    <Routine name="StopTrial">\u000a      <SoundComponent name="sound_1">\u000a        <Param name="sound" val="900" valType="str" updates="constant"/>\u000a        <Param name="volume" val="1" valType="code" updates="constant"/>\u000a        <Param name="name" val="sound_1" valType="code" updates="None"/>\u000a        <Param name="stopVal" val=".2" valType="code" updates="constant"/>\u000a        <Param name="durationEstim" val="" valType="code" updates="None"/>\u000a        <Param name="startEstim" val=".75" valType="code" updates="None"/>\u000a        <Param name="startType" val="time (s)" valType="str" updates="None"/>\u000a        <Param name="stopType" val="duration (s)" valType="str" updates="None"/>\u000a        <Param name="startVal" val="750" valType="code" updates="None"/>\u000a      </SoundComponent>\u000a      <TextComponent name="text_3">\u000a        <Param name="opacity" val="1" valType="code" updates="constant"/>\u000a        <Param name="colorSpace" val="rgb" valType="str" updates="constant"/>\u000a        <Param name="name" val="text_3" valType="code" updates="None"/>\u000a        <Param name="wrapWidth" val="" valType="code" updates="constant"/>\u000a        <Param name="color" val="white" valType="str" updates="constant"/>\u000a        <Param name="text" val="|" valType="str" updates="constant"/>\u000a        <Param name="stopVal" val="1.5" valType="code" updates="constant"/>\u000a        <Param name="durationEstim" val="" valType="code" updates="None"/>\u000a        <Param name="pos" val="[0, 0]" valType="code" updates="constant"/>\u000a        <Param name="flip" val="" valType="str" updates="constant"/>\u000a        <Param name="startEstim" val="" valType="code" updates="None"/>\u000a        <Param name="units" val="from exp settings" valType="str" updates="None"/>\u000a        <Param name="startType" val="time (s)" valType="str" updates="None"/>\u000a        <Param name="ori" val="0" valType="code" updates="constant"/>\u000a        <Param name="stopType" val="duration (s)" valType="str" updates="None"/>\u000a        <Param name="startVal" val="0.0" valType="code" updates="None"/>\u000a        <Param name="font" val="Arial" valType="str" updates="constant"/>\u000a        <Param name="letterHeight" val="4" valType="code" updates="constant"/>\u000a      </TextComponent>\u000a      <ImageComponent name="image_3">\u000a        <Param name="opacity" val="1" valType="code" updates="constant"/>\u000a        <Param name="flipVert" val="False" valType="bool" updates="constant"/>\u000a        <Param name="colorSpace" val="rgb" valType="str" updates="constant"/>\u000a        <Param name="name" val="image_3" valType="code" updates="None"/>\u000a        <Param name="color" val="$[1,1,1]" valType="str" updates="constant"/>\u000a        <Param name="stopVal" val="1.0" valType="code" updates="constant"/>\u000a        <Param name="durationEstim" val="" valType="code" updates="None"/>\u000a        <Param name="mask" val="None" valType="str" updates="constant"/>\u000a        <Param name="pos" val="$[xPosGoStim, yPosGoStim]" valType="code" updates="set every repeat"/>\u000a        <Param name="interpolate" val="linear" valType="str" updates="constant"/>\u000a        <Param name="startEstim" val="" valType="code" updates="None"/>\u000a        <Param name="units" val="pix" valType="str" updates="None"/>\u000a        <Param name="texture resolution" val="128" valType="code" updates="constant"/>\u000a        <Param name="startType" val="time (s)" valType="str" updates="None"/>\u000a        <Param name="ori" val="0" valType="code" updates="constant"/>\u000a        <Param name="stopType" val="duration (s)" valType="str" updates="None"/>\u000a        <Param name="startVal" val=".5" valType="code" updates="None"/>\u000a        <Param name="flipHoriz" val="False" valType="bool" updates="constant"/>\u000a        <Param name="image" val="$currentGoStim" valType="str" updates="set every repeat"/>\u000a        <Param name="size" val="[151, 151]" valType="code" updates="constant"/>\u000a      </ImageComponent>\u000a      <KeyboardComponent name="goResp">\u000a        <Param name="correctAns" val="$corrGoResp" valType="str" updates="constant"/>\u000a        <Param name="storeCorrect" val="True" valType="bool" updates="constant"/>\u000a        <Param name="name" val="goResp" valType="code" updates="None"/>\u000a        <Param name="stopVal" val="1" valType="code" updates="constant"/>\u000a        <Param name="durationEstim" val="" valType="code" updates="None"/>\u000a        <Param name="forceEndRoutine" val="False" valType="bool" updates="constant"/>\u000a        <Param name="startEstim" val="" valType="code" updates="None"/>\u000a        <Param name="discard previous" val="True" valType="bool" updates="constant"/>\u000a        <Param name="startType" val="time (s)" valType="str" updates="None"/>\u000a        <Param name="allowedKeys" val="'z','m'" valType="code" updates="constant"/>\u000a        <Param name="stopType" val="duration (s)" valType="str" updates="None"/>\u000a        <Param name="startVal" val=".5" valType="code" updates="None"/>\u000a        <Param name="store" val="first key" valType="str" updates="constant"/>\u000a      </KeyboardComponent>\u000a    </Routine>\u000a  </Routines>\u000a  <Flow>\u000a    <Routine name="StimSetup"/>\u000a    <Routine name="instrPractice"/>\u000a    <LoopInitiator loopType="TrialHandler" name="Blocks">\u000a      <Param name="conditionsFile" val="" valType="str" updates="None"/>\u000a      <Param name="name" val="Blocks" valType="code" updates="None"/>\u000a      <Param name="isTrials" val="True" valType="bool" updates="None"/>\u000a      <Param name="random seed" val="" valType="code" updates="None"/>\u000a      <Param name="loopType" val="sequential" valType="str" updates="None"/>\u000a      <Param name="nReps" val="0" valType="code" updates="None"/>\u000a      <Param name="endPoints" val="[0, 1]" valType="num" updates="None"/>\u000a      <Param name="conditions" val="None" valType="str" updates="None"/>\u000a      <Param name="Selected rows" val="" valType="str" updates="None"/>\u000a    </LoopInitiator>\u000a    <Routine name="ResetAtBlock"/>\u000a    <LoopInitiator loopType="TrialHandler" name="trials">\u000a      <Param name="conditionsFile" val="TrialtypesLearning.xlsx" valType="str" updates="None"/>\u000a      <Param name="name" val="trials" valType="code" updates="None"/>\u000a      <Param name="isTrials" val="True" valType="bool" updates="None"/>\u000a      <Param name="random seed" val="" valType="code" updates="None"/>\u000a      <Param name="loopType" val="fullRandom" valType="str" updates="None"/>\u000a      <Param name="nReps" val="25" valType="num" updates="None"/>\u000a      <Param name="endPoints" val="[0, 1]" valType="num" updates="None"/>\u000a      <Param name="conditions" val="[{u'xPos': 200, u'corrAns': u'h', u'yPos': 200}, {u'xPos': -200, u'corrAns': u'g', u'yPos': 200}, {u'xPos': 200, u'corrAns': u'n', u'yPos': -200}, {u'xPos': -200, u'corrAns': u'b', u'yPos': -200}]" valType="str" updates="None"/>\u000a      <Param name="Selected rows" val="" valType="str" updates="None"/>\u000a    </LoopInitiator>\u000a    <Routine name="NewStim"/>\u000a    <LoopInitiator loopType="TrialHandler" name="ReDoLoopMain">\u000a      <Param name="conditionsFile" val="" valType="str" updates="None"/>\u000a      <Param name="name" val="ReDoLoopMain" valType="code" updates="None"/>\u000a      <Param name="isTrials" val="False" valType="bool" updates="None"/>\u000a      <Param name="random seed" val="" valType="code" updates="None"/>\u000a      <Param name="loopType" val="random" valType="str" updates="None"/>\u000a      <Param name="nReps" val="999" valType="code" updates="None"/>\u000a      <Param name="endPoints" val="[0, 1]" valType="num" updates="None"/>\u000a      <Param name="conditions" val="None" valType="str" updates="None"/>\u000a      <Param name="Selected rows" val="" valType="str" updates="None"/>\u000a    </LoopInitiator>\u000a    <Routine name="trial"/>\u000a    <Routine name="feedback"/>\u000a    <Routine name="Blank"/>\u000a    <Routine name="ExitMain"/>\u000a    <LoopTerminator name="ReDoLoopMain"/>\u000a    <LoopTerminator name="trials"/>\u000a    <LoopTerminator name="Blocks"/>\u000a    <Routine name="instrStopPrac"/>\u000a    <LoopInitiator loopType="TrialHandler" name="StopBlocks">\u000a      <Param name="conditionsFile" val="" valType="str" updates="None"/>\u000a      <Param name="name" val="StopBlocks" valType="code" updates="None"/>\u000a      <Param name="isTrials" val="True" valType="bool" updates="None"/>\u000a      <Param name="random seed" val="" valType="code" updates="None"/>\u000a      <Param name="loopType" val="sequential" valType="str" updates="None"/>\u000a      <Param name="nReps" val="4" valType="code" updates="None"/>\u000a      <Param name="endPoints" val="[0, 1]" valType="num" updates="None"/>\u000a      <Param name="conditions" val="None" valType="str" updates="None"/>\u000a      <Param name="Selected rows" val="" valType="str" updates="None"/>\u000a    </LoopInitiator>\u000a    <Routine name="stopBlockSetup"/>\u000a    <LoopInitiator loopType="TrialHandler" name="StopTrials">\u000a      <Param name="conditionsFile" val="trialtypeStop.xlsx" valType="str" updates="None"/>\u000a      <Param name="name" val="StopTrials" valType="code" updates="None"/>\u000a      <Param name="isTrials" val="True" valType="bool" updates="None"/>\u000a      <Param name="random seed" val="" valType="code" updates="None"/>\u000a      <Param name="loopType" val="fullRandom" valType="str" updates="None"/>\u000a      <Param name="nReps" val="2" valType="code" updates="None"/>\u000a      <Param name="endPoints" val="[0, 1]" valType="num" updates="None"/>\u000a      <Param name="conditions" val="[{u'corrGoResp': u'z', u'yPosGoStim': 0, u'xPosGoStim': -200}, {u'corrGoResp': u'm', u'yPosGoStim': 0, u'xPosGoStim': 200}]" valType="str" updates="None"/>\u000a      <Param name="Selected rows" val="" valType="str" updates="None"/>\u000a    </LoopInitiator>\u000a    <Routine name="newStopStim"/>\u000a    <Routine name="StopTrial"/>\u000a    <Routine name="blankStop"/>\u000a    <Routine name="SSDChange"/>\u000a    <LoopTerminator name="StopTrials"/>\u000a    <Routine name="endOfStopBlockFeedback"/>\u000a    <LoopTerminator name="StopBlocks"/>\u000a    <Routine name="End"/>\u000a  </Flow>\u000a</PsychoPy2experiment>\u000a
p88
sg42
g1
(cpsychopy.data
TrialType
p89
g48
(dp90
VcorrGoResp
p91
Vz
sVyPosGoStim
p92
I0
sVxPosGoStim
p93
I-200
stRp94
sg43
I305533200
sg11
S'StopTrials'
p95
sg6
g7
sg45
I0
sg19
I01
sg20
g21
sg46
g1
(g47
g48
(dp96
g50
g51
(g52
g53
g54
S'b'
tRp97
(I1
(I2
I2
tg56
I00
S'\x00\x00\x80?\x00\x00\x80?\x00\x00\x00\x00\x00\x00\x00\x00'
S'\x00\x00\x00\x00'
Ntbsg17
g71
(g53
(I0
tS'b'
tRp98
(I1
(I2
I2
tg27
(S'O4'
I0
I1
tRp99
(I3
S'|'
NNNI-1
I-1
I63
tbI00
(lp100
NaS'--'
p101
aS'--'
p102
aS'--'
p103
atbsg18
g51
(g52
g53
g54
S'b'
tRp104
(I1
(I2
I2
tg56
I00
S'\x00\x00\x00\x00\x00\x00\x00\x00\x00\x00\x00\x00\x00\x00\x00\x00'
S'\x00\x01\x01\x01'
Ntbsg57
g51
(g52
g53
g54
S'b'
tRp105
(I1
(I2
I2
tg56
I00
S'\x00\x00\x00\x00\x00\x00\x80?\x00\x00\x00\x00\x00\x00\x00\x00'
S'\x00\x00\x01\x01'
NtbstRp106
(dp107
g61
(dp108
g50
I01
sg17
I00
sg18
I01
sg57
I01
ssg63
g86
sg64
(lp109
g50
ag57
ag17
ag18
asg66
(lp110
I2
aI2
asbsg68
S'fullRandom'
p111
sg70
g71
(g53
(I0
tS'b'
tRp112
(I1
(I2
I2
tg99
I00
(lp113
I0
aI1
aI0
aI1
atbsg74
I00
sg75
I2
sg76
I2
sg77
(lp114
g94
ag1
(g89
g48
(dp115
g91
Vm
sg92
I0
sg93
I200
stRp116
asg79
Nsg80
I0
sg82
I1
sg83
I1
sg84
I4
sg85
I01
sbasS'saveWideText'
p117
I01
sS'thisEntry'
p118
(dp119
sS'version'
p120
S''
sS'_paramNamesSoFar'
p121
(lp122
g91
ag92
ag93
asS'entries'
p123
(lp124
(dp125
g30
I3
sg23
V
sg16
F1.9374189376831055
sg24
V
sg25
g29
sg22
g12
sg15
S'space'
p126
sg31
g32
sg33
g34
sa(dp127
g30
I3
sg22
g12
sg18
I0
sS'StopBlocks.thisIndex'
p128
g81
sS'StopTrials.thisTrialN'
p129
I0
sg17
Nsg24
V
sg33
g34
sg25
g29
sS'StopTrials.thisRepN'
p130
I0
sS'StopTrials.thisIndex'
p131
I0
sg93
I-200
sS'StopBlocks.thisRepN'
p132
I0
sS'StopBlocks.thisTrialN'
p133
I0
sg31
g32
sg91
Vz
sg23
V
sS'StopBlocks.thisN'
p134
I0
sS'StopTrials.thisN'
p135
I0
sS'StopBlocks.thisTrial'
p136
Nsg92
I0
sasS'loops'
p137
(lp138
g1
(g37
g3
NtRp139
(dp140
g40
V<PsychoPy2experiment version="1.82.01" encoding="utf-8">\u000a  <Settings>\u000a    <Param name="Show mouse" val="False" valType="bool" updates="None"/>\u000a    <Param name="Data filename" val="u'data' + os.sep + '%s_%s' %(expInfo['participant'], expInfo['date'])" valType="code" updates="None"/>\u000a    <Param name="Monitor" val="testMonitor" valType="str" updates="None"/>\u000a    <Param name="Enable Escape" val="True" valType="bool" updates="None"/>\u000a    <Param name="color" val="black" valType="str" updates="None"/>\u000a    <Param name="Window size (pixels)" val="[1680, 1050]" valType="code" updates="None"/>\u000a    <Param name="Full-screen window" val="True" valType="bool" updates="None"/>\u000a    <Param name="colorSpace" val="rgb" valType="str" updates="None"/>\u000a    <Param name="Experiment info" val="{'participant':'', 'gender (m/f)':'', 'age':'', 'session':03}" valType="code" updates="None"/>\u000a    <Param name="Save csv file" val="False" valType="bool" updates="None"/>\u000a    <Param name="Show info dlg" val="True" valType="bool" updates="None"/>\u000a    <Param name="Save wide csv file" val="True" valType="bool" updates="None"/>\u000a    <Param name="Save psydat file" val="True" valType="bool" updates="None"/>\u000a    <Param name="expName" val="LearningTask" valType="str" updates="None"/>\u000a    <Param name="logging level" val="warning" valType="code" updates="None"/>\u000a    <Param name="blendMode" val="avg" valType="str" updates="None"/>\u000a    <Param name="Save excel file" val="True" valType="bool" updates="None"/>\u000a    <Param name="Units" val="use prefs" valType="str" updates="None"/>\u000a    <Param name="Save log file" val="True" valType="bool" updates="None"/>\u000a    <Param name="Screen" val="1" valType="num" updates="None"/>\u000a  </Settings>\u000a  <Routines>\u000a    <Routine name="stopBlockSetup">\u000a      <CodeComponent name="code_9">\u000a        <Param name="Begin Experiment" val="goCumRT = 0&#10;goRTCount = 0&#10;omissionCount = 0&#10;commissionCount = 0&#10;stopTrialCount = 0&#10;stopSuccessCount = 0&#10;goTrialCount = 0" valType="extendedCode" updates="constant"/>\u000a        <Param name="name" val="code_9" valType="code" updates="None"/>\u000a        <Param name="Begin Routine" val="" valType="extendedCode" updates="constant"/>\u000a        <Param name="End Routine" val="" valType="extendedCode" updates="constant"/>\u000a        <Param name="End Experiment" val="" valType="extendedCode" updates="constant"/>\u000a        <Param name="Each Frame" val="" valType="extendedCode" updates="constant"/>\u000a      </CodeComponent>\u000a    </Routine>\u000a    <Routine name="blankStop">\u000a      <TextComponent name="text_4">\u000a        <Param name="opacity" val="1" valType="code" updates="constant"/>\u000a        <Param name="colorSpace" val="rgb" valType="str" updates="constant"/>\u000a        <Param name="name" val="text_4" valType="code" updates="None"/>\u000a        <Param name="wrapWidth" val="" valType="code" updates="constant"/>\u000a        <Param name="color" val="white" valType="str" updates="constant"/>\u000a        <Param name="text" val="THIS IS THE BLANK SCREEN" valType="str" updates="constant"/>\u000a        <Param name="stopVal" val="1.5" valType="code" updates="constant"/>\u000a        <Param name="durationEstim" val="" valType="code" updates="None"/>\u000a        <Param name="pos" val="[0, 0]" valType="code" updates="constant"/>\u000a        <Param name="flip" val="" valType="str" updates="constant"/>\u000a        <Param name="startEstim" val="" valType="code" updates="None"/>\u000a        <Param name="units" val="from exp settings" valType="str" updates="None"/>\u000a        <Param name="startType" val="time (s)" valType="str" updates="None"/>\u000a        <Param name="ori" val="0" valType="code" updates="constant"/>\u000a        <Param name="stopType" val="duration (s)" valType="str" updates="None"/>\u000a        <Param name="startVal" val="0.0" valType="code" updates="None"/>\u000a        <Param name="font" val="Arial" valType="str" updates="constant"/>\u000a        <Param name="letterHeight" val="0.1" valType="code" updates="constant"/>\u000a      </TextComponent>\u000a    </Routine>\u000a    <Routine name="End">\u000a      <TextComponent name="text_6">\u000a        <Param name="opacity" val="1" valType="code" updates="constant"/>\u000a        <Param name="colorSpace" val="rgb" valType="str" updates="constant"/>\u000a        <Param name="name" val="text_6" valType="code" updates="None"/>\u000a        <Param name="wrapWidth" val="" valType="code" updates="constant"/>\u000a        <Param name="color" val="white" valType="str" updates="constant"/>\u000a        <Param name="text" val="This is the end, beautiful friend" valType="str" updates="constant"/>\u000a        <Param name="stopVal" val="5" valType="code" updates="constant"/>\u000a        <Param name="durationEstim" val="" valType="code" updates="None"/>\u000a        <Param name="pos" val="[0, 0]" valType="code" updates="constant"/>\u000a        <Param name="flip" val="" valType="str" updates="constant"/>\u000a        <Param name="startEstim" val="" valType="code" updates="None"/>\u000a        <Param name="units" val="from exp settings" valType="str" updates="None"/>\u000a        <Param name="startType" val="time (s)" valType="str" updates="None"/>\u000a        <Param name="ori" val="0" valType="code" updates="constant"/>\u000a        <Param name="stopType" val="duration (s)" valType="str" updates="None"/>\u000a        <Param name="startVal" val="0.0" valType="code" updates="None"/>\u000a        <Param name="font" val="Arial" valType="str" updates="constant"/>\u000a        <Param name="letterHeight" val="0.1" valType="code" updates="constant"/>\u000a      </TextComponent>\u000a    </Routine>\u000a    <Routine name="instrStopPrac">\u000a      <TextComponent name="instrStopText">\u000a        <Param name="opacity" val="1" valType="code" updates="constant"/>\u000a        <Param name="colorSpace" val="rgb" valType="str" updates="constant"/>\u000a        <Param name="name" val="instrStopText" valType="code" updates="None"/>\u000a        <Param name="wrapWidth" val="" valType="code" updates="constant"/>\u000a        <Param name="color" val="white" valType="str" updates="constant"/>\u000a        <Param name="text" val="A shape stimulus will appear on the left or right side of the screen&#10;&#10;If it appears on the left, press Z&#10;&#10;If it appears on the right, press M&#10;&#10;If you hear a tone, do not press anything on that trial" valType="str" updates="constant"/>\u000a        <Param name="stopVal" val="" valType="code" updates="constant"/>\u000a        <Param name="durationEstim" val="" valType="code" updates="None"/>\u000a        <Param name="pos" val="[0, 0]" valType="code" updates="constant"/>\u000a        <Param name="flip" val="" valType="str" updates="constant"/>\u000a        <Param name="startEstim" val="" valType="code" updates="None"/>\u000a        <Param name="units" val="from exp settings" valType="str" updates="None"/>\u000a        <Param name="startType" val="time (s)" valType="str" updates="None"/>\u000a        <Param name="ori" val="0" valType="code" updates="constant"/>\u000a        <Param name="stopType" val="duration (s)" valType="str" updates="None"/>\u000a        <Param name="startVal" val="0.0" valType="code" updates="None"/>\u000a        <Param name="font" val="Arial" valType="str" updates="constant"/>\u000a        <Param name="letterHeight" val="0.1" valType="code" updates="constant"/>\u000a      </TextComponent>\u000a      <KeyboardComponent name="key_resp_2">\u000a        <Param name="correctAns" val="" valType="str" updates="constant"/>\u000a        <Param name="storeCorrect" val="False" valType="bool" updates="constant"/>\u000a        <Param name="name" val="key_resp_2" valType="code" updates="None"/>\u000a        <Param name="stopVal" val="" valType="code" updates="constant"/>\u000a        <Param name="durationEstim" val="" valType="code" updates="None"/>\u000a        <Param name="forceEndRoutine" val="True" valType="bool" updates="constant"/>\u000a        <Param name="startEstim" val="" valType="code" updates="None"/>\u000a        <Param name="discard previous" val="True" valType="bool" updates="constant"/>\u000a        <Param name="startType" val="time (s)" valType="str" updates="None"/>\u000a        <Param name="allowedKeys" val="" valType="code" updates="constant"/>\u000a        <Param name="stopType" val="duration (s)" valType="str" updates="None"/>\u000a        <Param name="startVal" val="0.0" valType="code" updates="None"/>\u000a        <Param name="store" val="nothing" valType="str" updates="constant"/>\u000a      </KeyboardComponent>\u000a      <CodeComponent name="code_8">\u000a        <Param name="Begin Experiment" val="" valType="extendedCode" updates="constant"/>\u000a        <Param name="name" val="code_8" valType="code" updates="None"/>\u000a        <Param name="Begin Routine" val="InitSSD = 250&#10;SSDLeft = InitSSD&#10;SSDRight = InitSSD" valType="extendedCode" updates="constant"/>\u000a        <Param name="End Routine" val="" valType="extendedCode" updates="constant"/>\u000a        <Param name="End Experiment" val="" valType="extendedCode" updates="constant"/>\u000a        <Param name="Each Frame" val="" valType="extendedCode" updates="constant"/>\u000a      </CodeComponent>\u000a    </Routine>\u000a    <Routine name="ExitMain">\u000a      <CodeComponent name="code_6">\u000a        <Param name="Begin Experiment" val="" valType="extendedCode" updates="constant"/>\u000a        <Param name="name" val="code_6" valType="code" updates="None"/>\u000a        <Param name="Begin Routine" val="" valType="extendedCode" updates="constant"/>\u000a        <Param name="End Routine" val="if resp.corr:&#10;    ReDoLoopMain.finished = True" valType="extendedCode" updates="constant"/>\u000a        <Param name="End Experiment" val="" valType="extendedCode" updates="constant"/>\u000a        <Param name="Each Frame" val="" valType="extendedCode" updates="constant"/>\u000a      </CodeComponent>\u000a    </Routine>\u000a    <Routine name="ResetAtBlock">\u000a      <CodeComponent name="code_3">\u000a        <Param name="Begin Experiment" val="" valType="extendedCode" updates="constant"/>\u000a        <Param name="name" val="code_3" valType="code" updates="None"/>\u000a        <Param name="Begin Routine" val="Redo = 1" valType="extendedCode" updates="constant"/>\u000a        <Param name="End Routine" val="" valType="extendedCode" updates="constant"/>\u000a        <Param name="End Experiment" val="" valType="extendedCode" updates="constant"/>\u000a        <Param name="Each Frame" val="" valType="extendedCode" updates="constant"/>\u000a      </CodeComponent>\u000a    </Routine>\u000a    <Routine name="instrPractice">\u000a      <TextComponent name="instruct1">\u000a        <Param name="opacity" val="1" valType="code" updates="constant"/>\u000a        <Param name="colorSpace" val="rgb" valType="str" updates="constant"/>\u000a        <Param name="name" val="instruct1" valType="code" updates="constant"/>\u000a        <Param name="wrapWidth" val="" valType="code" updates="constant"/>\u000a        <Param name="color" val="white" valType="str" updates="constant"/>\u000a        <Param name="text" val="A shape stimulus will appear on every trial. &#10;&#10;If it appears in the upper right quadrant, PRESS I&#10;&#10;If it appears in the lower right quadrant, PRESS K&#10;&#10;If it appears in the lower left quadrant, PRESS J&#10;&#10;If it appears in the upper left quadrant, PRESS U&#10;&#10;Press any key when you are ready to proceed. " valType="str" updates="constant"/>\u000a        <Param name="stopVal" val="" valType="code" updates="constant"/>\u000a        <Param name="durationEstim" val="" valType="code" updates="None"/>\u000a        <Param name="pos" val="[0, 0]" valType="code" updates="constant"/>\u000a        <Param name="flip" val="" valType="str" updates="constant"/>\u000a        <Param name="startEstim" val="" valType="code" updates="None"/>\u000a        <Param name="units" val="from exp settings" valType="str" updates="None"/>\u000a        <Param name="startType" val="time (s)" valType="str" updates="None"/>\u000a        <Param name="ori" val="0" valType="code" updates="constant"/>\u000a        <Param name="stopType" val="duration (s)" valType="str" updates="None"/>\u000a        <Param name="startVal" val="0.0" valType="code" updates="None"/>\u000a        <Param name="font" val="Arial" valType="str" updates="constant"/>\u000a        <Param name="letterHeight" val="0.07" valType="code" updates="constant"/>\u000a      </TextComponent>\u000a      <KeyboardComponent name="ok1">\u000a        <Param name="correctAns" val="" valType="str" updates="constant"/>\u000a        <Param name="storeCorrect" val="False" valType="bool" updates="constant"/>\u000a        <Param name="name" val="ok1" valType="code" updates="None"/>\u000a        <Param name="stopVal" val="" valType="code" updates="constant"/>\u000a        <Param name="durationEstim" val="" valType="code" updates="None"/>\u000a        <Param name="forceEndRoutine" val="True" valType="bool" updates="constant"/>\u000a        <Param name="startEstim" val="" valType="code" updates="None"/>\u000a        <Param name="discard previous" val="True" valType="bool" updates="constant"/>\u000a        <Param name="startType" val="time (s)" valType="str" updates="None"/>\u000a        <Param name="allowedKeys" val="" valType="code" updates="constant"/>\u000a        <Param name="stopType" val="duration (s)" valType="str" updates="None"/>\u000a        <Param name="startVal" val="0.0" valType="code" updates="None"/>\u000a        <Param name="store" val="last key" valType="str" updates="constant"/>\u000a      </KeyboardComponent>\u000a    </Routine>\u000a    <Routine name="NewStim">\u000a      <CodeComponent name="code_4">\u000a        <Param name="Begin Experiment" val="" valType="extendedCode" updates="constant"/>\u000a        <Param name="name" val="code_4" valType="code" updates="None"/>\u000a        <Param name="Begin Routine" val="currentLearningTrial = learningTrialList.pop(0)&#10;currentStimulus = currentLearningTrial['fileName']&#10;" valType="extendedCode" updates="constant"/>\u000a        <Param name="End Routine" val="" valType="extendedCode" updates="constant"/>\u000a        <Param name="End Experiment" val="" valType="extendedCode" updates="constant"/>\u000a        <Param name="Each Frame" val="" valType="extendedCode" updates="constant"/>\u000a      </CodeComponent>\u000a    </Routine>\u000a    <Routine name="SSDChange">\u000a      <CodeComponent name="code_2">\u000a        <Param name="Begin Experiment" val="" valType="extendedCode" updates="constant"/>\u000a        <Param name="name" val="code_2" valType="code" updates="None"/>\u000a        <Param name="Begin Routine" val="if goResp.keys is None:&#10;    if xPosGoStim == -200:&#10;        SSDLeft = SSDLeft  + 50&#10;    if xPosGoStim == 200:&#10;        SSDRight = SSDRight + 50&#10;else:&#10;    if xPosGoStim == -200:&#10;        SSDLeft = SSDLeft - 50&#10;    if xPosGoStim == 200:&#10;        SSDRight = SSDRight - 50&#10;&#10;if currentStopTrial['stopOrGo'] == 'go':&#10;    goTrialCount = goTrialCount + 1&#10;&#10;if goResp.corr and currentStopTrial['stopOrGo'] == 'go':&#10;    goCumRT = goCumRT + goResp.rt&#10;    goRTCount = goRTCount + 1&#10;&#10;if currentStopTrial['stopOrGo'] == 'stop':&#10;    stopTrialCount = stopTrialCount + 1&#10;&#10;if currentStopTrial['stopOrGo'] == 'stop' and goResp.keys is None:&#10;    stopSuccessCount = stopSuccessCount + 1&#10;&#10;if goResp.keys is None and currentStopTrial['stopOrGo'] == 'go':&#10;    omissionCount = 0&#10;&#10;if goResp != corrGoResp:&#10;    commissionCount = commissionCount + 1" valType="extendedCode" updates="constant"/>\u000a        <Param name="End Routine" val="" valType="extendedCode" updates="constant"/>\u000a        <Param name="End Experiment" val="" valType="extendedCode" updates="constant"/>\u000a        <Param name="Each Frame" val="" valType="extendedCode" updates="constant"/>\u000a      </CodeComponent>\u000a    </Routine>\u000a    <Routine name="endOfStopBlockFeedback">\u000a      <CodeComponent name="code_10">\u000a        <Param name="Begin Experiment" val="" valType="extendedCode" updates="constant"/>\u000a        <Param name="name" val="code_10" valType="code" updates="None"/>\u000a        <Param name="Begin Routine" val="goRTFeedback = str(goCumRT/goRTCount)&#10;commissionRate = str(commissionCount/goTrialCount)&#10;omissionRate = str(omissionCount/goTrialCount)&#10;probabilityOfStop = str(stopSuccessCount/stopTrialCount)&#10;SSDFeedback = str((SSDLeft+SSDRight)/2)" valType="extendedCode" updates="constant"/>\u000a        <Param name="End Routine" val="" valType="extendedCode" updates="constant"/>\u000a        <Param name="End Experiment" val="" valType="extendedCode" updates="constant"/>\u000a        <Param name="Each Frame" val="" valType="extendedCode" updates="constant"/>\u000a      </CodeComponent>\u000a      <TextComponent name="text_5">\u000a        <Param name="opacity" val="1" valType="code" updates="constant"/>\u000a        <Param name="colorSpace" val="rgb" valType="str" updates="constant"/>\u000a        <Param name="name" val="text_5" valType="code" updates="None"/>\u000a        <Param name="wrapWidth" val="" valType="code" updates="constant"/>\u000a        <Param name="color" val="white" valType="str" updates="constant"/>\u000a        <Param name="text" val="$SSDFeedback" valType="str" updates="set every repeat"/>\u000a        <Param name="stopVal" val="" valType="code" updates="constant"/>\u000a        <Param name="durationEstim" val="" valType="code" updates="None"/>\u000a        <Param name="pos" val="[0, 0]" valType="code" updates="constant"/>\u000a        <Param name="flip" val="" valType="str" updates="constant"/>\u000a        <Param name="startEstim" val="" valType="code" updates="None"/>\u000a        <Param name="units" val="from exp settings" valType="str" updates="None"/>\u000a        <Param name="startType" val="time (s)" valType="str" updates="None"/>\u000a        <Param name="ori" val="0" valType="code" updates="constant"/>\u000a        <Param name="stopType" val="duration (s)" valType="str" updates="None"/>\u000a        <Param name="startVal" val="0.0" valType="code" updates="None"/>\u000a        <Param name="font" val="Arial" valType="str" updates="constant"/>\u000a        <Param name="letterHeight" val="0.1" valType="code" updates="constant"/>\u000a      </TextComponent>\u000a      <KeyboardComponent name="key_resp_3">\u000a        <Param name="correctAns" val="" valType="str" updates="constant"/>\u000a        <Param name="storeCorrect" val="False" valType="bool" updates="constant"/>\u000a        <Param name="name" val="key_resp_3" valType="code" updates="None"/>\u000a        <Param name="stopVal" val="" valType="code" updates="constant"/>\u000a        <Param name="durationEstim" val="" valType="code" updates="None"/>\u000a        <Param name="forceEndRoutine" val="True" valType="bool" updates="constant"/>\u000a        <Param name="startEstim" val="" valType="code" updates="None"/>\u000a        <Param name="discard previous" val="True" valType="bool" updates="constant"/>\u000a        <Param name="startType" val="time (s)" valType="str" updates="None"/>\u000a        <Param name="allowedKeys" val="'y','n','left','right','space'" valType="code" updates="set every repeat"/>\u000a        <Param name="stopType" val="duration (s)" valType="str" updates="None"/>\u000a        <Param name="startVal" val="0.0" valType="code" updates="None"/>\u000a        <Param name="store" val="last key" valType="str" updates="constant"/>\u000a      </KeyboardComponent>\u000a    </Routine>\u000a    <Routine name="ExitPrac">\u000a      <CodeComponent name="code_5">\u000a        <Param name="Begin Experiment" val="" valType="extendedCode" updates="constant"/>\u000a        <Param name="name" val="code_5" valType="code" updates="None"/>\u000a        <Param name="Begin Routine" val="" valType="extendedCode" updates="constant"/>\u000a        <Param name="End Routine" val="if resp.corr:&#10;    ReDoLoop.finished = True " valType="extendedCode" updates="constant"/>\u000a        <Param name="End Experiment" val="" valType="extendedCode" updates="constant"/>\u000a        <Param name="Each Frame" val="" valType="extendedCode" updates="constant"/>\u000a      </CodeComponent>\u000a    </Routine>\u000a    <Routine name="trial">\u000a      <KeyboardComponent name="resp">\u000a        <Param name="correctAns" val="$corrAns" valType="str" updates="constant"/>\u000a        <Param name="storeCorrect" val="True" valType="bool" updates="constant"/>\u000a        <Param name="name" val="resp" valType="code" updates="None"/>\u000a        <Param name="stopVal" val="1" valType="code" updates="constant"/>\u000a        <Param name="durationEstim" val="" valType="code" updates="None"/>\u000a        <Param name="forceEndRoutine" val="True" valType="bool" updates="constant"/>\u000a        <Param name="startEstim" val="" valType="code" updates="None"/>\u000a        <Param name="discard previous" val="True" valType="bool" updates="constant"/>\u000a        <Param name="startType" val="time (s)" valType="str" updates="None"/>\u000a        <Param name="allowedKeys" val="'u', 'i', 'j', 'k'" valType="code" updates="constant"/>\u000a        <Param name="stopType" val="duration (s)" valType="str" updates="None"/>\u000a        <Param name="startVal" val=".5" valType="code" updates="None"/>\u000a        <Param name="store" val="last key" valType="str" updates="constant"/>\u000a      </KeyboardComponent>\u000a      <TextComponent name="text">\u000a        <Param name="opacity" val="1" valType="code" updates="constant"/>\u000a        <Param name="colorSpace" val="rgb" valType="str" updates="constant"/>\u000a        <Param name="name" val="text" valType="code" updates="None"/>\u000a        <Param name="wrapWidth" val="" valType="code" updates="constant"/>\u000a        <Param name="color" val="white" valType="str" updates="constant"/>\u000a        <Param name="text" val="+" valType="str" updates="constant"/>\u000a        <Param name="stopVal" val="1.5" valType="code" updates="constant"/>\u000a        <Param name="durationEstim" val="" valType="code" updates="None"/>\u000a        <Param name="pos" val="[0, 0]" valType="code" updates="constant"/>\u000a        <Param name="flip" val="" valType="str" updates="constant"/>\u000a        <Param name="startEstim" val="" valType="code" updates="None"/>\u000a        <Param name="units" val="from exp settings" valType="str" updates="None"/>\u000a        <Param name="startType" val="time (s)" valType="str" updates="None"/>\u000a        <Param name="ori" val="0" valType="code" updates="constant"/>\u000a        <Param name="stopType" val="duration (s)" valType="str" updates="None"/>\u000a        <Param name="startVal" val="0.0" valType="code" updates="None"/>\u000a        <Param name="font" val="Arial" valType="str" updates="constant"/>\u000a        <Param name="letterHeight" val="1" valType="code" updates="constant"/>\u000a      </TextComponent>\u000a      <ImageComponent name="image_2">\u000a        <Param name="opacity" val="1" valType="code" updates="constant"/>\u000a        <Param name="flipVert" val="False" valType="bool" updates="constant"/>\u000a        <Param name="colorSpace" val="rgb" valType="str" updates="constant"/>\u000a        <Param name="name" val="image_2" valType="code" updates="None"/>\u000a        <Param name="color" val="$[1,1,1]" valType="str" updates="constant"/>\u000a        <Param name="stopVal" val="1.0" valType="code" updates="constant"/>\u000a        <Param name="durationEstim" val="" valType="code" updates="None"/>\u000a        <Param name="mask" val="None" valType="str" updates="constant"/>\u000a        <Param name="pos" val="$[xPos, yPos]" valType="code" updates="set every repeat"/>\u000a        <Param name="interpolate" val="linear" valType="str" updates="constant"/>\u000a        <Param name="startEstim" val="" valType="code" updates="None"/>\u000a        <Param name="units" val="pix" valType="str" updates="None"/>\u000a        <Param name="texture resolution" val="128" valType="code" updates="constant"/>\u000a        <Param name="startType" val="time (s)" valType="str" updates="None"/>\u000a        <Param name="ori" val="0" valType="code" updates="constant"/>\u000a        <Param name="stopType" val="duration (s)" valType="str" updates="None"/>\u000a        <Param name="startVal" val=".5" valType="code" updates="None"/>\u000a        <Param name="flipHoriz" val="False" valType="bool" updates="constant"/>\u000a        <Param name="image" val="$currentStimulus" valType="str" updates="set every repeat"/>\u000a        <Param name="size" val="[151, 151]" valType="code" updates="constant"/>\u000a      </ImageComponent>\u000a    </Routine>\u000a    <Routine name="newStopStim">\u000a      <CodeComponent name="code_7">\u000a        <Param name="Begin Experiment" val="" valType="extendedCode" updates="constant"/>\u000a        <Param name="name" val="code_7" valType="code" updates="None"/>\u000a        <Param name="Begin Routine" val="currentStopTrial = stopTrialList.pop(0)&#10;currentGoStim = currentStopTrial['fileName']&#10;&#10;if xPosGoStim == -200:&#10;    SSD = SSDLeft + 500&#10;else:&#10;    SSD = SSDRight + 500" valType="extendedCode" updates="constant"/>\u000a        <Param name="End Routine" val="" valType="extendedCode" updates="constant"/>\u000a        <Param name="End Experiment" val="" valType="extendedCode" updates="constant"/>\u000a        <Param name="Each Frame" val="" valType="extendedCode" updates="constant"/>\u000a      </CodeComponent>\u000a    </Routine>\u000a    <Routine name="Blank">\u000a      <TextComponent name="text_2">\u000a        <Param name="opacity" val="1" valType="code" updates="constant"/>\u000a        <Param name="colorSpace" val="rgb" valType="str" updates="constant"/>\u000a        <Param name="name" val="text_2" valType="code" updates="None"/>\u000a        <Param name="wrapWidth" val="" valType="code" updates="constant"/>\u000a        <Param name="color" val="white" valType="str" updates="constant"/>\u000a        <Param name="text" val="" valType="str" updates="constant"/>\u000a        <Param name="stopVal" val=".5" valType="code" updates="constant"/>\u000a        <Param name="durationEstim" val="" valType="code" updates="None"/>\u000a        <Param name="pos" val="[0, 0]" valType="code" updates="constant"/>\u000a        <Param name="flip" val="" valType="str" updates="constant"/>\u000a        <Param name="startEstim" val="" valType="code" updates="None"/>\u000a        <Param name="units" val="from exp settings" valType="str" updates="None"/>\u000a        <Param name="startType" val="time (s)" valType="str" updates="None"/>\u000a        <Param name="ori" val="0" valType="code" updates="constant"/>\u000a        <Param name="stopType" val="duration (s)" valType="str" updates="None"/>\u000a        <Param name="startVal" val="0" valType="code" updates="None"/>\u000a        <Param name="font" val="Arial" valType="str" updates="constant"/>\u000a        <Param name="letterHeight" val="0.1" valType="code" updates="constant"/>\u000a      </TextComponent>\u000a    </Routine>\u000a    <Routine name="StimSetup">\u000a      <CodeComponent name="code">\u000a        <Param name="Begin Experiment" val="from copy import deepcopy&#10;colors = ['yellow', 'white', 'orange', 'magenta', 'green', 'gray', 'cyan', 'blue']&#10;shapes = ['triangle', 'square', 'line', 'invertedtriangle', 'hexagon', 'diamond', 'cross', 'circle']&#10;rewards = [0.50, 1.00, 2.00, 4.00] * 2&#10;conditions = ['go', 'go', 'go', 'go', 'stop', 'stop', 'stop', 'stop']&#10;trialDetailsList = []&#10;learningTrialList = []&#10;&#10;shuffle(colors)&#10;shuffle(shapes)&#10;&#10;for i, color in enumerate(colors): # cycle through each color and keep track of an index number&#10;    trialDetails = {} # a dictionary of key-value pairs&#10;    trialDetails['fileName'] = shapes[i] + color + '.gif'&#10;    trialDetails['reward'] = rewards[i]&#10;    trialDetails['condition'] = conditions[i]&#10;    trialDetailsList.append(trialDetails)&#10;&#10;shuffle(trialDetailsList) # do this now to ensure that order of presentation of rewards and conditions is also shuffled&#10;&#10;conditionOne = trialDetailsList[0]&#10;conditionTwo = trialDetailsList[1]&#10;conditionThree = trialDetailsList[2]&#10;conditionFour = trialDetailsList[3]&#10;conditionFive = trialDetailsList[4]&#10;conditionSix = trialDetailsList[5]&#10;conditionSeven = trialDetailsList[6]&#10;conditionEight = trialDetailsList[7]&#10;&#10;numLearningTrials = 400&#10;numLearningRepetitions = 50&#10;for k in range(1, numLearningRepetitions + 1):&#10;    learningTrialList.append(conditionOne)&#10;    learningTrialList.append(conditionTwo)&#10;    learningTrialList.append(conditionThree)&#10;    learningTrialList.append(conditionFour)&#10;    learningTrialList.append(conditionFive)&#10;    learningTrialList.append(conditionSix)&#10;    learningTrialList.append(conditionSeven)&#10;    learningTrialList.append(conditionEight)&#10;&#10;shuffle(learningTrialList)&#10;&#10;stopTaskTrials = 272&#10;stopTrialsPerStopStim = 26&#10;goTrialsPerStopStim = 8&#10;goTrialsPerGoStim = 34&#10;numStim = 8&#10;stopTrialList = []&#10;&#10;if conditionOne['condition'] == 'go':&#10;    conditionOne['stopOrGo'] = 'go'&#10;    for i in range(1, goTrialsPerGoStim + 1):&#10;        stopTrialList.append(conditionOne)&#10;else:&#10;    for j in range(1, goTrialsPerStopStim + 1):&#10;        conditionOne['stopOrGo'] = 'go'&#10;        stopTrialList.append(deepcopy(conditionOne))&#10;    for i in range(1, stopTrialsPerStopStim + 1):&#10;        conditionOne['stopOrGo'] = 'stop'&#10;        stopTrialList.append(deepcopy(conditionOne))&#10;if conditionTwo['condition'] == 'go':&#10;    conditionTwo['stopOrGo'] = 'go'&#10;    for i in range(1, goTrialsPerGoStim + 1):&#10;        stopTrialList.append(conditionTwo)&#10;else:&#10;    for j in range(1, goTrialsPerStopStim + 1):&#10;        conditionTwo['stopOrGo'] = 'go'&#10;        stopTrialList.append(deepcopy(conditionTwo))&#10;    for i in range(1,  stopTrialsPerStopStim + 1):&#10;        conditionTwo['stopOrGo'] = 'stop'&#10;        stopTrialList.append(deepcopy(conditionTwo))&#10;if conditionThree['condition'] == 'go':&#10;    conditionThree['stopOrGo'] = 'go'&#10;    for i in range(1, goTrialsPerGoStim + 1):&#10;        stopTrialList.append(conditionThree)&#10;else:&#10;    for j in range(1, goTrialsPerStopStim + 1):&#10;        conditionThree['stopOrGo'] = 'go'&#10;        stopTrialList.append(deepcopy(conditionThree))&#10;    for i in range(1, stopTrialsPerStopStim + 1):&#10;        conditionThree['stopOrGo'] = 'stop'&#10;        stopTrialList.append(deepcopy(conditionThree))&#10;if conditionFour['condition'] == 'go':&#10;    conditionFour['stopOrGo'] = 'go'&#10;    for i in range(1, goTrialsPerGoStim + 1):&#10;        stopTrialList.append(conditionFour)&#10;else:&#10;    for j in range(1, goTrialsPerStopStim + 1):&#10;        conditionFour['stopOrGo'] = 'go'&#10;        stopTrialList.append(deepcopy(conditionFour))&#10;    for i in range(1, stopTrialsPerStopStim + 1):&#10;        conditionFour['stopOrGo'] = 'stop'&#10;        stopTrialList.append(deepcopy(conditionFour))&#10;if conditionFive['condition'] == 'go':&#10;    conditionFive['stopOrGo'] = 'go'&#10;    for i in range(1, goTrialsPerGoStim + 1):&#10;        stopTrialList.append(conditionFive)&#10;else:&#10;    for j in range(1, goTrialsPerStopStim + 1):&#10;        conditionFive['stopOrGo'] = 'go'&#10;        stopTrialList.append(deepcopy(conditionFive))&#10;    for i in range(1, stopTrialsPerStopStim + 1):&#10;        conditionFive['stopOrGo'] = 'stop'&#10;        stopTrialList.append(deepcopy(conditionFive))&#10;if conditionSix['condition'] == 'go':&#10;    conditionSix['stopOrGo'] = 'go'&#10;    for i in range(1, goTrialsPerGoStim + 1):&#10;        stopTrialList.append(conditionSix)&#10;else:&#10;    for j in range(1, stopTrialsPerStopStim + 1):&#10;        conditionSix['stopOrGo'] = 'go'&#10;        stopTrialList.append(deepcopy(conditionSix))&#10;    for i in range(1, goTrialsPerStopStim + 1):&#10;        conditionSix['stopOrGo'] = 'stop'&#10;        stopTrialList.append(deepcopy(conditionSix))&#10;if conditionSeven['condition'] == 'go':&#10;    conditionSeven['stopOrGo'] = 'go'&#10;    for i in range(1, goTrialsPerGoStim + 1):&#10;        stopTrialList.append(conditionSeven)&#10;else:&#10;    for j in range(1, goTrialsPerStopStim + 1):&#10;        conditionSeven['stopOrGo'] = 'go'&#10;        stopTrialList.append(deepcopy(conditionSeven))&#10;    for i in range(1, stopTrialsPerStopStim + 1):&#10;        conditionSeven['stopOrGo'] = 'stop'&#10;        stopTrialList.append(deepcopy(conditionSeven))&#10;if conditionEight['condition'] == 'go':&#10;    conditionEight['stopOrGo'] = 'go'&#10;    for i in range(1, goTrialsPerGoStim + 1):&#10;        stopTrialList.append(conditionEight)&#10;else:&#10;    for j in range(1, goTrialsPerStopStim + 1):&#10;        conditionEight['stopOrGo'] = 'go'&#10;        stopTrialList.append(deepcopy(conditionEight))&#10;    for i in range(1, stopTrialsPerStopStim + 1):&#10;        conditionEight['stopOrGo'] = 'stop'&#10;        stopTrialList.append(deepcopy(conditionEight))&#10;&#10;shuffle(stopTrialList)" valType="extendedCode" updates="constant"/>\u000a        <Param name="name" val="code" valType="code" updates="None"/>\u000a        <Param name="Begin Routine" val="" valType="extendedCode" updates="constant"/>\u000a        <Param name="End Routine" val="" valType="extendedCode" updates="constant"/>\u000a        <Param name="End Experiment" val="" valType="extendedCode" updates="constant"/>\u000a        <Param name="Each Frame" val="" valType="extendedCode" updates="constant"/>\u000a      </CodeComponent>\u000a    </Routine>\u000a    <Routine name="instrMain">\u000a      <TextComponent name="instr2">\u000a        <Param name="opacity" val="1" valType="code" updates="constant"/>\u000a        <Param name="colorSpace" val="rgb" valType="str" updates="constant"/>\u000a        <Param name="name" val="instr2" valType="code" updates="constant"/>\u000a        <Param name="wrapWidth" val="" valType="code" updates="constant"/>\u000a        <Param name="color" val="white" valType="str" updates="constant"/>\u000a        <Param name="text" val="A shape stimulus will appear on every trial. &#10;&#10;If it appears in the upper right quadrant, PRESS Y&#10;&#10;If it appears in the lower right quadrant, PRESS H&#10;&#10;If it appears in the lower left quadrant, PRESS G&#10;&#10;If it appears in the upper left quadrant, PRESS T&#10;&#10;Press any key when you are ready to proceed. " valType="str" updates="constant"/>\u000a        <Param name="stopVal" val="" valType="code" updates="constant"/>\u000a        <Param name="durationEstim" val="" valType="code" updates="None"/>\u000a        <Param name="pos" val="[0, 0]" valType="code" updates="constant"/>\u000a        <Param name="flip" val="" valType="str" updates="constant"/>\u000a        <Param name="startEstim" val="" valType="code" updates="None"/>\u000a        <Param name="units" val="from exp settings" valType="str" updates="None"/>\u000a        <Param name="startType" val="time (s)" valType="str" updates="None"/>\u000a        <Param name="ori" val="0" valType="code" updates="constant"/>\u000a        <Param name="stopType" val="duration (s)" valType="str" updates="None"/>\u000a        <Param name="startVal" val="0.0" valType="code" updates="None"/>\u000a        <Param name="font" val="Arial" valType="str" updates="constant"/>\u000a        <Param name="letterHeight" val="0.075" valType="code" updates="constant"/>\u000a      </TextComponent>\u000a      <KeyboardComponent name="ok2">\u000a        <Param name="correctAns" val="" valType="str" updates="constant"/>\u000a        <Param name="storeCorrect" val="False" valType="bool" updates="constant"/>\u000a        <Param name="name" val="ok2" valType="code" updates="None"/>\u000a        <Param name="stopVal" val="" valType="code" updates="constant"/>\u000a        <Param name="durationEstim" val="" valType="code" updates="None"/>\u000a        <Param name="forceEndRoutine" val="True" valType="bool" updates="constant"/>\u000a        <Param name="startEstim" val="" valType="code" updates="None"/>\u000a        <Param name="discard previous" val="True" valType="bool" updates="constant"/>\u000a        <Param name="startType" val="time (s)" valType="str" updates="None"/>\u000a        <Param name="allowedKeys" val="" valType="code" updates="constant"/>\u000a        <Param name="stopType" val="duration (s)" valType="str" updates="None"/>\u000a        <Param name="startVal" val="0.0" valType="code" updates="None"/>\u000a        <Param name="store" val="nothing" valType="str" updates="constant"/>\u000a      </KeyboardComponent>\u000a    </Routine>\u000a    <Routine name="feedback">\u000a      <CodeComponent name="message">\u000a        <Param name="Begin Experiment" val="#message variable just needs some value at start&#10;message=0" valType="extendedCode" updates="constant"/>\u000a        <Param name="name" val="message" valType="code" updates="None"/>\u000a        <Param name="Begin Routine" val="import random&#10;&#10;displayReward = random.randrange(1, 6)&#10;&#10;if resp.corr:#stored on last run routine&#10;    if displayReward == 1:&#10;            message = &quot;You won $&quot; + str(0);&#10;    else: &#10;            currentReward = currentLearningTrial['reward']&#10;            message = &quot;You won $&quot; + str(currentReward + (random.randrange(-25, 26)*.01))&#10;elif resp.keys is None: #or len(key_resp.keys)&lt;1:&#10;#elif resp.rt == 0:&#10;    message =&quot;Too Slow&quot;&#10;else:&#10;  message=&quot;Wrong&quot;" valType="extendedCode" updates="constant"/>\u000a        <Param name="End Routine" val="" valType="extendedCode" updates="constant"/>\u000a        <Param name="End Experiment" val="" valType="extendedCode" updates="constant"/>\u000a        <Param name="Each Frame" val="" valType="extendedCode" updates="constant"/>\u000a      </CodeComponent>\u000a      <TextComponent name="feedback_2">\u000a        <Param name="opacity" val="1" valType="code" updates="constant"/>\u000a        <Param name="colorSpace" val="rgb" valType="str" updates="constant"/>\u000a        <Param name="name" val="feedback_2" valType="code" updates="constant"/>\u000a        <Param name="wrapWidth" val="" valType="code" updates="constant"/>\u000a        <Param name="color" val="$[1,1,1]" valType="str" updates="constant"/>\u000a        <Param name="text" val="$message" valType="str" updates="set every repeat"/>\u000a        <Param name="stopVal" val="1.0" valType="code" updates="constant"/>\u000a        <Param name="durationEstim" val="" valType="code" updates="None"/>\u000a        <Param name="pos" val="[0, 0]" valType="code" updates="constant"/>\u000a        <Param name="flip" val="" valType="str" updates="constant"/>\u000a        <Param name="startEstim" val="" valType="code" updates="None"/>\u000a        <Param name="units" val="from exp settings" valType="str" updates="None"/>\u000a        <Param name="startType" val="time (s)" valType="str" updates="None"/>\u000a        <Param name="ori" val="0" valType="code" updates="constant"/>\u000a        <Param name="stopType" val="duration (s)" valType="str" updates="None"/>\u000a        <Param name="startVal" val="0.0" valType="code" updates="None"/>\u000a        <Param name="font" val="Arial" valType="str" updates="constant"/>\u000a        <Param name="letterHeight" val=".2" valType="code" updates="constant"/>\u000a      </TextComponent>\u000a      <ImageComponent name="image">\u000a        <Param name="opacity" val="1" valType="code" updates="constant"/>\u000a        <Param name="flipVert" val="False" valType="bool" updates="constant"/>\u000a        <Param name="colorSpace" val="rgb" valType="str" updates="constant"/>\u000a        <Param name="name" val="image" valType="code" updates="None"/>\u000a        <Param name="color" val="$[1,1,1]" valType="str" updates="constant"/>\u000a        <Param name="stopVal" val="1.0" valType="code" updates="constant"/>\u000a        <Param name="durationEstim" val="" valType="code" updates="None"/>\u000a        <Param name="mask" val="None" valType="str" updates="constant"/>\u000a        <Param name="pos" val="$[xPos, yPos]" valType="code" updates="set every repeat"/>\u000a        <Param name="interpolate" val="linear" valType="str" updates="constant"/>\u000a        <Param name="startEstim" val="" valType="code" updates="None"/>\u000a        <Param name="units" val="pix" valType="str" updates="None"/>\u000a        <Param name="texture resolution" val="128" valType="code" updates="constant"/>\u000a        <Param name="startType" val="time (s)" valType="str" updates="None"/>\u000a        <Param name="ori" val="0" valType="code" updates="constant"/>\u000a        <Param name="stopType" val="duration (s)" valType="str" updates="None"/>\u000a        <Param name="startVal" val="0.0" valType="code" updates="None"/>\u000a        <Param name="flipHoriz" val="False" valType="bool" updates="constant"/>\u000a        <Param name="image" val="$currentStimulus" valType="str" updates="set every repeat"/>\u000a        <Param name="size" val="[151, 151]" valType="code" updates="constant"/>\u000a      </ImageComponent>\u000a    </Routine>\u000a    <Routine name="Bank"/>\u000a    <Routine name="StopTrial">\u000a      <SoundComponent name="sound_1">\u000a        <Param name="sound" val="900" valType="str" updates="constant"/>\u000a        <Param name="volume" val="1" valType="code" updates="constant"/>\u000a        <Param name="name" val="sound_1" valType="code" updates="None"/>\u000a        <Param name="stopVal" val=".2" valType="code" updates="constant"/>\u000a        <Param name="durationEstim" val="" valType="code" updates="None"/>\u000a        <Param name="startEstim" val=".75" valType="code" updates="None"/>\u000a        <Param name="startType" val="time (s)" valType="str" updates="None"/>\u000a        <Param name="stopType" val="duration (s)" valType="str" updates="None"/>\u000a        <Param name="startVal" val="750" valType="code" updates="None"/>\u000a      </SoundComponent>\u000a      <TextComponent name="text_3">\u000a        <Param name="opacity" val="1" valType="code" updates="constant"/>\u000a        <Param name="colorSpace" val="rgb" valType="str" updates="constant"/>\u000a        <Param name="name" val="text_3" valType="code" updates="None"/>\u000a        <Param name="wrapWidth" val="" valType="code" updates="constant"/>\u000a        <Param name="color" val="white" valType="str" updates="constant"/>\u000a        <Param name="text" val="|" valType="str" updates="constant"/>\u000a        <Param name="stopVal" val="1.5" valType="code" updates="constant"/>\u000a        <Param name="durationEstim" val="" valType="code" updates="None"/>\u000a        <Param name="pos" val="[0, 0]" valType="code" updates="constant"/>\u000a        <Param name="flip" val="" valType="str" updates="constant"/>\u000a        <Param name="startEstim" val="" valType="code" updates="None"/>\u000a        <Param name="units" val="from exp settings" valType="str" updates="None"/>\u000a        <Param name="startType" val="time (s)" valType="str" updates="None"/>\u000a        <Param name="ori" val="0" valType="code" updates="constant"/>\u000a        <Param name="stopType" val="duration (s)" valType="str" updates="None"/>\u000a        <Param name="startVal" val="0.0" valType="code" updates="None"/>\u000a        <Param name="font" val="Arial" valType="str" updates="constant"/>\u000a        <Param name="letterHeight" val="4" valType="code" updates="constant"/>\u000a      </TextComponent>\u000a      <ImageComponent name="image_3">\u000a        <Param name="opacity" val="1" valType="code" updates="constant"/>\u000a        <Param name="flipVert" val="False" valType="bool" updates="constant"/>\u000a        <Param name="colorSpace" val="rgb" valType="str" updates="constant"/>\u000a        <Param name="name" val="image_3" valType="code" updates="None"/>\u000a        <Param name="color" val="$[1,1,1]" valType="str" updates="constant"/>\u000a        <Param name="stopVal" val="1.0" valType="code" updates="constant"/>\u000a        <Param name="durationEstim" val="" valType="code" updates="None"/>\u000a        <Param name="mask" val="None" valType="str" updates="constant"/>\u000a        <Param name="pos" val="$[xPosGoStim, yPosGoStim]" valType="code" updates="set every repeat"/>\u000a        <Param name="interpolate" val="linear" valType="str" updates="constant"/>\u000a        <Param name="startEstim" val="" valType="code" updates="None"/>\u000a        <Param name="units" val="pix" valType="str" updates="None"/>\u000a        <Param name="texture resolution" val="128" valType="code" updates="constant"/>\u000a        <Param name="startType" val="time (s)" valType="str" updates="None"/>\u000a        <Param name="ori" val="0" valType="code" updates="constant"/>\u000a        <Param name="stopType" val="duration (s)" valType="str" updates="None"/>\u000a        <Param name="startVal" val=".5" valType="code" updates="None"/>\u000a        <Param name="flipHoriz" val="False" valType="bool" updates="constant"/>\u000a        <Param name="image" val="$currentGoStim" valType="str" updates="set every repeat"/>\u000a        <Param name="size" val="[151, 151]" valType="code" updates="constant"/>\u000a      </ImageComponent>\u000a      <KeyboardComponent name="goResp">\u000a        <Param name="correctAns" val="$corrGoResp" valType="str" updates="constant"/>\u000a        <Param name="storeCorrect" val="True" valType="bool" updates="constant"/>\u000a        <Param name="name" val="goResp" valType="code" updates="None"/>\u000a        <Param name="stopVal" val="1" valType="code" updates="constant"/>\u000a        <Param name="durationEstim" val="" valType="code" updates="None"/>\u000a        <Param name="forceEndRoutine" val="False" valType="bool" updates="constant"/>\u000a        <Param name="startEstim" val="" valType="code" updates="None"/>\u000a        <Param name="discard previous" val="True" valType="bool" updates="constant"/>\u000a        <Param name="startType" val="time (s)" valType="str" updates="None"/>\u000a        <Param name="allowedKeys" val="'z','m'" valType="code" updates="constant"/>\u000a        <Param name="stopType" val="duration (s)" valType="str" updates="None"/>\u000a        <Param name="startVal" val=".5" valType="code" updates="None"/>\u000a        <Param name="store" val="first key" valType="str" updates="constant"/>\u000a      </KeyboardComponent>\u000a    </Routine>\u000a  </Routines>\u000a  <Flow>\u000a    <Routine name="StimSetup"/>\u000a    <Routine name="instrPractice"/>\u000a    <LoopInitiator loopType="TrialHandler" name="Blocks">\u000a      <Param name="conditionsFile" val="" valType="str" updates="None"/>\u000a      <Param name="name" val="Blocks" valType="code" updates="None"/>\u000a      <Param name="isTrials" val="True" valType="bool" updates="None"/>\u000a      <Param name="random seed" val="" valType="code" updates="None"/>\u000a      <Param name="loopType" val="sequential" valType="str" updates="None"/>\u000a      <Param name="nReps" val="0" valType="code" updates="None"/>\u000a      <Param name="endPoints" val="[0, 1]" valType="num" updates="None"/>\u000a      <Param name="conditions" val="None" valType="str" updates="None"/>\u000a      <Param name="Selected rows" val="" valType="str" updates="None"/>\u000a    </LoopInitiator>\u000a    <Routine name="ResetAtBlock"/>\u000a    <LoopInitiator loopType="TrialHandler" name="trials">\u000a      <Param name="conditionsFile" val="TrialtypesLearning.xlsx" valType="str" updates="None"/>\u000a      <Param name="name" val="trials" valType="code" updates="None"/>\u000a      <Param name="isTrials" val="True" valType="bool" updates="None"/>\u000a      <Param name="random seed" val="" valType="code" updates="None"/>\u000a      <Param name="loopType" val="fullRandom" valType="str" updates="None"/>\u000a      <Param name="nReps" val="25" valType="num" updates="None"/>\u000a      <Param name="endPoints" val="[0, 1]" valType="num" updates="None"/>\u000a      <Param name="conditions" val="[{u'xPos': 200, u'corrAns': u'h', u'yPos': 200}, {u'xPos': -200, u'corrAns': u'g', u'yPos': 200}, {u'xPos': 200, u'corrAns': u'n', u'yPos': -200}, {u'xPos': -200, u'corrAns': u'b', u'yPos': -200}]" valType="str" updates="None"/>\u000a      <Param name="Selected rows" val="" valType="str" updates="None"/>\u000a    </LoopInitiator>\u000a    <Routine name="NewStim"/>\u000a    <LoopInitiator loopType="TrialHandler" name="ReDoLoopMain">\u000a      <Param name="conditionsFile" val="" valType="str" updates="None"/>\u000a      <Param name="name" val="ReDoLoopMain" valType="code" updates="None"/>\u000a      <Param name="isTrials" val="False" valType="bool" updates="None"/>\u000a      <Param name="random seed" val="" valType="code" updates="None"/>\u000a      <Param name="loopType" val="random" valType="str" updates="None"/>\u000a      <Param name="nReps" val="999" valType="code" updates="None"/>\u000a      <Param name="endPoints" val="[0, 1]" valType="num" updates="None"/>\u000a      <Param name="conditions" val="None" valType="str" updates="None"/>\u000a      <Param name="Selected rows" val="" valType="str" updates="None"/>\u000a    </LoopInitiator>\u000a    <Routine name="trial"/>\u000a    <Routine name="feedback"/>\u000a    <Routine name="Blank"/>\u000a    <Routine name="ExitMain"/>\u000a    <LoopTerminator name="ReDoLoopMain"/>\u000a    <LoopTerminator name="trials"/>\u000a    <LoopTerminator name="Blocks"/>\u000a    <Routine name="instrStopPrac"/>\u000a    <LoopInitiator loopType="TrialHandler" name="StopBlocks">\u000a      <Param name="conditionsFile" val="" valType="str" updates="None"/>\u000a      <Param name="name" val="StopBlocks" valType="code" updates="None"/>\u000a      <Param name="isTrials" val="True" valType="bool" updates="None"/>\u000a      <Param name="random seed" val="" valType="code" updates="None"/>\u000a      <Param name="loopType" val="sequential" valType="str" updates="None"/>\u000a      <Param name="nReps" val="4" valType="code" updates="None"/>\u000a      <Param name="endPoints" val="[0, 1]" valType="num" updates="None"/>\u000a      <Param name="conditions" val="None" valType="str" updates="None"/>\u000a      <Param name="Selected rows" val="" valType="str" updates="None"/>\u000a    </LoopInitiator>\u000a    <Routine name="stopBlockSetup"/>\u000a    <LoopInitiator loopType="TrialHandler" name="StopTrials">\u000a      <Param name="conditionsFile" val="trialtypeStop.xlsx" valType="str" updates="None"/>\u000a      <Param name="name" val="StopTrials" valType="code" updates="None"/>\u000a      <Param name="isTrials" val="True" valType="bool" updates="None"/>\u000a      <Param name="random seed" val="" valType="code" updates="None"/>\u000a      <Param name="loopType" val="fullRandom" valType="str" updates="None"/>\u000a      <Param name="nReps" val="2" valType="code" updates="None"/>\u000a      <Param name="endPoints" val="[0, 1]" valType="num" updates="None"/>\u000a      <Param name="conditions" val="[{u'corrGoResp': u'z', u'yPosGoStim': 0, u'xPosGoStim': -200}, {u'corrGoResp': u'm', u'yPosGoStim': 0, u'xPosGoStim': 200}]" valType="str" updates="None"/>\u000a      <Param name="Selected rows" val="" valType="str" updates="None"/>\u000a    </LoopInitiator>\u000a    <Routine name="newStopStim"/>\u000a    <Routine name="StopTrial"/>\u000a    <Routine name="blankStop"/>\u000a    <Routine name="SSDChange"/>\u000a    <LoopTerminator name="StopTrials"/>\u000a    <Routine name="endOfStopBlockFeedback"/>\u000a    <LoopTerminator name="StopBlocks"/>\u000a    <Routine name="End"/>\u000a  </Flow>\u000a</PsychoPy2experiment>\u000a
p141
sg42
(lp142
sg43
I305533200
sg11
S'Blocks'
p143
sg6
g7
sg45
I0
sg19
I01
sg20
g21
sg46
g1
(g47
g48
(dp144
g50
g51
(g52
g53
g54
S'b'
tRp145
(I1
(I1
I0
tg56
I00
S''
S''
Ntbsg57
g51
(g52
g53
g54
S'b'
tRp146
(I1
(I1
I0
tg56
I00
S''
S''
NtbstRp147
(dp148
g61
(dp149
g50
I01
sg57
I01
ssg63
g139
sg64
(lp150
g50
ag57
asg66
(lp151
I1
aI0
asbsg68
g69
sg70
g71
(g53
(I0
tS'b'
tRp152
(I1
(I1
I0
tg73
I00
S''
tbsg74
I01
sg75
I0
sg76
I-1
sg77
(lp153
Nasg79
Nsg80
I0
sg82
I0
sg83
I0
sg84
I0
sg85
I01
sbag38
ag86
asS'savePickle'
p154
I00
sb.