ccopy_reg
_reconstructor
p1
(cpsychopy.data
ExperimentHandler
p2
c__builtin__
object
p3
NtRp4
(dp5
S'originPath'
p6
V/Users/patrickbissett/OneDrive/Poldrack/TrainedInhibition/PsychoPy/ShapeLearningTaskCounterbalanceRemovePrac17.psyexp
p7
sS'dataFileName'
p8
V/Users/patrickbissett/OneDrive/Poldrack/TrainedInhibition/PsychoPy/data/53634_2015_Mar_31_1623
p9
sS'runtimeInfo'
p10
NsS'name'
p11
S'LearningTask'
p12
sS'dataNames'
p13
(lp14
S'ok1.keys'
p15
aS'ok1.rt'
p16
aS'beginningSSD'
p17
aS'trialType'
p18
aS'goStim'
p19
aS'goResp.keys'
p20
aS'goResp.corr'
p21
aS'goResp.rt'
p22
aS'goTrailCountOutput'
p23
aS'goCumRTOutput'
p24
aS'goRTCountOutput'
p25
aS'stopTrialCountOutput'
p26
aS'stopSuccessCountOutput'
p27
aS'omissionCountOutput'
p28
aS'commissionCountOutput'
p29
aS'EndingSSD'
p30
asS'autoLog'
p31
I01
sS'extraInfo'
p32
(dp33
S'expName'
p34
g12
sS'gender (m/f)'
p35
V
sS'age'
p36
V
sS'frameRate'
p37
cnumpy.core.multiarray
scalar
p38
(cnumpy
dtype
p39
(S'f8'
I0
I1
tRp40
(I3
S'<'
NNNI-1
I-1
I0
tbS'|\xba\xfb\x9e\x95\xf5M@'
tRp41
sS'session'
p42
I3
sS'date'
p43
V2015_Mar_31_1623
p44
sS'participant'
p45
V53634
p46
ssS'loopsUnfinished'
p47
(lp48
g1
(cpsychopy.data
TrialHandler
p49
g3
NtRp50
(dp51
S'origin'
p52
V<PsychoPy2experiment version="1.82.01" encoding="utf-8">\u000a  <Settings>\u000a    <Param name="Show mouse" val="False" valType="bool" updates="None"/>\u000a    <Param name="Data filename" val="u'data' + os.sep + '%s_%s' %(expInfo['participant'], expInfo['date'])" valType="code" updates="None"/>\u000a    <Param name="Monitor" val="testMonitor" valType="str" updates="None"/>\u000a    <Param name="Enable Escape" val="True" valType="bool" updates="None"/>\u000a    <Param name="color" val="black" valType="str" updates="None"/>\u000a    <Param name="Window size (pixels)" val="[1680, 1050]" valType="code" updates="None"/>\u000a    <Param name="Full-screen window" val="True" valType="bool" updates="None"/>\u000a    <Param name="colorSpace" val="rgb" valType="str" updates="None"/>\u000a    <Param name="Experiment info" val="{'participant':'', 'gender (m/f)':'', 'age':'', 'session':03}" valType="code" updates="None"/>\u000a    <Param name="Save csv file" val="False" valType="bool" updates="None"/>\u000a    <Param name="Show info dlg" val="True" valType="bool" updates="None"/>\u000a    <Param name="Save wide csv file" val="True" valType="bool" updates="None"/>\u000a    <Param name="Save psydat file" val="True" valType="bool" updates="None"/>\u000a    <Param name="expName" val="LearningTask" valType="str" updates="None"/>\u000a    <Param name="logging level" val="warning" valType="code" updates="None"/>\u000a    <Param name="blendMode" val="avg" valType="str" updates="None"/>\u000a    <Param name="Save excel file" val="True" valType="bool" updates="None"/>\u000a    <Param name="Units" val="use prefs" valType="str" updates="None"/>\u000a    <Param name="Save log file" val="True" valType="bool" updates="None"/>\u000a    <Param name="Screen" val="1" valType="num" updates="None"/>\u000a  </Settings>\u000a  <Routines>\u000a    <Routine name="stopBlockSetup">\u000a      <CodeComponent name="code_9">\u000a        <Param name="Begin Experiment" val="goCumRT = 0&#10;goRTCount = 0&#10;omissionCount = 0&#10;commissionCount = 0&#10;stopTrialCount = 0&#10;stopSuccessCount = 0&#10;goTrialCount = 0" valType="extendedCode" updates="constant"/>\u000a        <Param name="name" val="code_9" valType="code" updates="None"/>\u000a        <Param name="Begin Routine" val="" valType="extendedCode" updates="constant"/>\u000a        <Param name="End Routine" val="" valType="extendedCode" updates="constant"/>\u000a        <Param name="End Experiment" val="" valType="extendedCode" updates="constant"/>\u000a        <Param name="Each Frame" val="" valType="extendedCode" updates="constant"/>\u000a      </CodeComponent>\u000a    </Routine>\u000a    <Routine name="blankStop">\u000a      <TextComponent name="text_4">\u000a        <Param name="opacity" val="1" valType="code" updates="constant"/>\u000a        <Param name="colorSpace" val="rgb" valType="str" updates="constant"/>\u000a        <Param name="name" val="text_4" valType="code" updates="None"/>\u000a        <Param name="wrapWidth" val="" valType="code" updates="constant"/>\u000a        <Param name="color" val="white" valType="str" updates="constant"/>\u000a        <Param name="text" val="" valType="str" updates="constant"/>\u000a        <Param name="stopVal" val="1.5" valType="code" updates="constant"/>\u000a        <Param name="durationEstim" val="" valType="code" updates="None"/>\u000a        <Param name="pos" val="[0, 0]" valType="code" updates="constant"/>\u000a        <Param name="flip" val="" valType="str" updates="constant"/>\u000a        <Param name="startEstim" val="" valType="code" updates="None"/>\u000a        <Param name="units" val="from exp settings" valType="str" updates="None"/>\u000a        <Param name="startType" val="time (s)" valType="str" updates="None"/>\u000a        <Param name="ori" val="0" valType="code" updates="constant"/>\u000a        <Param name="stopType" val="duration (s)" valType="str" updates="None"/>\u000a        <Param name="startVal" val="0.0" valType="code" updates="None"/>\u000a        <Param name="font" val="Arial" valType="str" updates="constant"/>\u000a        <Param name="letterHeight" val="0.1" valType="code" updates="constant"/>\u000a      </TextComponent>\u000a    </Routine>\u000a    <Routine name="End">\u000a      <TextComponent name="text_6">\u000a        <Param name="opacity" val="1" valType="code" updates="constant"/>\u000a        <Param name="colorSpace" val="rgb" valType="str" updates="constant"/>\u000a        <Param name="name" val="text_6" valType="code" updates="None"/>\u000a        <Param name="wrapWidth" val="" valType="code" updates="constant"/>\u000a        <Param name="color" val="white" valType="str" updates="constant"/>\u000a        <Param name="text" val="This is the end, beautiful friend" valType="str" updates="constant"/>\u000a        <Param name="stopVal" val="5" valType="code" updates="constant"/>\u000a        <Param name="durationEstim" val="" valType="code" updates="None"/>\u000a        <Param name="pos" val="[0, 0]" valType="code" updates="constant"/>\u000a        <Param name="flip" val="" valType="str" updates="constant"/>\u000a        <Param name="startEstim" val="" valType="code" updates="None"/>\u000a        <Param name="units" val="from exp settings" valType="str" updates="None"/>\u000a        <Param name="startType" val="time (s)" valType="str" updates="None"/>\u000a        <Param name="ori" val="0" valType="code" updates="constant"/>\u000a        <Param name="stopType" val="duration (s)" valType="str" updates="None"/>\u000a        <Param name="startVal" val="0.0" valType="code" updates="None"/>\u000a        <Param name="font" val="Arial" valType="str" updates="constant"/>\u000a        <Param name="letterHeight" val="0.1" valType="code" updates="constant"/>\u000a      </TextComponent>\u000a    </Routine>\u000a    <Routine name="instrStopPrac">\u000a      <TextComponent name="instrStopText">\u000a        <Param name="opacity" val="1" valType="code" updates="constant"/>\u000a        <Param name="colorSpace" val="rgb" valType="str" updates="constant"/>\u000a        <Param name="name" val="instrStopText" valType="code" updates="None"/>\u000a        <Param name="wrapWidth" val="" valType="code" updates="constant"/>\u000a        <Param name="color" val="white" valType="str" updates="constant"/>\u000a        <Param name="text" val="A shape stimulus will appear on the left or right side of the screen&#10;&#10;If it appears on the left, press Z&#10;&#10;If it appears on the right, press M&#10;&#10;If you hear a tone, do not press anything on that trial" valType="str" updates="constant"/>\u000a        <Param name="stopVal" val="" valType="code" updates="constant"/>\u000a        <Param name="durationEstim" val="" valType="code" updates="None"/>\u000a        <Param name="pos" val="[0, 0]" valType="code" updates="constant"/>\u000a        <Param name="flip" val="" valType="str" updates="constant"/>\u000a        <Param name="startEstim" val="" valType="code" updates="None"/>\u000a        <Param name="units" val="from exp settings" valType="str" updates="None"/>\u000a        <Param name="startType" val="time (s)" valType="str" updates="None"/>\u000a        <Param name="ori" val="0" valType="code" updates="constant"/>\u000a        <Param name="stopType" val="duration (s)" valType="str" updates="None"/>\u000a        <Param name="startVal" val="0.0" valType="code" updates="None"/>\u000a        <Param name="font" val="Arial" valType="str" updates="constant"/>\u000a        <Param name="letterHeight" val="0.1" valType="code" updates="constant"/>\u000a      </TextComponent>\u000a      <KeyboardComponent name="key_resp_2">\u000a        <Param name="correctAns" val="" valType="str" updates="constant"/>\u000a        <Param name="storeCorrect" val="False" valType="bool" updates="constant"/>\u000a        <Param name="name" val="key_resp_2" valType="code" updates="None"/>\u000a        <Param name="stopVal" val="" valType="code" updates="constant"/>\u000a        <Param name="durationEstim" val="" valType="code" updates="None"/>\u000a        <Param name="forceEndRoutine" val="True" valType="bool" updates="constant"/>\u000a        <Param name="startEstim" val="" valType="code" updates="None"/>\u000a        <Param name="discard previous" val="True" valType="bool" updates="constant"/>\u000a        <Param name="startType" val="time (s)" valType="str" updates="None"/>\u000a        <Param name="allowedKeys" val="" valType="code" updates="constant"/>\u000a        <Param name="stopType" val="duration (s)" valType="str" updates="None"/>\u000a        <Param name="startVal" val="0.0" valType="code" updates="None"/>\u000a        <Param name="store" val="nothing" valType="str" updates="constant"/>\u000a      </KeyboardComponent>\u000a      <CodeComponent name="code_8">\u000a        <Param name="Begin Experiment" val="" valType="extendedCode" updates="constant"/>\u000a        <Param name="name" val="code_8" valType="code" updates="None"/>\u000a        <Param name="Begin Routine" val="InitSSD = .25&#10;SSDLeft = InitSSD&#10;SSDRight = InitSSD" valType="extendedCode" updates="constant"/>\u000a        <Param name="End Routine" val="" valType="extendedCode" updates="constant"/>\u000a        <Param name="End Experiment" val="" valType="extendedCode" updates="constant"/>\u000a        <Param name="Each Frame" val="" valType="extendedCode" updates="constant"/>\u000a      </CodeComponent>\u000a    </Routine>\u000a    <Routine name="ExitMain">\u000a      <CodeComponent name="code_6">\u000a        <Param name="Begin Experiment" val="" valType="extendedCode" updates="constant"/>\u000a        <Param name="name" val="code_6" valType="code" updates="None"/>\u000a        <Param name="Begin Routine" val="" valType="extendedCode" updates="constant"/>\u000a        <Param name="End Routine" val="if resp.corr:&#10;    ReDoLoopMain.finished = True" valType="extendedCode" updates="constant"/>\u000a        <Param name="End Experiment" val="" valType="extendedCode" updates="constant"/>\u000a        <Param name="Each Frame" val="" valType="extendedCode" updates="constant"/>\u000a      </CodeComponent>\u000a    </Routine>\u000a    <Routine name="endOfStopBlockFeedback">\u000a      <CodeComponent name="code_10">\u000a        <Param name="Begin Experiment" val="" valType="extendedCode" updates="constant"/>\u000a        <Param name="name" val="code_10" valType="code" updates="None"/>\u000a        <Param name="Begin Routine" val="if goRTCount &gt; 0:&#10;    goRTFeedback = goCumRT/goRTCount&#10;else:&#10;    goRTFeedback = 'Null'&#10;&#10;if goTrialCount &gt; 0:&#10;    commissionRate = commissionCount/goTrialCount&#10;    omissionRate = omissionCount/goTrialCount&#10;else: &#10;    commissionRate = 'Null'&#10;    omissionRate = 'Null'&#10;&#10;if stopTrialCount &gt; 0: &#10;    probabilityOfStop = stopSuccessCount/stopTrialCount&#10;    probabilityOfStop = round(probabilityOfStop, 2)&#10;else:&#10;    probabilityOfStop = 'Null'&#10;&#10;SSDFeedback = (SSDLeft+SSDRight)/2&#10;&#10;stopMessage = &quot; RT = &quot; + str(goRTFeedback) + &quot;\u005cn Omission % = &quot; + str(omissionRate) + &quot;\u005cn Commission % = &quot; + str(commissionRate) + &quot;\u005cn\u005cn\u005cn\u005cn &quot; + str(probabilityOfStop) + &quot;\u005cn &quot; + str(SSDFeedback)" valType="extendedCode" updates="constant"/>\u000a        <Param name="End Routine" val="" valType="extendedCode" updates="constant"/>\u000a        <Param name="End Experiment" val="" valType="extendedCode" updates="constant"/>\u000a        <Param name="Each Frame" val="" valType="extendedCode" updates="constant"/>\u000a      </CodeComponent>\u000a      <TextComponent name="text_5">\u000a        <Param name="opacity" val="1" valType="code" updates="constant"/>\u000a        <Param name="colorSpace" val="rgb" valType="str" updates="constant"/>\u000a        <Param name="name" val="text_5" valType="code" updates="None"/>\u000a        <Param name="wrapWidth" val="" valType="code" updates="constant"/>\u000a        <Param name="color" val="white" valType="str" updates="constant"/>\u000a        <Param name="text" val="$stopMessage&#10;" valType="str" updates="set every repeat"/>\u000a        <Param name="stopVal" val="" valType="code" updates="constant"/>\u000a        <Param name="durationEstim" val="" valType="code" updates="None"/>\u000a        <Param name="pos" val="[0, 0]" valType="code" updates="constant"/>\u000a        <Param name="flip" val="" valType="str" updates="constant"/>\u000a        <Param name="startEstim" val="" valType="code" updates="None"/>\u000a        <Param name="units" val="from exp settings" valType="str" updates="None"/>\u000a        <Param name="startType" val="time (s)" valType="str" updates="None"/>\u000a        <Param name="ori" val="0" valType="code" updates="constant"/>\u000a        <Param name="stopType" val="duration (s)" valType="str" updates="None"/>\u000a        <Param name="startVal" val="0.0" valType="code" updates="None"/>\u000a        <Param name="font" val="Arial" valType="str" updates="constant"/>\u000a        <Param name="letterHeight" val="0.1" valType="code" updates="constant"/>\u000a      </TextComponent>\u000a      <KeyboardComponent name="key_resp_3">\u000a        <Param name="correctAns" val="" valType="str" updates="constant"/>\u000a        <Param name="storeCorrect" val="False" valType="bool" updates="constant"/>\u000a        <Param name="name" val="key_resp_3" valType="code" updates="None"/>\u000a        <Param name="stopVal" val="" valType="code" updates="constant"/>\u000a        <Param name="durationEstim" val="" valType="code" updates="None"/>\u000a        <Param name="forceEndRoutine" val="True" valType="bool" updates="constant"/>\u000a        <Param name="startEstim" val="" valType="code" updates="None"/>\u000a        <Param name="discard previous" val="True" valType="bool" updates="constant"/>\u000a        <Param name="startType" val="time (s)" valType="str" updates="None"/>\u000a        <Param name="allowedKeys" val="'y','n','left','right','space'" valType="code" updates="set every repeat"/>\u000a        <Param name="stopType" val="duration (s)" valType="str" updates="None"/>\u000a        <Param name="startVal" val="0.0" valType="code" updates="None"/>\u000a        <Param name="store" val="last key" valType="str" updates="constant"/>\u000a      </KeyboardComponent>\u000a    </Routine>\u000a    <Routine name="NewStim">\u000a      <CodeComponent name="code_4">\u000a        <Param name="Begin Experiment" val="" valType="extendedCode" updates="constant"/>\u000a        <Param name="name" val="code_4" valType="code" updates="None"/>\u000a        <Param name="Begin Routine" val="currentLearningTrial = learningTrialList.pop(0)&#10;currentStimulus = currentLearningTrial['fileName']&#10;" valType="extendedCode" updates="constant"/>\u000a        <Param name="End Routine" val="" valType="extendedCode" updates="constant"/>\u000a        <Param name="End Experiment" val="" valType="extendedCode" updates="constant"/>\u000a        <Param name="Each Frame" val="" valType="extendedCode" updates="constant"/>\u000a      </CodeComponent>\u000a    </Routine>\u000a    <Routine name="SSDChange">\u000a      <CodeComponent name="code_2">\u000a        <Param name="Begin Experiment" val="" valType="extendedCode" updates="constant"/>\u000a        <Param name="name" val="code_2" valType="code" updates="None"/>\u000a        <Param name="Begin Routine" val="if currentStopTrial['stopOrGo'] == 'stop':&#10;    if goResp.keys is None:&#10;        if SSD &lt;= 800:&#10;            if xPosGoStim == -200:&#10;                SSDLeft = deepcopy(SSDLeft)  + .05&#10;                SSD = SSDLeft&#10;            if xPosGoStim == 200:&#10;                SSDRight = deepcopy(SSDRight) + .05&#10;                SSD = SSDRight&#10;    else:&#10;        if SSD &gt; 0:&#10;            if xPosGoStim == -200:&#10;                SSDLeft = deepcopy(SSDLeft) - .05&#10;                SSD = SSDLeft&#10;            if xPosGoStim == 200:&#10;                SSDRight = deepcopy(SSDRight) - .05&#10;                SSD = SSDRight&#10;&#10;if currentStopTrial['stopOrGo'] == 'go':&#10;    goTrialCount = goTrialCount + 1&#10;&#10;if goResp.corr and currentStopTrial['stopOrGo'] == 'go':&#10;    goCumRT = goCumRT + goResp.rt&#10;    goRTCount = goRTCount + 1&#10;&#10;if currentStopTrial['stopOrGo'] == 'stop':&#10;    stopTrialCount = stopTrialCount + 1&#10;&#10;if currentStopTrial['stopOrGo'] == 'stop' and goResp.keys is None:&#10;    stopSuccessCount = stopSuccessCount + 1&#10;&#10;if currentStopTrial['stopOrGo'] == 'go':&#10;    if goResp.keys is None:&#10;        omissionCount = omissionCount + 1&#10;    elif goResp.corr == 0:&#10;        commissionCount = commissionCount + 1&#10;&#10;StopTrials.addData(&quot;goTrailCountOutput&quot;, goTrialCount)&#10;StopTrials.addData(&quot;goCumRTOutput&quot;, goCumRT)&#10;StopTrials.addData(&quot;goRTCountOutput&quot;, goRTCount)&#10;StopTrials.addData(&quot;stopTrialCountOutput&quot;, stopTrialCount)&#10;StopTrials.addData(&quot;stopSuccessCountOutput&quot;, stopSuccessCount)&#10;StopTrials.addData(&quot;omissionCountOutput&quot;, omissionCount)&#10;StopTrials.addData(&quot;commissionCountOutput&quot;, commissionCount)&#10;" valType="extendedCode" updates="constant"/>\u000a        <Param name="End Routine" val="StopTrials.addData(&quot;EndingSSD&quot;, SSD)" valType="extendedCode" updates="constant"/>\u000a        <Param name="End Experiment" val="" valType="extendedCode" updates="constant"/>\u000a        <Param name="Each Frame" val="" valType="extendedCode" updates="constant"/>\u000a      </CodeComponent>\u000a    </Routine>\u000a    <Routine name="instrPractice">\u000a      <TextComponent name="instruct1">\u000a        <Param name="opacity" val="1" valType="code" updates="constant"/>\u000a        <Param name="colorSpace" val="rgb" valType="str" updates="constant"/>\u000a        <Param name="name" val="instruct1" valType="code" updates="constant"/>\u000a        <Param name="wrapWidth" val="" valType="code" updates="constant"/>\u000a        <Param name="color" val="white" valType="str" updates="constant"/>\u000a        <Param name="text" val="A shape stimulus will appear on every trial. &#10;&#10;If it appears in the upper right quadrant, PRESS I&#10;&#10;If it appears in the lower right quadrant, PRESS K&#10;&#10;If it appears in the lower left quadrant, PRESS J&#10;&#10;If it appears in the upper left quadrant, PRESS U&#10;&#10;Press any key when you are ready to proceed. " valType="str" updates="constant"/>\u000a        <Param name="stopVal" val="" valType="code" updates="constant"/>\u000a        <Param name="durationEstim" val="" valType="code" updates="None"/>\u000a        <Param name="pos" val="[0, 0]" valType="code" updates="constant"/>\u000a        <Param name="flip" val="" valType="str" updates="constant"/>\u000a        <Param name="startEstim" val="" valType="code" updates="None"/>\u000a        <Param name="units" val="from exp settings" valType="str" updates="None"/>\u000a        <Param name="startType" val="time (s)" valType="str" updates="None"/>\u000a        <Param name="ori" val="0" valType="code" updates="constant"/>\u000a        <Param name="stopType" val="duration (s)" valType="str" updates="None"/>\u000a        <Param name="startVal" val="0.0" valType="code" updates="None"/>\u000a        <Param name="font" val="Arial" valType="str" updates="constant"/>\u000a        <Param name="letterHeight" val="0.07" valType="code" updates="constant"/>\u000a      </TextComponent>\u000a      <KeyboardComponent name="ok1">\u000a        <Param name="correctAns" val="" valType="str" updates="constant"/>\u000a        <Param name="storeCorrect" val="False" valType="bool" updates="constant"/>\u000a        <Param name="name" val="ok1" valType="code" updates="None"/>\u000a        <Param name="stopVal" val="" valType="code" updates="constant"/>\u000a        <Param name="durationEstim" val="" valType="code" updates="None"/>\u000a        <Param name="forceEndRoutine" val="True" valType="bool" updates="constant"/>\u000a        <Param name="startEstim" val="" valType="code" updates="None"/>\u000a        <Param name="discard previous" val="True" valType="bool" updates="constant"/>\u000a        <Param name="startType" val="time (s)" valType="str" updates="None"/>\u000a        <Param name="allowedKeys" val="" valType="code" updates="constant"/>\u000a        <Param name="stopType" val="duration (s)" valType="str" updates="None"/>\u000a        <Param name="startVal" val="0.0" valType="code" updates="None"/>\u000a        <Param name="store" val="last key" valType="str" updates="constant"/>\u000a      </KeyboardComponent>\u000a    </Routine>\u000a    <Routine name="ExitPrac">\u000a      <CodeComponent name="code_5">\u000a        <Param name="Begin Experiment" val="" valType="extendedCode" updates="constant"/>\u000a        <Param name="name" val="code_5" valType="code" updates="None"/>\u000a        <Param name="Begin Routine" val="" valType="extendedCode" updates="constant"/>\u000a        <Param name="End Routine" val="if resp.corr:&#10;    ReDoLoop.finished = True " valType="extendedCode" updates="constant"/>\u000a        <Param name="End Experiment" val="" valType="extendedCode" updates="constant"/>\u000a        <Param name="Each Frame" val="" valType="extendedCode" updates="constant"/>\u000a      </CodeComponent>\u000a    </Routine>\u000a    <Routine name="trial">\u000a      <KeyboardComponent name="resp">\u000a        <Param name="correctAns" val="$corrAns" valType="str" updates="constant"/>\u000a        <Param name="storeCorrect" val="True" valType="bool" updates="constant"/>\u000a        <Param name="name" val="resp" valType="code" updates="None"/>\u000a        <Param name="stopVal" val="1" valType="code" updates="constant"/>\u000a        <Param name="durationEstim" val="" valType="code" updates="None"/>\u000a        <Param name="forceEndRoutine" val="True" valType="bool" updates="constant"/>\u000a        <Param name="startEstim" val="" valType="code" updates="None"/>\u000a        <Param name="discard previous" val="True" valType="bool" updates="constant"/>\u000a        <Param name="startType" val="time (s)" valType="str" updates="None"/>\u000a        <Param name="allowedKeys" val="'u', 'i', 'j', 'k'" valType="code" updates="constant"/>\u000a        <Param name="stopType" val="duration (s)" valType="str" updates="None"/>\u000a        <Param name="startVal" val=".5" valType="code" updates="None"/>\u000a        <Param name="store" val="last key" valType="str" updates="constant"/>\u000a      </KeyboardComponent>\u000a      <TextComponent name="text">\u000a        <Param name="opacity" val="1" valType="code" updates="constant"/>\u000a        <Param name="colorSpace" val="rgb" valType="str" updates="constant"/>\u000a        <Param name="name" val="text" valType="code" updates="None"/>\u000a        <Param name="wrapWidth" val="" valType="code" updates="constant"/>\u000a        <Param name="color" val="white" valType="str" updates="constant"/>\u000a        <Param name="text" val="+" valType="str" updates="constant"/>\u000a        <Param name="stopVal" val="1.5" valType="code" updates="constant"/>\u000a        <Param name="durationEstim" val="" valType="code" updates="None"/>\u000a        <Param name="pos" val="[0, 0]" valType="code" updates="constant"/>\u000a        <Param name="flip" val="" valType="str" updates="constant"/>\u000a        <Param name="startEstim" val="" valType="code" updates="None"/>\u000a        <Param name="units" val="from exp settings" valType="str" updates="None"/>\u000a        <Param name="startType" val="time (s)" valType="str" updates="None"/>\u000a        <Param name="ori" val="0" valType="code" updates="constant"/>\u000a        <Param name="stopType" val="duration (s)" valType="str" updates="None"/>\u000a        <Param name="startVal" val="0.0" valType="code" updates="None"/>\u000a        <Param name="font" val="Arial" valType="str" updates="constant"/>\u000a        <Param name="letterHeight" val="1" valType="code" updates="constant"/>\u000a      </TextComponent>\u000a      <ImageComponent name="image_2">\u000a        <Param name="opacity" val="1" valType="code" updates="constant"/>\u000a        <Param name="flipVert" val="False" valType="bool" updates="constant"/>\u000a        <Param name="colorSpace" val="rgb" valType="str" updates="constant"/>\u000a        <Param name="name" val="image_2" valType="code" updates="None"/>\u000a        <Param name="color" val="$[1,1,1]" valType="str" updates="constant"/>\u000a        <Param name="stopVal" val="1.0" valType="code" updates="constant"/>\u000a        <Param name="durationEstim" val="" valType="code" updates="None"/>\u000a        <Param name="mask" val="None" valType="str" updates="constant"/>\u000a        <Param name="pos" val="$[xPos, yPos]" valType="code" updates="set every repeat"/>\u000a        <Param name="interpolate" val="linear" valType="str" updates="constant"/>\u000a        <Param name="startEstim" val="" valType="code" updates="None"/>\u000a        <Param name="units" val="pix" valType="str" updates="None"/>\u000a        <Param name="texture resolution" val="128" valType="code" updates="constant"/>\u000a        <Param name="startType" val="time (s)" valType="str" updates="None"/>\u000a        <Param name="ori" val="0" valType="code" updates="constant"/>\u000a        <Param name="stopType" val="duration (s)" valType="str" updates="None"/>\u000a        <Param name="startVal" val=".5" valType="code" updates="None"/>\u000a        <Param name="flipHoriz" val="False" valType="bool" updates="constant"/>\u000a        <Param name="image" val="$currentStimulus" valType="str" updates="set every repeat"/>\u000a        <Param name="size" val="[151, 151]" valType="code" updates="constant"/>\u000a      </ImageComponent>\u000a    </Routine>\u000a    <Routine name="StimSetup">\u000a      <CodeComponent name="code">\u000a        <Param name="Begin Experiment" val="from copy import deepcopy&#10;colors = ['yellow', 'white', 'orange', 'magenta', 'green', 'gray', 'cyan', 'blue']&#10;shapes = ['triangle', 'square', 'line', 'invertedtriangle', 'hexagon', 'diamond', 'cross', 'circle']&#10;rewards = [0.50, 1.00, 2.00, 4.00] * 2&#10;conditions = ['go', 'go', 'go', 'go', 'stop', 'stop', 'stop', 'stop']&#10;trialDetailsList = []&#10;learningTrialList = []&#10;&#10;shuffle(colors)&#10;shuffle(shapes)&#10;&#10;for i, color in enumerate(colors): # cycle through each color and keep track of an index number&#10;    trialDetails = {} # a dictionary of key-value pairs&#10;    trialDetails['fileName'] = shapes[i] + color + '.gif'&#10;    trialDetails['reward'] = rewards[i]&#10;    trialDetails['condition'] = conditions[i]&#10;    trialDetailsList.append(trialDetails)&#10;&#10;shuffle(trialDetailsList) # do this now to ensure that order of presentation of rewards and conditions is also shuffled&#10;&#10;conditionOne = trialDetailsList[0]&#10;conditionTwo = trialDetailsList[1]&#10;conditionThree = trialDetailsList[2]&#10;conditionFour = trialDetailsList[3]&#10;conditionFive = trialDetailsList[4]&#10;conditionSix = trialDetailsList[5]&#10;conditionSeven = trialDetailsList[6]&#10;conditionEight = trialDetailsList[7]&#10;&#10;numLearningTrials = 400&#10;numLearningRepetitions = 50&#10;for k in range(1, numLearningRepetitions + 1):&#10;    learningTrialList.append(conditionOne)&#10;    learningTrialList.append(conditionTwo)&#10;    learningTrialList.append(conditionThree)&#10;    learningTrialList.append(conditionFour)&#10;    learningTrialList.append(conditionFive)&#10;    learningTrialList.append(conditionSix)&#10;    learningTrialList.append(conditionSeven)&#10;    learningTrialList.append(conditionEight)&#10;&#10;shuffle(learningTrialList)&#10;&#10;stopTaskTrials = 272&#10;stopTrialsPerStopStim = 26&#10;goTrialsPerStopStim = 8&#10;goTrialsPerGoStim = 34&#10;numStim = 8&#10;stopTrialList = []&#10;&#10;if conditionOne['condition'] == 'go':&#10;    conditionOne['stopOrGo'] = 'go'&#10;    for i in range(1, goTrialsPerGoStim + 1):&#10;        stopTrialList.append(conditionOne)&#10;else:&#10;    for j in range(1, goTrialsPerStopStim + 1):&#10;        conditionOne['stopOrGo'] = 'go'&#10;        stopTrialList.append(deepcopy(conditionOne))&#10;    for i in range(1, stopTrialsPerStopStim + 1):&#10;        conditionOne['stopOrGo'] = 'stop'&#10;        stopTrialList.append(deepcopy(conditionOne))&#10;if conditionTwo['condition'] == 'go':&#10;    conditionTwo['stopOrGo'] = 'go'&#10;    for i in range(1, goTrialsPerGoStim + 1):&#10;        stopTrialList.append(conditionTwo)&#10;else:&#10;    for j in range(1, goTrialsPerStopStim + 1):&#10;        conditionTwo['stopOrGo'] = 'go'&#10;        stopTrialList.append(deepcopy(conditionTwo))&#10;    for i in range(1,  stopTrialsPerStopStim + 1):&#10;        conditionTwo['stopOrGo'] = 'stop'&#10;        stopTrialList.append(deepcopy(conditionTwo))&#10;if conditionThree['condition'] == 'go':&#10;    conditionThree['stopOrGo'] = 'go'&#10;    for i in range(1, goTrialsPerGoStim + 1):&#10;        stopTrialList.append(conditionThree)&#10;else:&#10;    for j in range(1, goTrialsPerStopStim + 1):&#10;        conditionThree['stopOrGo'] = 'go'&#10;        stopTrialList.append(deepcopy(conditionThree))&#10;    for i in range(1, stopTrialsPerStopStim + 1):&#10;        conditionThree['stopOrGo'] = 'stop'&#10;        stopTrialList.append(deepcopy(conditionThree))&#10;if conditionFour['condition'] == 'go':&#10;    conditionFour['stopOrGo'] = 'go'&#10;    for i in range(1, goTrialsPerGoStim + 1):&#10;        stopTrialList.append(conditionFour)&#10;else:&#10;    for j in range(1, goTrialsPerStopStim + 1):&#10;        conditionFour['stopOrGo'] = 'go'&#10;        stopTrialList.append(deepcopy(conditionFour))&#10;    for i in range(1, stopTrialsPerStopStim + 1):&#10;        conditionFour['stopOrGo'] = 'stop'&#10;        stopTrialList.append(deepcopy(conditionFour))&#10;if conditionFive['condition'] == 'go':&#10;    conditionFive['stopOrGo'] = 'go'&#10;    for i in range(1, goTrialsPerGoStim + 1):&#10;        stopTrialList.append(conditionFive)&#10;else:&#10;    for j in range(1, goTrialsPerStopStim + 1):&#10;        conditionFive['stopOrGo'] = 'go'&#10;        stopTrialList.append(deepcopy(conditionFive))&#10;    for i in range(1, stopTrialsPerStopStim + 1):&#10;        conditionFive['stopOrGo'] = 'stop'&#10;        stopTrialList.append(deepcopy(conditionFive))&#10;if conditionSix['condition'] == 'go':&#10;    conditionSix['stopOrGo'] = 'go'&#10;    for i in range(1, goTrialsPerGoStim + 1):&#10;        stopTrialList.append(conditionSix)&#10;else:&#10;    for j in range(1, stopTrialsPerStopStim + 1):&#10;        conditionSix['stopOrGo'] = 'go'&#10;        stopTrialList.append(deepcopy(conditionSix))&#10;    for i in range(1, goTrialsPerStopStim + 1):&#10;        conditionSix['stopOrGo'] = 'stop'&#10;        stopTrialList.append(deepcopy(conditionSix))&#10;if conditionSeven['condition'] == 'go':&#10;    conditionSeven['stopOrGo'] = 'go'&#10;    for i in range(1, goTrialsPerGoStim + 1):&#10;        stopTrialList.append(conditionSeven)&#10;else:&#10;    for j in range(1, goTrialsPerStopStim + 1):&#10;        conditionSeven['stopOrGo'] = 'go'&#10;        stopTrialList.append(deepcopy(conditionSeven))&#10;    for i in range(1, stopTrialsPerStopStim + 1):&#10;        conditionSeven['stopOrGo'] = 'stop'&#10;        stopTrialList.append(deepcopy(conditionSeven))&#10;if conditionEight['condition'] == 'go':&#10;    conditionEight['stopOrGo'] = 'go'&#10;    for i in range(1, goTrialsPerGoStim + 1):&#10;        stopTrialList.append(conditionEight)&#10;else:&#10;    for j in range(1, goTrialsPerStopStim + 1):&#10;        conditionEight['stopOrGo'] = 'go'&#10;        stopTrialList.append(deepcopy(conditionEight))&#10;    for i in range(1, stopTrialsPerStopStim + 1):&#10;        conditionEight['stopOrGo'] = 'stop'&#10;        stopTrialList.append(deepcopy(conditionEight))&#10;&#10;shuffle(stopTrialList)" valType="extendedCode" updates="constant"/>\u000a        <Param name="name" val="code" valType="code" updates="None"/>\u000a        <Param name="Begin Routine" val="" valType="extendedCode" updates="constant"/>\u000a        <Param name="End Routine" val="" valType="extendedCode" updates="constant"/>\u000a        <Param name="End Experiment" val="" valType="extendedCode" updates="constant"/>\u000a        <Param name="Each Frame" val="" valType="extendedCode" updates="constant"/>\u000a      </CodeComponent>\u000a    </Routine>\u000a    <Routine name="Bank"/>\u000a    <Routine name="Blank">\u000a      <TextComponent name="text_2">\u000a        <Param name="opacity" val="1" valType="code" updates="constant"/>\u000a        <Param name="colorSpace" val="rgb" valType="str" updates="constant"/>\u000a        <Param name="name" val="text_2" valType="code" updates="None"/>\u000a        <Param name="wrapWidth" val="" valType="code" updates="constant"/>\u000a        <Param name="color" val="white" valType="str" updates="constant"/>\u000a        <Param name="text" val="" valType="str" updates="constant"/>\u000a        <Param name="stopVal" val=".5" valType="code" updates="constant"/>\u000a        <Param name="durationEstim" val="" valType="code" updates="None"/>\u000a        <Param name="pos" val="[0, 0]" valType="code" updates="constant"/>\u000a        <Param name="flip" val="" valType="str" updates="constant"/>\u000a        <Param name="startEstim" val="" valType="code" updates="None"/>\u000a        <Param name="units" val="from exp settings" valType="str" updates="None"/>\u000a        <Param name="startType" val="time (s)" valType="str" updates="None"/>\u000a        <Param name="ori" val="0" valType="code" updates="constant"/>\u000a        <Param name="stopType" val="duration (s)" valType="str" updates="None"/>\u000a        <Param name="startVal" val="0" valType="code" updates="None"/>\u000a        <Param name="font" val="Arial" valType="str" updates="constant"/>\u000a        <Param name="letterHeight" val="0.1" valType="code" updates="constant"/>\u000a      </TextComponent>\u000a    </Routine>\u000a    <Routine name="ResetAtBlock">\u000a      <CodeComponent name="code_3">\u000a        <Param name="Begin Experiment" val="" valType="extendedCode" updates="constant"/>\u000a        <Param name="name" val="code_3" valType="code" updates="None"/>\u000a        <Param name="Begin Routine" val="Redo = 1" valType="extendedCode" updates="constant"/>\u000a        <Param name="End Routine" val="" valType="extendedCode" updates="constant"/>\u000a        <Param name="End Experiment" val="" valType="extendedCode" updates="constant"/>\u000a        <Param name="Each Frame" val="" valType="extendedCode" updates="constant"/>\u000a      </CodeComponent>\u000a    </Routine>\u000a    <Routine name="StopTrial">\u000a      <SoundComponent name="sound_1">\u000a        <Param name="sound" val="900" valType="str" updates="constant"/>\u000a        <Param name="volume" val=".2" valType="code" updates="constant"/>\u000a        <Param name="name" val="sound_1" valType="code" updates="None"/>\u000a        <Param name="stopVal" val=".2" valType="code" updates="constant"/>\u000a        <Param name="durationEstim" val="" valType="code" updates="None"/>\u000a        <Param name="startEstim" val=".75" valType="code" updates="None"/>\u000a        <Param name="startType" val="time (s)" valType="str" updates="None"/>\u000a        <Param name="stopType" val="duration (s)" valType="str" updates="None"/>\u000a        <Param name="startVal" val="$SSDInput" valType="code" updates="None"/>\u000a      </SoundComponent>\u000a      <TextComponent name="text_3">\u000a        <Param name="opacity" val="1" valType="code" updates="constant"/>\u000a        <Param name="colorSpace" val="rgb" valType="str" updates="constant"/>\u000a        <Param name="name" val="text_3" valType="code" updates="None"/>\u000a        <Param name="wrapWidth" val="" valType="code" updates="constant"/>\u000a        <Param name="color" val="white" valType="str" updates="constant"/>\u000a        <Param name="text" val="|" valType="str" updates="constant"/>\u000a        <Param name="stopVal" val="1.5" valType="code" updates="constant"/>\u000a        <Param name="durationEstim" val="" valType="code" updates="None"/>\u000a        <Param name="pos" val="[0, 0]" valType="code" updates="constant"/>\u000a        <Param name="flip" val="" valType="str" updates="constant"/>\u000a        <Param name="startEstim" val="" valType="code" updates="None"/>\u000a        <Param name="units" val="from exp settings" valType="str" updates="None"/>\u000a        <Param name="startType" val="time (s)" valType="str" updates="None"/>\u000a        <Param name="ori" val="0" valType="code" updates="constant"/>\u000a        <Param name="stopType" val="duration (s)" valType="str" updates="None"/>\u000a        <Param name="startVal" val="0.0" valType="code" updates="None"/>\u000a        <Param name="font" val="Arial" valType="str" updates="constant"/>\u000a        <Param name="letterHeight" val="4" valType="code" updates="constant"/>\u000a      </TextComponent>\u000a      <ImageComponent name="image_3">\u000a        <Param name="opacity" val="1" valType="code" updates="constant"/>\u000a        <Param name="flipVert" val="False" valType="bool" updates="constant"/>\u000a        <Param name="colorSpace" val="rgb" valType="str" updates="constant"/>\u000a        <Param name="name" val="image_3" valType="code" updates="None"/>\u000a        <Param name="color" val="$[1,1,1]" valType="str" updates="constant"/>\u000a        <Param name="stopVal" val="1.0" valType="code" updates="constant"/>\u000a        <Param name="durationEstim" val="" valType="code" updates="None"/>\u000a        <Param name="mask" val="None" valType="str" updates="constant"/>\u000a        <Param name="pos" val="$[xPosGoStim, yPosGoStim]" valType="code" updates="set every repeat"/>\u000a        <Param name="interpolate" val="linear" valType="str" updates="constant"/>\u000a        <Param name="startEstim" val="" valType="code" updates="None"/>\u000a        <Param name="units" val="pix" valType="str" updates="None"/>\u000a        <Param name="texture resolution" val="128" valType="code" updates="constant"/>\u000a        <Param name="startType" val="time (s)" valType="str" updates="None"/>\u000a        <Param name="ori" val="0" valType="code" updates="constant"/>\u000a        <Param name="stopType" val="duration (s)" valType="str" updates="None"/>\u000a        <Param name="startVal" val=".5" valType="code" updates="None"/>\u000a        <Param name="flipHoriz" val="False" valType="bool" updates="constant"/>\u000a        <Param name="image" val="$currentGoStim" valType="str" updates="set every repeat"/>\u000a        <Param name="size" val="[151, 151]" valType="code" updates="constant"/>\u000a      </ImageComponent>\u000a      <KeyboardComponent name="goResp">\u000a        <Param name="correctAns" val="$corrGoResp" valType="str" updates="constant"/>\u000a        <Param name="storeCorrect" val="True" valType="bool" updates="constant"/>\u000a        <Param name="name" val="goResp" valType="code" updates="None"/>\u000a        <Param name="stopVal" val="1" valType="code" updates="constant"/>\u000a        <Param name="durationEstim" val="" valType="code" updates="None"/>\u000a        <Param name="forceEndRoutine" val="False" valType="bool" updates="constant"/>\u000a        <Param name="startEstim" val="" valType="code" updates="None"/>\u000a        <Param name="discard previous" val="True" valType="bool" updates="constant"/>\u000a        <Param name="startType" val="time (s)" valType="str" updates="None"/>\u000a        <Param name="allowedKeys" val="'z','m'" valType="code" updates="constant"/>\u000a        <Param name="stopType" val="duration (s)" valType="str" updates="None"/>\u000a        <Param name="startVal" val=".5" valType="code" updates="None"/>\u000a        <Param name="store" val="first key" valType="str" updates="constant"/>\u000a      </KeyboardComponent>\u000a    </Routine>\u000a    <Routine name="instrMain">\u000a      <TextComponent name="instr2">\u000a        <Param name="opacity" val="1" valType="code" updates="constant"/>\u000a        <Param name="colorSpace" val="rgb" valType="str" updates="constant"/>\u000a        <Param name="name" val="instr2" valType="code" updates="constant"/>\u000a        <Param name="wrapWidth" val="" valType="code" updates="constant"/>\u000a        <Param name="color" val="white" valType="str" updates="constant"/>\u000a        <Param name="text" val="A shape stimulus will appear on every trial. &#10;&#10;If it appears in the upper right quadrant, PRESS Y&#10;&#10;If it appears in the lower right quadrant, PRESS H&#10;&#10;If it appears in the lower left quadrant, PRESS G&#10;&#10;If it appears in the upper left quadrant, PRESS T&#10;&#10;Press any key when you are ready to proceed. " valType="str" updates="constant"/>\u000a        <Param name="stopVal" val="" valType="code" updates="constant"/>\u000a        <Param name="durationEstim" val="" valType="code" updates="None"/>\u000a        <Param name="pos" val="[0, 0]" valType="code" updates="constant"/>\u000a        <Param name="flip" val="" valType="str" updates="constant"/>\u000a        <Param name="startEstim" val="" valType="code" updates="None"/>\u000a        <Param name="units" val="from exp settings" valType="str" updates="None"/>\u000a        <Param name="startType" val="time (s)" valType="str" updates="None"/>\u000a        <Param name="ori" val="0" valType="code" updates="constant"/>\u000a        <Param name="stopType" val="duration (s)" valType="str" updates="None"/>\u000a        <Param name="startVal" val="0.0" valType="code" updates="None"/>\u000a        <Param name="font" val="Arial" valType="str" updates="constant"/>\u000a        <Param name="letterHeight" val="0.075" valType="code" updates="constant"/>\u000a      </TextComponent>\u000a      <KeyboardComponent name="ok2">\u000a        <Param name="correctAns" val="" valType="str" updates="constant"/>\u000a        <Param name="storeCorrect" val="False" valType="bool" updates="constant"/>\u000a        <Param name="name" val="ok2" valType="code" updates="None"/>\u000a        <Param name="stopVal" val="" valType="code" updates="constant"/>\u000a        <Param name="durationEstim" val="" valType="code" updates="None"/>\u000a        <Param name="forceEndRoutine" val="True" valType="bool" updates="constant"/>\u000a        <Param name="startEstim" val="" valType="code" updates="None"/>\u000a        <Param name="discard previous" val="True" valType="bool" updates="constant"/>\u000a        <Param name="startType" val="time (s)" valType="str" updates="None"/>\u000a        <Param name="allowedKeys" val="" valType="code" updates="constant"/>\u000a        <Param name="stopType" val="duration (s)" valType="str" updates="None"/>\u000a        <Param name="startVal" val="0.0" valType="code" updates="None"/>\u000a        <Param name="store" val="nothing" valType="str" updates="constant"/>\u000a      </KeyboardComponent>\u000a    </Routine>\u000a    <Routine name="newStopStim">\u000a      <CodeComponent name="code_7">\u000a        <Param name="Begin Experiment" val="" valType="extendedCode" updates="constant"/>\u000a        <Param name="name" val="code_7" valType="code" updates="None"/>\u000a        <Param name="Begin Routine" val="currentStopTrial = stopTrialList.pop(0)&#10;currentGoStim = currentStopTrial['fileName']&#10;currentStopOrGo = currentStopTrial['stopOrGo']&#10;&#10;if currentStopOrGo == 'stop':&#10;    if xPosGoStim == -200:&#10;        SSD = deepcopy(SSDLeft)&#10;    else:&#10;        SSD = deepcopy(SSDRight)&#10;elif currentStopOrGo == 'go':&#10;    SSD = -1&#10;&#10;StopTrials.addData(&quot;beginningSSD&quot;, SSD)&#10;StopTrials.addData(&quot;trialType&quot;, currentStopOrGo)&#10;StopTrials.addData(&quot;goStim&quot;, currentGoStim)&#10;SSDInput = SSD + .5" valType="extendedCode" updates="constant"/>\u000a        <Param name="End Routine" val="" valType="extendedCode" updates="constant"/>\u000a        <Param name="End Experiment" val="" valType="extendedCode" updates="constant"/>\u000a        <Param name="Each Frame" val="" valType="extendedCode" updates="constant"/>\u000a      </CodeComponent>\u000a    </Routine>\u000a    <Routine name="feedback">\u000a      <CodeComponent name="message">\u000a        <Param name="Begin Experiment" val="#message variable just needs some value at start&#10;message=0" valType="extendedCode" updates="constant"/>\u000a        <Param name="name" val="message" valType="code" updates="None"/>\u000a        <Param name="Begin Routine" val="import random&#10;&#10;displayReward = random.randrange(1, 6)&#10;&#10;if resp.corr:#stored on last run routine&#10;    if displayReward == 1:&#10;            message = &quot;You won $&quot; + str(0);&#10;    else: &#10;            currentReward = currentLearningTrial['reward']&#10;            message = &quot;You won $&quot; + str(currentReward + (random.randrange(-25, 26)*.01))&#10;elif resp.keys is None: #or len(key_resp.keys)&lt;1:&#10;#elif resp.rt == 0:&#10;    message =&quot;Too Slow&quot;&#10;else:&#10;  message=&quot;Wrong&quot;" valType="extendedCode" updates="constant"/>\u000a        <Param name="End Routine" val="" valType="extendedCode" updates="constant"/>\u000a        <Param name="End Experiment" val="" valType="extendedCode" updates="constant"/>\u000a        <Param name="Each Frame" val="" valType="extendedCode" updates="constant"/>\u000a      </CodeComponent>\u000a      <TextComponent name="feedback_2">\u000a        <Param name="opacity" val="1" valType="code" updates="constant"/>\u000a        <Param name="colorSpace" val="rgb" valType="str" updates="constant"/>\u000a        <Param name="name" val="feedback_2" valType="code" updates="constant"/>\u000a        <Param name="wrapWidth" val="" valType="code" updates="constant"/>\u000a        <Param name="color" val="$[1,1,1]" valType="str" updates="constant"/>\u000a        <Param name="text" val="$message" valType="str" updates="set every repeat"/>\u000a        <Param name="stopVal" val="1.0" valType="code" updates="constant"/>\u000a        <Param name="durationEstim" val="" valType="code" updates="None"/>\u000a        <Param name="pos" val="[0, 0]" valType="code" updates="constant"/>\u000a        <Param name="flip" val="" valType="str" updates="constant"/>\u000a        <Param name="startEstim" val="" valType="code" updates="None"/>\u000a        <Param name="units" val="from exp settings" valType="str" updates="None"/>\u000a        <Param name="startType" val="time (s)" valType="str" updates="None"/>\u000a        <Param name="ori" val="0" valType="code" updates="constant"/>\u000a        <Param name="stopType" val="duration (s)" valType="str" updates="None"/>\u000a        <Param name="startVal" val="0.0" valType="code" updates="None"/>\u000a        <Param name="font" val="Arial" valType="str" updates="constant"/>\u000a        <Param name="letterHeight" val=".2" valType="code" updates="constant"/>\u000a      </TextComponent>\u000a      <ImageComponent name="image">\u000a        <Param name="opacity" val="1" valType="code" updates="constant"/>\u000a        <Param name="flipVert" val="False" valType="bool" updates="constant"/>\u000a        <Param name="colorSpace" val="rgb" valType="str" updates="constant"/>\u000a        <Param name="name" val="image" valType="code" updates="None"/>\u000a        <Param name="color" val="$[1,1,1]" valType="str" updates="constant"/>\u000a        <Param name="stopVal" val="1.0" valType="code" updates="constant"/>\u000a        <Param name="durationEstim" val="" valType="code" updates="None"/>\u000a        <Param name="mask" val="None" valType="str" updates="constant"/>\u000a        <Param name="pos" val="$[xPos, yPos]" valType="code" updates="set every repeat"/>\u000a        <Param name="interpolate" val="linear" valType="str" updates="constant"/>\u000a        <Param name="startEstim" val="" valType="code" updates="None"/>\u000a        <Param name="units" val="pix" valType="str" updates="None"/>\u000a        <Param name="texture resolution" val="128" valType="code" updates="constant"/>\u000a        <Param name="startType" val="time (s)" valType="str" updates="None"/>\u000a        <Param name="ori" val="0" valType="code" updates="constant"/>\u000a        <Param name="stopType" val="duration (s)" valType="str" updates="None"/>\u000a        <Param name="startVal" val="0.0" valType="code" updates="None"/>\u000a        <Param name="flipHoriz" val="False" valType="bool" updates="constant"/>\u000a        <Param name="image" val="$currentStimulus" valType="str" updates="set every repeat"/>\u000a        <Param name="size" val="[151, 151]" valType="code" updates="constant"/>\u000a      </ImageComponent>\u000a    </Routine>\u000a  </Routines>\u000a  <Flow>\u000a    <Routine name="StimSetup"/>\u000a    <Routine name="instrPractice"/>\u000a    <LoopInitiator loopType="TrialHandler" name="Blocks">\u000a      <Param name="conditionsFile" val="" valType="str" updates="None"/>\u000a      <Param name="name" val="Blocks" valType="code" updates="None"/>\u000a      <Param name="isTrials" val="True" valType="bool" updates="None"/>\u000a      <Param name="random seed" val="" valType="code" updates="None"/>\u000a      <Param name="loopType" val="sequential" valType="str" updates="None"/>\u000a      <Param name="nReps" val="0" valType="code" updates="None"/>\u000a      <Param name="endPoints" val="[0, 1]" valType="num" updates="None"/>\u000a      <Param name="conditions" val="None" valType="str" updates="None"/>\u000a      <Param name="Selected rows" val="" valType="str" updates="None"/>\u000a    </LoopInitiator>\u000a    <Routine name="ResetAtBlock"/>\u000a    <LoopInitiator loopType="TrialHandler" name="trials">\u000a      <Param name="conditionsFile" val="TrialtypesLearning.xlsx" valType="str" updates="None"/>\u000a      <Param name="name" val="trials" valType="code" updates="None"/>\u000a      <Param name="isTrials" val="True" valType="bool" updates="None"/>\u000a      <Param name="random seed" val="" valType="code" updates="None"/>\u000a      <Param name="loopType" val="fullRandom" valType="str" updates="None"/>\u000a      <Param name="nReps" val="25" valType="num" updates="None"/>\u000a      <Param name="endPoints" val="[0, 1]" valType="num" updates="None"/>\u000a      <Param name="conditions" val="[{u'xPos': 200, u'corrAns': u'h', u'yPos': 200}, {u'xPos': -200, u'corrAns': u'g', u'yPos': 200}, {u'xPos': 200, u'corrAns': u'n', u'yPos': -200}, {u'xPos': -200, u'corrAns': u'b', u'yPos': -200}]" valType="str" updates="None"/>\u000a      <Param name="Selected rows" val="" valType="str" updates="None"/>\u000a    </LoopInitiator>\u000a    <Routine name="NewStim"/>\u000a    <LoopInitiator loopType="TrialHandler" name="ReDoLoopMain">\u000a      <Param name="conditionsFile" val="" valType="str" updates="None"/>\u000a      <Param name="name" val="ReDoLoopMain" valType="code" updates="None"/>\u000a      <Param name="isTrials" val="False" valType="bool" updates="None"/>\u000a      <Param name="random seed" val="" valType="code" updates="None"/>\u000a      <Param name="loopType" val="random" valType="str" updates="None"/>\u000a      <Param name="nReps" val="999" valType="code" updates="None"/>\u000a      <Param name="endPoints" val="[0, 1]" valType="num" updates="None"/>\u000a      <Param name="conditions" val="None" valType="str" updates="None"/>\u000a      <Param name="Selected rows" val="" valType="str" updates="None"/>\u000a    </LoopInitiator>\u000a    <Routine name="trial"/>\u000a    <Routine name="feedback"/>\u000a    <Routine name="Blank"/>\u000a    <Routine name="ExitMain"/>\u000a    <LoopTerminator name="ReDoLoopMain"/>\u000a    <LoopTerminator name="trials"/>\u000a    <LoopTerminator name="Blocks"/>\u000a    <Routine name="instrStopPrac"/>\u000a    <LoopInitiator loopType="TrialHandler" name="StopBlocks">\u000a      <Param name="conditionsFile" val="" valType="str" updates="None"/>\u000a      <Param name="name" val="StopBlocks" valType="code" updates="None"/>\u000a      <Param name="isTrials" val="True" valType="bool" updates="None"/>\u000a      <Param name="random seed" val="" valType="code" updates="None"/>\u000a      <Param name="loopType" val="sequential" valType="str" updates="None"/>\u000a      <Param name="nReps" val="4" valType="code" updates="None"/>\u000a      <Param name="endPoints" val="[0, 1]" valType="num" updates="None"/>\u000a      <Param name="conditions" val="None" valType="str" updates="None"/>\u000a      <Param name="Selected rows" val="" valType="str" updates="None"/>\u000a    </LoopInitiator>\u000a    <Routine name="stopBlockSetup"/>\u000a    <LoopInitiator loopType="TrialHandler" name="StopTrials">\u000a      <Param name="conditionsFile" val="trialtypeStop.xlsx" valType="str" updates="None"/>\u000a      <Param name="name" val="StopTrials" valType="code" updates="None"/>\u000a      <Param name="isTrials" val="True" valType="bool" updates="None"/>\u000a      <Param name="random seed" val="" valType="code" updates="None"/>\u000a      <Param name="loopType" val="fullRandom" valType="str" updates="None"/>\u000a      <Param name="nReps" val="10" valType="code" updates="None"/>\u000a      <Param name="endPoints" val="[0, 1]" valType="num" updates="None"/>\u000a      <Param name="conditions" val="[{u'corrGoResp': u'z', u'yPosGoStim': 0, u'xPosGoStim': -200}, {u'corrGoResp': u'm', u'yPosGoStim': 0, u'xPosGoStim': 200}]" valType="str" updates="None"/>\u000a      <Param name="Selected rows" val="" valType="str" updates="None"/>\u000a    </LoopInitiator>\u000a    <Routine name="newStopStim"/>\u000a    <Routine name="StopTrial"/>\u000a    <Routine name="blankStop"/>\u000a    <Routine name="SSDChange"/>\u000a    <LoopTerminator name="StopTrials"/>\u000a    <Routine name="endOfStopBlockFeedback"/>\u000a    <LoopTerminator name="StopBlocks"/>\u000a    <Routine name="End"/>\u000a  </Flow>\u000a</PsychoPy2experiment>\u000a
p53
sS'thisTrial'
p54
NsS'_exp'
p55
I244523984
sg11
S'StopBlocks'
p56
sg6
g7
sS'thisRepN'
p57
I0
sg31
I01
sg32
g33
sS'data'
p58
g1
(cpsychopy.data
DataHandler
p59
c__builtin__
dict
p60
(dp61
S'ran'
p62
cnumpy.ma.core
_mareconstruct
p63
(cnumpy.ma.core
MaskedArray
p64
cnumpy
ndarray
p65
(I0
tp66
S'b'
tRp67
(I1
(I1
I4
tg39
(S'f4'
I0
I1
tRp68
(I3
S'<'
NNNI-1
I-1
I0
tbI00
S'\x00\x00\x80?\x00\x00\x00\x00\x00\x00\x00\x00\x00\x00\x00\x00'
S'\x00\x00\x00\x00'
NtbsS'order'
p69
g63
(g64
g65
g66
S'b'
tRp70
(I1
(I1
I4
tg68
I00
S'\x00\x00\x00\x00\x00\x00\x00\x00\x00\x00\x00\x00\x00\x00\x00\x00'
S'\x00\x01\x01\x01'
NtbstRp71
(dp72
S'isNumeric'
p73
(dp74
g62
I01
sg69
I01
ssS'trials'
p75
g50
sS'dataTypes'
p76
(lp77
g62
ag69
asS'dataShape'
p78
(lp79
I1
aI4
asbsS'method'
p80
S'sequential'
p81
sS'sequenceIndices'
p82
cnumpy.core.multiarray
_reconstruct
p83
(g65
(I0
tS'b'
tRp84
(I1
(I1
I4
tg39
(S'i4'
I0
I1
tRp85
(I3
S'<'
NNNI-1
I-1
I0
tbI00
S'\x00\x00\x00\x00\x00\x00\x00\x00\x00\x00\x00\x00\x00\x00\x00\x00'
tbsS'finished'
p86
I00
sS'nReps'
p87
I4
sS'nRemaining'
p88
I3
sS'trialList'
p89
(lp90
NasS'seed'
p91
NsS'thisIndex'
p92
g38
(g85
S'\x00\x00\x00\x00'
tRp93
sS'thisN'
p94
I0
sS'thisTrialN'
p95
I0
sS'nTotal'
p96
I4
sS'_warnUseOfNext'
p97
I01
sbasS'saveWideText'
p98
I01
sS'thisEntry'
p99
(dp100
sS'version'
p101
S''
sS'_paramNamesSoFar'
p102
(lp103
VcorrGoResp
p104
aVyPosGoStim
p105
aVxPosGoStim
p106
asS'entries'
p107
(lp108
(dp109
g42
I3
sg35
V
sg16
F1.4617340564727783
sg36
V
sg37
g41
sg34
g12
sg15
S'space'
p110
sg43
g44
sg45
g46
sa(dp111
g21
I1
sg22
F0.55098891258239746
sg26
I1
sg25
I0
sg30
F0.20000000000000001
sg43
g44
sg42
I3
sg18
S'stop'
p112
sg35
V
sg105
I0
sS'StopBlocks.thisTrial'
p113
Nsg45
g46
sg20
S'm'
sS'StopTrials.thisIndex'
p114
I1
sS'StopBlocks.thisRepN'
p115
I0
sg23
I0
sg106
I200
sS'StopBlocks.thisTrialN'
p116
I0
sS'StopBlocks.thisIndex'
p117
g93
sg37
g41
sg17
F0.25
sS'StopTrials.thisRepN'
p118
I0
sg28
I0
sg104
Vm
sS'StopBlocks.thisN'
p119
I0
sg29
I0
sg24
I0
sS'StopTrials.thisTrialN'
p120
I0
sg36
V
sg19
S'hexagonmagenta.gif'
p121
sg27
I0
sg34
g12
sS'StopTrials.thisN'
p122
I0
sa(dp123
g21
I1
sg22
F0.30072498321533203
sg26
I1
sg25
I1
sg30
I-1
sg43
g44
sg42
I3
sg18
S'go'
p124
sg35
V
sg105
I0
sS'StopBlocks.thisTrial'
p125
Nsg45
g46
sg20
S'm'
sS'StopTrials.thisIndex'
p126
I1
sS'StopBlocks.thisRepN'
p127
I0
sg23
I1
sg106
I200
sS'StopBlocks.thisTrialN'
p128
I0
sS'StopBlocks.thisIndex'
p129
g93
sg37
g41
sg17
I-1
sS'StopTrials.thisRepN'
p130
I0
sg28
I0
sg104
Vm
sS'StopBlocks.thisN'
p131
I0
sg29
I0
sg24
F0.30072498321533203
sS'StopTrials.thisTrialN'
p132
I1
sg36
V
sg19
S'trianglecyan.gif'
p133
sg27
I0
sg34
g12
sS'StopTrials.thisN'
p134
I1
sa(dp135
g21
I1
sg22
F0.38408899307250977
sg26
I1
sg25
I2
sg30
I-1
sg43
g44
sg42
I3
sg18
g124
sg35
V
sg105
I0
sS'StopBlocks.thisTrial'
p136
Nsg45
g46
sg20
S'z'
sS'StopTrials.thisIndex'
p137
I0
sS'StopBlocks.thisRepN'
p138
I0
sg23
I2
sg106
I-200
sS'StopBlocks.thisTrialN'
p139
I0
sS'StopBlocks.thisIndex'
p140
g93
sg37
g41
sg17
I-1
sS'StopTrials.thisRepN'
p141
I1
sg28
I0
sg104
Vz
sS'StopBlocks.thisN'
p142
I0
sg29
I0
sg24
F0.6848139762878418
sS'StopTrials.thisTrialN'
p143
I0
sg36
V
sg19
S'linegray.gif'
p144
sg27
I0
sg34
g12
sS'StopTrials.thisN'
p145
I2
sa(dp146
g21
I1
sg22
F0.40061497688293457
sg26
I1
sg25
I3
sg30
I-1
sg43
g44
sg42
I3
sg18
g124
sg35
V
sg105
I0
sS'StopBlocks.thisTrial'
p147
Nsg45
g46
sg20
S'z'
sS'StopTrials.thisIndex'
p148
I0
sS'StopBlocks.thisRepN'
p149
I0
sg23
I3
sg106
I-200
sS'StopBlocks.thisTrialN'
p150
I0
sS'StopBlocks.thisIndex'
p151
g93
sg37
g41
sg17
I-1
sS'StopTrials.thisRepN'
p152
I1
sg28
I0
sg104
Vz
sS'StopBlocks.thisN'
p153
I0
sg29
I0
sg24
F1.0854289531707764
sS'StopTrials.thisTrialN'
p154
I1
sg36
V
sg19
S'circlegreen.gif'
p155
sg27
I0
sg34
g12
sS'StopTrials.thisN'
p156
I3
sa(dp157
g21
I1
sg22
F0.31721401214599609
sg26
I1
sg25
I4
sg30
I-1
sg43
g44
sg42
I3
sg18
g124
sg35
V
sg105
I0
sS'StopBlocks.thisTrial'
p158
Nsg45
g46
sg20
S'm'
sS'StopTrials.thisIndex'
p159
I1
sS'StopBlocks.thisRepN'
p160
I0
sg23
I4
sg106
I200
sS'StopBlocks.thisTrialN'
p161
I0
sS'StopBlocks.thisIndex'
p162
g93
sg37
g41
sg17
I-1
sS'StopTrials.thisRepN'
p163
I2
sg28
I0
sg104
Vm
sS'StopBlocks.thisN'
p164
I0
sg29
I0
sg24
F1.4026429653167725
sS'StopTrials.thisTrialN'
p165
I0
sg36
V
sg19
g133
sg27
I0
sg34
g12
sS'StopTrials.thisN'
p166
I4
sa(dp167
g21
I0
sg22
F0.4167640209197998
sg26
I1
sg25
I4
sg30
I-1
sg43
g44
sg42
I3
sg18
g124
sg35
V
sg105
I0
sS'StopBlocks.thisTrial'
p168
Nsg45
g46
sg20
S'm'
sS'StopTrials.thisIndex'
p169
I0
sS'StopBlocks.thisRepN'
p170
I0
sg23
I5
sg106
I-200
sS'StopBlocks.thisTrialN'
p171
I0
sS'StopBlocks.thisIndex'
p172
g93
sg37
g41
sg17
I-1
sS'StopTrials.thisRepN'
p173
I2
sg28
I0
sg104
Vz
sS'StopBlocks.thisN'
p174
I0
sg29
I1
sg24
F1.4026429653167725
sS'StopTrials.thisTrialN'
p175
I1
sg36
V
sg19
S'diamondwhite.gif'
p176
sg27
I0
sg34
g12
sS'StopTrials.thisN'
p177
I5
sa(dp178
g21
I0
sg22
F0.4171140193939209
sg26
I1
sg25
I4
sg30
I-1
sg43
g44
sg42
I3
sg18
g124
sg35
V
sg105
I0
sS'StopBlocks.thisTrial'
p179
Nsg45
g46
sg20
S'm'
sS'StopTrials.thisIndex'
p180
I0
sS'StopBlocks.thisRepN'
p181
I0
sg23
I6
sg106
I-200
sS'StopBlocks.thisTrialN'
p182
I0
sS'StopBlocks.thisIndex'
p183
g93
sg37
g41
sg17
I-1
sS'StopTrials.thisRepN'
p184
I3
sg28
I0
sg104
Vz
sS'StopBlocks.thisN'
p185
I0
sg29
I2
sg24
F1.4026429653167725
sS'StopTrials.thisTrialN'
p186
I0
sg36
V
sg19
g144
sg27
I0
sg34
g12
sS'StopTrials.thisN'
p187
I6
sa(dp188
g21
I0
sg22
F0.41753816604614258
sg26
I2
sg25
I4
sg30
F0.15000000000000002
sg43
g44
sg42
I3
sg18
g112
sg35
V
sg105
I0
sS'StopBlocks.thisTrial'
p189
Nsg45
g46
sg20
S'z'
sS'StopTrials.thisIndex'
p190
I1
sS'StopBlocks.thisRepN'
p191
I0
sg23
I6
sg106
I200
sS'StopBlocks.thisTrialN'
p192
I0
sS'StopBlocks.thisIndex'
p193
g93
sg37
g41
sg17
F0.20000000000000001
sS'StopTrials.thisRepN'
p194
I3
sg28
I0
sg104
Vm
sS'StopBlocks.thisN'
p195
I0
sg29
I2
sg24
F1.4026429653167725
sS'StopTrials.thisTrialN'
p196
I1
sg36
V
sg19
g121
sg27
I0
sg34
g12
sS'StopTrials.thisN'
p197
I7
sa(dp198
g21
I0
sg22
F0.40072989463806152
sg26
I2
sg25
I4
sg30
I-1
sg43
g44
sg42
I3
sg18
g124
sg35
V
sg105
I0
sS'StopBlocks.thisTrial'
p199
Nsg45
g46
sg20
S'z'
sS'StopTrials.thisIndex'
p200
I1
sS'StopBlocks.thisRepN'
p201
I0
sg23
I7
sg106
I200
sS'StopBlocks.thisTrialN'
p202
I0
sS'StopBlocks.thisIndex'
p203
g93
sg37
g41
sg17
I-1
sS'StopTrials.thisRepN'
p204
I4
sg28
I0
sg104
Vm
sS'StopBlocks.thisN'
p205
I0
sg29
I3
sg24
F1.4026429653167725
sS'StopTrials.thisTrialN'
p206
I0
sg36
V
sg19
g133
sg27
I0
sg34
g12
sS'StopTrials.thisN'
p207
I8
sa(dp208
g21
I0
sg22
F0.38432693481445312
sg26
I2
sg25
I4
sg30
I-1
sg43
g44
sg42
I3
sg18
g124
sg35
V
sg105
I0
sS'StopBlocks.thisTrial'
p209
Nsg45
g46
sg20
S'm'
sS'StopTrials.thisIndex'
p210
I0
sS'StopBlocks.thisRepN'
p211
I0
sg23
I8
sg106
I-200
sS'StopBlocks.thisTrialN'
p212
I0
sS'StopBlocks.thisIndex'
p213
g93
sg37
g41
sg17
I-1
sS'StopTrials.thisRepN'
p214
I4
sg28
I0
sg104
Vz
sS'StopBlocks.thisN'
p215
I0
sg29
I4
sg24
F1.4026429653167725
sS'StopTrials.thisTrialN'
p216
I1
sg36
V
sg19
g176
sg27
I0
sg34
g12
sS'StopTrials.thisN'
p217
I9
sa(dp218
g21
I0
sg26
I2
sg25
I4
sg30
I-1
sg43
g44
sg42
I3
sg18
g124
sg35
V
sg105
I0
sS'StopBlocks.thisTrial'
p219
Nsg45
g46
sg20
NsS'StopTrials.thisIndex'
p220
I1
sS'StopBlocks.thisRepN'
p221
I0
sg23
I9
sg106
I200
sS'StopBlocks.thisTrialN'
p222
I0
sS'StopBlocks.thisIndex'
p223
g93
sg37
g41
sg17
I-1
sS'StopTrials.thisRepN'
p224
I5
sg28
I1
sg104
Vm
sS'StopBlocks.thisN'
p225
I0
sg29
I4
sg24
F1.4026429653167725
sS'StopTrials.thisTrialN'
p226
I0
sg36
V
sg19
g176
sg27
I0
sg34
g12
sS'StopTrials.thisN'
p227
I10
sa(dp228
g21
I0
sg26
I3
sg25
I4
sg30
F0.20000000000000001
sg43
g44
sg42
I3
sg18
g112
sg35
V
sg105
I0
sS'StopBlocks.thisTrial'
p229
Nsg45
g46
sg20
NsS'StopTrials.thisIndex'
p230
I1
sS'StopBlocks.thisRepN'
p231
I0
sg23
I9
sg106
I200
sS'StopBlocks.thisTrialN'
p232
I0
sS'StopBlocks.thisIndex'
p233
g93
sg37
g41
sg17
F0.15000000000000002
sS'StopTrials.thisRepN'
p234
I5
sg28
I1
sg104
Vm
sS'StopBlocks.thisN'
p235
I0
sg29
I4
sg24
F1.4026429653167725
sS'StopTrials.thisTrialN'
p236
I1
sg36
V
sg19
S'crossyellow.gif'
p237
sg27
I1
sg34
g12
sS'StopTrials.thisN'
p238
I11
sa(dp239
g21
I0
sg26
I3
sg25
I4
sg30
I-1
sg43
g44
sg42
I3
sg18
g124
sg35
V
sg105
I0
sS'StopBlocks.thisTrial'
p240
Nsg45
g46
sg20
NsS'StopTrials.thisIndex'
p241
I0
sS'StopBlocks.thisRepN'
p242
I0
sg23
I10
sg106
I-200
sS'StopBlocks.thisTrialN'
p243
I0
sS'StopBlocks.thisIndex'
p244
g93
sg37
g41
sg17
I-1
sS'StopTrials.thisRepN'
p245
I6
sg28
I2
sg104
Vz
sS'StopBlocks.thisN'
p246
I0
sg29
I4
sg24
F1.4026429653167725
sS'StopTrials.thisTrialN'
p247
I0
sg36
V
sg19
g144
sg27
I1
sg34
g12
sS'StopTrials.thisN'
p248
I12
sa(dp249
g21
I0
sg26
I4
sg25
I4
sg30
F0.29999999999999999
sg43
g44
sg42
I3
sg18
g112
sg35
V
sg105
I0
sS'StopBlocks.thisTrial'
p250
Nsg45
g46
sg20
NsS'StopTrials.thisIndex'
p251
I0
sS'StopBlocks.thisRepN'
p252
I0
sg23
I10
sg106
I-200
sS'StopBlocks.thisTrialN'
p253
I0
sS'StopBlocks.thisIndex'
p254
g93
sg37
g41
sg17
F0.25
sS'StopTrials.thisRepN'
p255
I6
sg28
I2
sg104
Vz
sS'StopBlocks.thisN'
p256
I0
sg29
I4
sg24
F1.4026429653167725
sS'StopTrials.thisTrialN'
p257
I1
sg36
V
sg19
S'squareorange.gif'
p258
sg27
I2
sg34
g12
sS'StopTrials.thisN'
p259
I13
sa(dp260
g21
I0
sg26
I4
sg25
I4
sg30
I-1
sg43
g44
sg42
I3
sg18
g124
sg35
V
sg105
I0
sS'StopBlocks.thisTrial'
p261
Nsg45
g46
sg20
NsS'StopTrials.thisIndex'
p262
I0
sS'StopBlocks.thisRepN'
p263
I0
sg23
I11
sg106
I-200
sS'StopBlocks.thisTrialN'
p264
I0
sS'StopBlocks.thisIndex'
p265
g93
sg37
g41
sg17
I-1
sS'StopTrials.thisRepN'
p266
I7
sg28
I3
sg104
Vz
sS'StopBlocks.thisN'
p267
I0
sg29
I4
sg24
F1.4026429653167725
sS'StopTrials.thisTrialN'
p268
I0
sg36
V
sg19
g176
sg27
I2
sg34
g12
sS'StopTrials.thisN'
p269
I14
sa(dp270
g21
I0
sg26
I4
sg25
I4
sg30
I-1
sg43
g44
sg42
I3
sg18
g124
sg35
V
sg105
I0
sS'StopBlocks.thisTrial'
p271
Nsg45
g46
sg20
NsS'StopTrials.thisIndex'
p272
I0
sS'StopBlocks.thisRepN'
p273
I0
sg23
I12
sg106
I-200
sS'StopBlocks.thisTrialN'
p274
I0
sS'StopBlocks.thisIndex'
p275
g93
sg37
g41
sg17
I-1
sS'StopTrials.thisRepN'
p276
I7
sg28
I4
sg104
Vz
sS'StopBlocks.thisN'
p277
I0
sg29
I4
sg24
F1.4026429653167725
sS'StopTrials.thisTrialN'
p278
I1
sg36
V
sg19
g237
sg27
I2
sg34
g12
sS'StopTrials.thisN'
p279
I15
sa(dp280
g21
I0
sg26
I5
sg25
I4
sg30
F0.25
sg43
g44
sg42
I3
sg18
g112
sg35
V
sg105
I0
sS'StopBlocks.thisTrial'
p281
Nsg45
g46
sg20
NsS'StopTrials.thisIndex'
p282
I1
sS'StopBlocks.thisRepN'
p283
I0
sg23
I12
sg106
I200
sS'StopBlocks.thisTrialN'
p284
I0
sS'StopBlocks.thisIndex'
p285
g93
sg37
g41
sg17
F0.20000000000000001
sS'StopTrials.thisRepN'
p286
I8
sg28
I4
sg104
Vm
sS'StopBlocks.thisN'
p287
I0
sg29
I4
sg24
F1.4026429653167725
sS'StopTrials.thisTrialN'
p288
I0
sg36
V
sg19
g121
sg27
I3
sg34
g12
sS'StopTrials.thisN'
p289
I16
sa(dp290
g21
I0
sg26
I6
sg25
I4
sg30
F0.34999999999999998
sg43
g44
sg42
I3
sg18
g112
sg35
V
sg105
I0
sS'StopBlocks.thisTrial'
p291
Nsg45
g46
sg20
NsS'StopTrials.thisIndex'
p292
I0
sS'StopBlocks.thisRepN'
p293
I0
sg23
I12
sg106
I-200
sS'StopBlocks.thisTrialN'
p294
I0
sS'StopBlocks.thisIndex'
p295
g93
sg37
g41
sg17
F0.29999999999999999
sS'StopTrials.thisRepN'
p296
I8
sg28
I4
sg104
Vz
sS'StopBlocks.thisN'
p297
I0
sg29
I4
sg24
F1.4026429653167725
sS'StopTrials.thisTrialN'
p298
I1
sg36
V
sg19
g121
sg27
I4
sg34
g12
sS'StopTrials.thisN'
p299
I17
sa(dp300
g21
I0
sg26
I6
sg25
I4
sg30
I-1
sg43
g44
sg42
I3
sg18
g124
sg35
V
sg105
I0
sS'StopBlocks.thisTrial'
p301
Nsg45
g46
sg20
NsS'StopTrials.thisIndex'
p302
I1
sS'StopBlocks.thisRepN'
p303
I0
sg23
I13
sg106
I200
sS'StopBlocks.thisTrialN'
p304
I0
sS'StopBlocks.thisIndex'
p305
g93
sg37
g41
sg17
I-1
sS'StopTrials.thisRepN'
p306
I9
sg28
I5
sg104
Vm
sS'StopBlocks.thisN'
p307
I0
sg29
I4
sg24
F1.4026429653167725
sS'StopTrials.thisTrialN'
p308
I0
sg36
V
sg19
g121
sg27
I4
sg34
g12
sS'StopTrials.thisN'
p309
I18
sa(dp310
g21
I0
sg26
I6
sg25
I4
sg30
I-1
sg43
g44
sg42
I3
sg18
g124
sg35
V
sg105
I0
sS'StopBlocks.thisTrial'
p311
Nsg45
g46
sg20
NsS'StopTrials.thisIndex'
p312
I1
sS'StopBlocks.thisRepN'
p313
I0
sg23
I14
sg106
I200
sS'StopBlocks.thisTrialN'
p314
I0
sS'StopBlocks.thisIndex'
p315
g93
sg37
g41
sg17
I-1
sS'StopTrials.thisRepN'
p316
I9
sg28
I6
sg104
Vm
sS'StopBlocks.thisN'
p317
I0
sg29
I4
sg24
F1.4026429653167725
sS'StopTrials.thisTrialN'
p318
I1
sg36
V
sg19
g258
sg27
I4
sg34
g12
sS'StopTrials.thisN'
p319
I19
sasS'loops'
p320
(lp321
g1
(g49
g3
NtRp322
(dp323
g52
V<PsychoPy2experiment version="1.82.01" encoding="utf-8">\u000a  <Settings>\u000a    <Param name="Show mouse" val="False" valType="bool" updates="None"/>\u000a    <Param name="Data filename" val="u'data' + os.sep + '%s_%s' %(expInfo['participant'], expInfo['date'])" valType="code" updates="None"/>\u000a    <Param name="Monitor" val="testMonitor" valType="str" updates="None"/>\u000a    <Param name="Enable Escape" val="True" valType="bool" updates="None"/>\u000a    <Param name="color" val="black" valType="str" updates="None"/>\u000a    <Param name="Window size (pixels)" val="[1680, 1050]" valType="code" updates="None"/>\u000a    <Param name="Full-screen window" val="True" valType="bool" updates="None"/>\u000a    <Param name="colorSpace" val="rgb" valType="str" updates="None"/>\u000a    <Param name="Experiment info" val="{'participant':'', 'gender (m/f)':'', 'age':'', 'session':03}" valType="code" updates="None"/>\u000a    <Param name="Save csv file" val="False" valType="bool" updates="None"/>\u000a    <Param name="Show info dlg" val="True" valType="bool" updates="None"/>\u000a    <Param name="Save wide csv file" val="True" valType="bool" updates="None"/>\u000a    <Param name="Save psydat file" val="True" valType="bool" updates="None"/>\u000a    <Param name="expName" val="LearningTask" valType="str" updates="None"/>\u000a    <Param name="logging level" val="warning" valType="code" updates="None"/>\u000a    <Param name="blendMode" val="avg" valType="str" updates="None"/>\u000a    <Param name="Save excel file" val="True" valType="bool" updates="None"/>\u000a    <Param name="Units" val="use prefs" valType="str" updates="None"/>\u000a    <Param name="Save log file" val="True" valType="bool" updates="None"/>\u000a    <Param name="Screen" val="1" valType="num" updates="None"/>\u000a  </Settings>\u000a  <Routines>\u000a    <Routine name="stopBlockSetup">\u000a      <CodeComponent name="code_9">\u000a        <Param name="Begin Experiment" val="goCumRT = 0&#10;goRTCount = 0&#10;omissionCount = 0&#10;commissionCount = 0&#10;stopTrialCount = 0&#10;stopSuccessCount = 0&#10;goTrialCount = 0" valType="extendedCode" updates="constant"/>\u000a        <Param name="name" val="code_9" valType="code" updates="None"/>\u000a        <Param name="Begin Routine" val="" valType="extendedCode" updates="constant"/>\u000a        <Param name="End Routine" val="" valType="extendedCode" updates="constant"/>\u000a        <Param name="End Experiment" val="" valType="extendedCode" updates="constant"/>\u000a        <Param name="Each Frame" val="" valType="extendedCode" updates="constant"/>\u000a      </CodeComponent>\u000a    </Routine>\u000a    <Routine name="blankStop">\u000a      <TextComponent name="text_4">\u000a        <Param name="opacity" val="1" valType="code" updates="constant"/>\u000a        <Param name="colorSpace" val="rgb" valType="str" updates="constant"/>\u000a        <Param name="name" val="text_4" valType="code" updates="None"/>\u000a        <Param name="wrapWidth" val="" valType="code" updates="constant"/>\u000a        <Param name="color" val="white" valType="str" updates="constant"/>\u000a        <Param name="text" val="" valType="str" updates="constant"/>\u000a        <Param name="stopVal" val="1.5" valType="code" updates="constant"/>\u000a        <Param name="durationEstim" val="" valType="code" updates="None"/>\u000a        <Param name="pos" val="[0, 0]" valType="code" updates="constant"/>\u000a        <Param name="flip" val="" valType="str" updates="constant"/>\u000a        <Param name="startEstim" val="" valType="code" updates="None"/>\u000a        <Param name="units" val="from exp settings" valType="str" updates="None"/>\u000a        <Param name="startType" val="time (s)" valType="str" updates="None"/>\u000a        <Param name="ori" val="0" valType="code" updates="constant"/>\u000a        <Param name="stopType" val="duration (s)" valType="str" updates="None"/>\u000a        <Param name="startVal" val="0.0" valType="code" updates="None"/>\u000a        <Param name="font" val="Arial" valType="str" updates="constant"/>\u000a        <Param name="letterHeight" val="0.1" valType="code" updates="constant"/>\u000a      </TextComponent>\u000a    </Routine>\u000a    <Routine name="End">\u000a      <TextComponent name="text_6">\u000a        <Param name="opacity" val="1" valType="code" updates="constant"/>\u000a        <Param name="colorSpace" val="rgb" valType="str" updates="constant"/>\u000a        <Param name="name" val="text_6" valType="code" updates="None"/>\u000a        <Param name="wrapWidth" val="" valType="code" updates="constant"/>\u000a        <Param name="color" val="white" valType="str" updates="constant"/>\u000a        <Param name="text" val="This is the end, beautiful friend" valType="str" updates="constant"/>\u000a        <Param name="stopVal" val="5" valType="code" updates="constant"/>\u000a        <Param name="durationEstim" val="" valType="code" updates="None"/>\u000a        <Param name="pos" val="[0, 0]" valType="code" updates="constant"/>\u000a        <Param name="flip" val="" valType="str" updates="constant"/>\u000a        <Param name="startEstim" val="" valType="code" updates="None"/>\u000a        <Param name="units" val="from exp settings" valType="str" updates="None"/>\u000a        <Param name="startType" val="time (s)" valType="str" updates="None"/>\u000a        <Param name="ori" val="0" valType="code" updates="constant"/>\u000a        <Param name="stopType" val="duration (s)" valType="str" updates="None"/>\u000a        <Param name="startVal" val="0.0" valType="code" updates="None"/>\u000a        <Param name="font" val="Arial" valType="str" updates="constant"/>\u000a        <Param name="letterHeight" val="0.1" valType="code" updates="constant"/>\u000a      </TextComponent>\u000a    </Routine>\u000a    <Routine name="instrStopPrac">\u000a      <TextComponent name="instrStopText">\u000a        <Param name="opacity" val="1" valType="code" updates="constant"/>\u000a        <Param name="colorSpace" val="rgb" valType="str" updates="constant"/>\u000a        <Param name="name" val="instrStopText" valType="code" updates="None"/>\u000a        <Param name="wrapWidth" val="" valType="code" updates="constant"/>\u000a        <Param name="color" val="white" valType="str" updates="constant"/>\u000a        <Param name="text" val="A shape stimulus will appear on the left or right side of the screen&#10;&#10;If it appears on the left, press Z&#10;&#10;If it appears on the right, press M&#10;&#10;If you hear a tone, do not press anything on that trial" valType="str" updates="constant"/>\u000a        <Param name="stopVal" val="" valType="code" updates="constant"/>\u000a        <Param name="durationEstim" val="" valType="code" updates="None"/>\u000a        <Param name="pos" val="[0, 0]" valType="code" updates="constant"/>\u000a        <Param name="flip" val="" valType="str" updates="constant"/>\u000a        <Param name="startEstim" val="" valType="code" updates="None"/>\u000a        <Param name="units" val="from exp settings" valType="str" updates="None"/>\u000a        <Param name="startType" val="time (s)" valType="str" updates="None"/>\u000a        <Param name="ori" val="0" valType="code" updates="constant"/>\u000a        <Param name="stopType" val="duration (s)" valType="str" updates="None"/>\u000a        <Param name="startVal" val="0.0" valType="code" updates="None"/>\u000a        <Param name="font" val="Arial" valType="str" updates="constant"/>\u000a        <Param name="letterHeight" val="0.1" valType="code" updates="constant"/>\u000a      </TextComponent>\u000a      <KeyboardComponent name="key_resp_2">\u000a        <Param name="correctAns" val="" valType="str" updates="constant"/>\u000a        <Param name="storeCorrect" val="False" valType="bool" updates="constant"/>\u000a        <Param name="name" val="key_resp_2" valType="code" updates="None"/>\u000a        <Param name="stopVal" val="" valType="code" updates="constant"/>\u000a        <Param name="durationEstim" val="" valType="code" updates="None"/>\u000a        <Param name="forceEndRoutine" val="True" valType="bool" updates="constant"/>\u000a        <Param name="startEstim" val="" valType="code" updates="None"/>\u000a        <Param name="discard previous" val="True" valType="bool" updates="constant"/>\u000a        <Param name="startType" val="time (s)" valType="str" updates="None"/>\u000a        <Param name="allowedKeys" val="" valType="code" updates="constant"/>\u000a        <Param name="stopType" val="duration (s)" valType="str" updates="None"/>\u000a        <Param name="startVal" val="0.0" valType="code" updates="None"/>\u000a        <Param name="store" val="nothing" valType="str" updates="constant"/>\u000a      </KeyboardComponent>\u000a      <CodeComponent name="code_8">\u000a        <Param name="Begin Experiment" val="" valType="extendedCode" updates="constant"/>\u000a        <Param name="name" val="code_8" valType="code" updates="None"/>\u000a        <Param name="Begin Routine" val="InitSSD = .25&#10;SSDLeft = InitSSD&#10;SSDRight = InitSSD" valType="extendedCode" updates="constant"/>\u000a        <Param name="End Routine" val="" valType="extendedCode" updates="constant"/>\u000a        <Param name="End Experiment" val="" valType="extendedCode" updates="constant"/>\u000a        <Param name="Each Frame" val="" valType="extendedCode" updates="constant"/>\u000a      </CodeComponent>\u000a    </Routine>\u000a    <Routine name="ExitMain">\u000a      <CodeComponent name="code_6">\u000a        <Param name="Begin Experiment" val="" valType="extendedCode" updates="constant"/>\u000a        <Param name="name" val="code_6" valType="code" updates="None"/>\u000a        <Param name="Begin Routine" val="" valType="extendedCode" updates="constant"/>\u000a        <Param name="End Routine" val="if resp.corr:&#10;    ReDoLoopMain.finished = True" valType="extendedCode" updates="constant"/>\u000a        <Param name="End Experiment" val="" valType="extendedCode" updates="constant"/>\u000a        <Param name="Each Frame" val="" valType="extendedCode" updates="constant"/>\u000a      </CodeComponent>\u000a    </Routine>\u000a    <Routine name="endOfStopBlockFeedback">\u000a      <CodeComponent name="code_10">\u000a        <Param name="Begin Experiment" val="" valType="extendedCode" updates="constant"/>\u000a        <Param name="name" val="code_10" valType="code" updates="None"/>\u000a        <Param name="Begin Routine" val="if goRTCount &gt; 0:&#10;    goRTFeedback = goCumRT/goRTCount&#10;else:&#10;    goRTFeedback = 'Null'&#10;&#10;if goTrialCount &gt; 0:&#10;    commissionRate = commissionCount/goTrialCount&#10;    omissionRate = omissionCount/goTrialCount&#10;else: &#10;    commissionRate = 'Null'&#10;    omissionRate = 'Null'&#10;&#10;if stopTrialCount &gt; 0: &#10;    probabilityOfStop = stopSuccessCount/stopTrialCount&#10;    probabilityOfStop = round(probabilityOfStop, 2)&#10;else:&#10;    probabilityOfStop = 'Null'&#10;&#10;SSDFeedback = (SSDLeft+SSDRight)/2&#10;&#10;stopMessage = &quot; RT = &quot; + str(goRTFeedback) + &quot;\u005cn Omission % = &quot; + str(omissionRate) + &quot;\u005cn Commission % = &quot; + str(commissionRate) + &quot;\u005cn\u005cn\u005cn\u005cn &quot; + str(probabilityOfStop) + &quot;\u005cn &quot; + str(SSDFeedback)" valType="extendedCode" updates="constant"/>\u000a        <Param name="End Routine" val="" valType="extendedCode" updates="constant"/>\u000a        <Param name="End Experiment" val="" valType="extendedCode" updates="constant"/>\u000a        <Param name="Each Frame" val="" valType="extendedCode" updates="constant"/>\u000a      </CodeComponent>\u000a      <TextComponent name="text_5">\u000a        <Param name="opacity" val="1" valType="code" updates="constant"/>\u000a        <Param name="colorSpace" val="rgb" valType="str" updates="constant"/>\u000a        <Param name="name" val="text_5" valType="code" updates="None"/>\u000a        <Param name="wrapWidth" val="" valType="code" updates="constant"/>\u000a        <Param name="color" val="white" valType="str" updates="constant"/>\u000a        <Param name="text" val="$stopMessage&#10;" valType="str" updates="set every repeat"/>\u000a        <Param name="stopVal" val="" valType="code" updates="constant"/>\u000a        <Param name="durationEstim" val="" valType="code" updates="None"/>\u000a        <Param name="pos" val="[0, 0]" valType="code" updates="constant"/>\u000a        <Param name="flip" val="" valType="str" updates="constant"/>\u000a        <Param name="startEstim" val="" valType="code" updates="None"/>\u000a        <Param name="units" val="from exp settings" valType="str" updates="None"/>\u000a        <Param name="startType" val="time (s)" valType="str" updates="None"/>\u000a        <Param name="ori" val="0" valType="code" updates="constant"/>\u000a        <Param name="stopType" val="duration (s)" valType="str" updates="None"/>\u000a        <Param name="startVal" val="0.0" valType="code" updates="None"/>\u000a        <Param name="font" val="Arial" valType="str" updates="constant"/>\u000a        <Param name="letterHeight" val="0.1" valType="code" updates="constant"/>\u000a      </TextComponent>\u000a      <KeyboardComponent name="key_resp_3">\u000a        <Param name="correctAns" val="" valType="str" updates="constant"/>\u000a        <Param name="storeCorrect" val="False" valType="bool" updates="constant"/>\u000a        <Param name="name" val="key_resp_3" valType="code" updates="None"/>\u000a        <Param name="stopVal" val="" valType="code" updates="constant"/>\u000a        <Param name="durationEstim" val="" valType="code" updates="None"/>\u000a        <Param name="forceEndRoutine" val="True" valType="bool" updates="constant"/>\u000a        <Param name="startEstim" val="" valType="code" updates="None"/>\u000a        <Param name="discard previous" val="True" valType="bool" updates="constant"/>\u000a        <Param name="startType" val="time (s)" valType="str" updates="None"/>\u000a        <Param name="allowedKeys" val="'y','n','left','right','space'" valType="code" updates="set every repeat"/>\u000a        <Param name="stopType" val="duration (s)" valType="str" updates="None"/>\u000a        <Param name="startVal" val="0.0" valType="code" updates="None"/>\u000a        <Param name="store" val="last key" valType="str" updates="constant"/>\u000a      </KeyboardComponent>\u000a    </Routine>\u000a    <Routine name="NewStim">\u000a      <CodeComponent name="code_4">\u000a        <Param name="Begin Experiment" val="" valType="extendedCode" updates="constant"/>\u000a        <Param name="name" val="code_4" valType="code" updates="None"/>\u000a        <Param name="Begin Routine" val="currentLearningTrial = learningTrialList.pop(0)&#10;currentStimulus = currentLearningTrial['fileName']&#10;" valType="extendedCode" updates="constant"/>\u000a        <Param name="End Routine" val="" valType="extendedCode" updates="constant"/>\u000a        <Param name="End Experiment" val="" valType="extendedCode" updates="constant"/>\u000a        <Param name="Each Frame" val="" valType="extendedCode" updates="constant"/>\u000a      </CodeComponent>\u000a    </Routine>\u000a    <Routine name="SSDChange">\u000a      <CodeComponent name="code_2">\u000a        <Param name="Begin Experiment" val="" valType="extendedCode" updates="constant"/>\u000a        <Param name="name" val="code_2" valType="code" updates="None"/>\u000a        <Param name="Begin Routine" val="if currentStopTrial['stopOrGo'] == 'stop':&#10;    if goResp.keys is None:&#10;        if SSD &lt;= 800:&#10;            if xPosGoStim == -200:&#10;                SSDLeft = deepcopy(SSDLeft)  + .05&#10;                SSD = SSDLeft&#10;            if xPosGoStim == 200:&#10;                SSDRight = deepcopy(SSDRight) + .05&#10;                SSD = SSDRight&#10;    else:&#10;        if SSD &gt; 0:&#10;            if xPosGoStim == -200:&#10;                SSDLeft = deepcopy(SSDLeft) - .05&#10;                SSD = SSDLeft&#10;            if xPosGoStim == 200:&#10;                SSDRight = deepcopy(SSDRight) - .05&#10;                SSD = SSDRight&#10;&#10;if currentStopTrial['stopOrGo'] == 'go':&#10;    goTrialCount = goTrialCount + 1&#10;&#10;if goResp.corr and currentStopTrial['stopOrGo'] == 'go':&#10;    goCumRT = goCumRT + goResp.rt&#10;    goRTCount = goRTCount + 1&#10;&#10;if currentStopTrial['stopOrGo'] == 'stop':&#10;    stopTrialCount = stopTrialCount + 1&#10;&#10;if currentStopTrial['stopOrGo'] == 'stop' and goResp.keys is None:&#10;    stopSuccessCount = stopSuccessCount + 1&#10;&#10;if currentStopTrial['stopOrGo'] == 'go':&#10;    if goResp.keys is None:&#10;        omissionCount = omissionCount + 1&#10;    elif goResp.corr == 0:&#10;        commissionCount = commissionCount + 1&#10;&#10;StopTrials.addData(&quot;goTrailCountOutput&quot;, goTrialCount)&#10;StopTrials.addData(&quot;goCumRTOutput&quot;, goCumRT)&#10;StopTrials.addData(&quot;goRTCountOutput&quot;, goRTCount)&#10;StopTrials.addData(&quot;stopTrialCountOutput&quot;, stopTrialCount)&#10;StopTrials.addData(&quot;stopSuccessCountOutput&quot;, stopSuccessCount)&#10;StopTrials.addData(&quot;omissionCountOutput&quot;, omissionCount)&#10;StopTrials.addData(&quot;commissionCountOutput&quot;, commissionCount)&#10;" valType="extendedCode" updates="constant"/>\u000a        <Param name="End Routine" val="StopTrials.addData(&quot;EndingSSD&quot;, SSD)" valType="extendedCode" updates="constant"/>\u000a        <Param name="End Experiment" val="" valType="extendedCode" updates="constant"/>\u000a        <Param name="Each Frame" val="" valType="extendedCode" updates="constant"/>\u000a      </CodeComponent>\u000a    </Routine>\u000a    <Routine name="instrPractice">\u000a      <TextComponent name="instruct1">\u000a        <Param name="opacity" val="1" valType="code" updates="constant"/>\u000a        <Param name="colorSpace" val="rgb" valType="str" updates="constant"/>\u000a        <Param name="name" val="instruct1" valType="code" updates="constant"/>\u000a        <Param name="wrapWidth" val="" valType="code" updates="constant"/>\u000a        <Param name="color" val="white" valType="str" updates="constant"/>\u000a        <Param name="text" val="A shape stimulus will appear on every trial. &#10;&#10;If it appears in the upper right quadrant, PRESS I&#10;&#10;If it appears in the lower right quadrant, PRESS K&#10;&#10;If it appears in the lower left quadrant, PRESS J&#10;&#10;If it appears in the upper left quadrant, PRESS U&#10;&#10;Press any key when you are ready to proceed. " valType="str" updates="constant"/>\u000a        <Param name="stopVal" val="" valType="code" updates="constant"/>\u000a        <Param name="durationEstim" val="" valType="code" updates="None"/>\u000a        <Param name="pos" val="[0, 0]" valType="code" updates="constant"/>\u000a        <Param name="flip" val="" valType="str" updates="constant"/>\u000a        <Param name="startEstim" val="" valType="code" updates="None"/>\u000a        <Param name="units" val="from exp settings" valType="str" updates="None"/>\u000a        <Param name="startType" val="time (s)" valType="str" updates="None"/>\u000a        <Param name="ori" val="0" valType="code" updates="constant"/>\u000a        <Param name="stopType" val="duration (s)" valType="str" updates="None"/>\u000a        <Param name="startVal" val="0.0" valType="code" updates="None"/>\u000a        <Param name="font" val="Arial" valType="str" updates="constant"/>\u000a        <Param name="letterHeight" val="0.07" valType="code" updates="constant"/>\u000a      </TextComponent>\u000a      <KeyboardComponent name="ok1">\u000a        <Param name="correctAns" val="" valType="str" updates="constant"/>\u000a        <Param name="storeCorrect" val="False" valType="bool" updates="constant"/>\u000a        <Param name="name" val="ok1" valType="code" updates="None"/>\u000a        <Param name="stopVal" val="" valType="code" updates="constant"/>\u000a        <Param name="durationEstim" val="" valType="code" updates="None"/>\u000a        <Param name="forceEndRoutine" val="True" valType="bool" updates="constant"/>\u000a        <Param name="startEstim" val="" valType="code" updates="None"/>\u000a        <Param name="discard previous" val="True" valType="bool" updates="constant"/>\u000a        <Param name="startType" val="time (s)" valType="str" updates="None"/>\u000a        <Param name="allowedKeys" val="" valType="code" updates="constant"/>\u000a        <Param name="stopType" val="duration (s)" valType="str" updates="None"/>\u000a        <Param name="startVal" val="0.0" valType="code" updates="None"/>\u000a        <Param name="store" val="last key" valType="str" updates="constant"/>\u000a      </KeyboardComponent>\u000a    </Routine>\u000a    <Routine name="ExitPrac">\u000a      <CodeComponent name="code_5">\u000a        <Param name="Begin Experiment" val="" valType="extendedCode" updates="constant"/>\u000a        <Param name="name" val="code_5" valType="code" updates="None"/>\u000a        <Param name="Begin Routine" val="" valType="extendedCode" updates="constant"/>\u000a        <Param name="End Routine" val="if resp.corr:&#10;    ReDoLoop.finished = True " valType="extendedCode" updates="constant"/>\u000a        <Param name="End Experiment" val="" valType="extendedCode" updates="constant"/>\u000a        <Param name="Each Frame" val="" valType="extendedCode" updates="constant"/>\u000a      </CodeComponent>\u000a    </Routine>\u000a    <Routine name="trial">\u000a      <KeyboardComponent name="resp">\u000a        <Param name="correctAns" val="$corrAns" valType="str" updates="constant"/>\u000a        <Param name="storeCorrect" val="True" valType="bool" updates="constant"/>\u000a        <Param name="name" val="resp" valType="code" updates="None"/>\u000a        <Param name="stopVal" val="1" valType="code" updates="constant"/>\u000a        <Param name="durationEstim" val="" valType="code" updates="None"/>\u000a        <Param name="forceEndRoutine" val="True" valType="bool" updates="constant"/>\u000a        <Param name="startEstim" val="" valType="code" updates="None"/>\u000a        <Param name="discard previous" val="True" valType="bool" updates="constant"/>\u000a        <Param name="startType" val="time (s)" valType="str" updates="None"/>\u000a        <Param name="allowedKeys" val="'u', 'i', 'j', 'k'" valType="code" updates="constant"/>\u000a        <Param name="stopType" val="duration (s)" valType="str" updates="None"/>\u000a        <Param name="startVal" val=".5" valType="code" updates="None"/>\u000a        <Param name="store" val="last key" valType="str" updates="constant"/>\u000a      </KeyboardComponent>\u000a      <TextComponent name="text">\u000a        <Param name="opacity" val="1" valType="code" updates="constant"/>\u000a        <Param name="colorSpace" val="rgb" valType="str" updates="constant"/>\u000a        <Param name="name" val="text" valType="code" updates="None"/>\u000a        <Param name="wrapWidth" val="" valType="code" updates="constant"/>\u000a        <Param name="color" val="white" valType="str" updates="constant"/>\u000a        <Param name="text" val="+" valType="str" updates="constant"/>\u000a        <Param name="stopVal" val="1.5" valType="code" updates="constant"/>\u000a        <Param name="durationEstim" val="" valType="code" updates="None"/>\u000a        <Param name="pos" val="[0, 0]" valType="code" updates="constant"/>\u000a        <Param name="flip" val="" valType="str" updates="constant"/>\u000a        <Param name="startEstim" val="" valType="code" updates="None"/>\u000a        <Param name="units" val="from exp settings" valType="str" updates="None"/>\u000a        <Param name="startType" val="time (s)" valType="str" updates="None"/>\u000a        <Param name="ori" val="0" valType="code" updates="constant"/>\u000a        <Param name="stopType" val="duration (s)" valType="str" updates="None"/>\u000a        <Param name="startVal" val="0.0" valType="code" updates="None"/>\u000a        <Param name="font" val="Arial" valType="str" updates="constant"/>\u000a        <Param name="letterHeight" val="1" valType="code" updates="constant"/>\u000a      </TextComponent>\u000a      <ImageComponent name="image_2">\u000a        <Param name="opacity" val="1" valType="code" updates="constant"/>\u000a        <Param name="flipVert" val="False" valType="bool" updates="constant"/>\u000a        <Param name="colorSpace" val="rgb" valType="str" updates="constant"/>\u000a        <Param name="name" val="image_2" valType="code" updates="None"/>\u000a        <Param name="color" val="$[1,1,1]" valType="str" updates="constant"/>\u000a        <Param name="stopVal" val="1.0" valType="code" updates="constant"/>\u000a        <Param name="durationEstim" val="" valType="code" updates="None"/>\u000a        <Param name="mask" val="None" valType="str" updates="constant"/>\u000a        <Param name="pos" val="$[xPos, yPos]" valType="code" updates="set every repeat"/>\u000a        <Param name="interpolate" val="linear" valType="str" updates="constant"/>\u000a        <Param name="startEstim" val="" valType="code" updates="None"/>\u000a        <Param name="units" val="pix" valType="str" updates="None"/>\u000a        <Param name="texture resolution" val="128" valType="code" updates="constant"/>\u000a        <Param name="startType" val="time (s)" valType="str" updates="None"/>\u000a        <Param name="ori" val="0" valType="code" updates="constant"/>\u000a        <Param name="stopType" val="duration (s)" valType="str" updates="None"/>\u000a        <Param name="startVal" val=".5" valType="code" updates="None"/>\u000a        <Param name="flipHoriz" val="False" valType="bool" updates="constant"/>\u000a        <Param name="image" val="$currentStimulus" valType="str" updates="set every repeat"/>\u000a        <Param name="size" val="[151, 151]" valType="code" updates="constant"/>\u000a      </ImageComponent>\u000a    </Routine>\u000a    <Routine name="StimSetup">\u000a      <CodeComponent name="code">\u000a        <Param name="Begin Experiment" val="from copy import deepcopy&#10;colors = ['yellow', 'white', 'orange', 'magenta', 'green', 'gray', 'cyan', 'blue']&#10;shapes = ['triangle', 'square', 'line', 'invertedtriangle', 'hexagon', 'diamond', 'cross', 'circle']&#10;rewards = [0.50, 1.00, 2.00, 4.00] * 2&#10;conditions = ['go', 'go', 'go', 'go', 'stop', 'stop', 'stop', 'stop']&#10;trialDetailsList = []&#10;learningTrialList = []&#10;&#10;shuffle(colors)&#10;shuffle(shapes)&#10;&#10;for i, color in enumerate(colors): # cycle through each color and keep track of an index number&#10;    trialDetails = {} # a dictionary of key-value pairs&#10;    trialDetails['fileName'] = shapes[i] + color + '.gif'&#10;    trialDetails['reward'] = rewards[i]&#10;    trialDetails['condition'] = conditions[i]&#10;    trialDetailsList.append(trialDetails)&#10;&#10;shuffle(trialDetailsList) # do this now to ensure that order of presentation of rewards and conditions is also shuffled&#10;&#10;conditionOne = trialDetailsList[0]&#10;conditionTwo = trialDetailsList[1]&#10;conditionThree = trialDetailsList[2]&#10;conditionFour = trialDetailsList[3]&#10;conditionFive = trialDetailsList[4]&#10;conditionSix = trialDetailsList[5]&#10;conditionSeven = trialDetailsList[6]&#10;conditionEight = trialDetailsList[7]&#10;&#10;numLearningTrials = 400&#10;numLearningRepetitions = 50&#10;for k in range(1, numLearningRepetitions + 1):&#10;    learningTrialList.append(conditionOne)&#10;    learningTrialList.append(conditionTwo)&#10;    learningTrialList.append(conditionThree)&#10;    learningTrialList.append(conditionFour)&#10;    learningTrialList.append(conditionFive)&#10;    learningTrialList.append(conditionSix)&#10;    learningTrialList.append(conditionSeven)&#10;    learningTrialList.append(conditionEight)&#10;&#10;shuffle(learningTrialList)&#10;&#10;stopTaskTrials = 272&#10;stopTrialsPerStopStim = 26&#10;goTrialsPerStopStim = 8&#10;goTrialsPerGoStim = 34&#10;numStim = 8&#10;stopTrialList = []&#10;&#10;if conditionOne['condition'] == 'go':&#10;    conditionOne['stopOrGo'] = 'go'&#10;    for i in range(1, goTrialsPerGoStim + 1):&#10;        stopTrialList.append(conditionOne)&#10;else:&#10;    for j in range(1, goTrialsPerStopStim + 1):&#10;        conditionOne['stopOrGo'] = 'go'&#10;        stopTrialList.append(deepcopy(conditionOne))&#10;    for i in range(1, stopTrialsPerStopStim + 1):&#10;        conditionOne['stopOrGo'] = 'stop'&#10;        stopTrialList.append(deepcopy(conditionOne))&#10;if conditionTwo['condition'] == 'go':&#10;    conditionTwo['stopOrGo'] = 'go'&#10;    for i in range(1, goTrialsPerGoStim + 1):&#10;        stopTrialList.append(conditionTwo)&#10;else:&#10;    for j in range(1, goTrialsPerStopStim + 1):&#10;        conditionTwo['stopOrGo'] = 'go'&#10;        stopTrialList.append(deepcopy(conditionTwo))&#10;    for i in range(1,  stopTrialsPerStopStim + 1):&#10;        conditionTwo['stopOrGo'] = 'stop'&#10;        stopTrialList.append(deepcopy(conditionTwo))&#10;if conditionThree['condition'] == 'go':&#10;    conditionThree['stopOrGo'] = 'go'&#10;    for i in range(1, goTrialsPerGoStim + 1):&#10;        stopTrialList.append(conditionThree)&#10;else:&#10;    for j in range(1, goTrialsPerStopStim + 1):&#10;        conditionThree['stopOrGo'] = 'go'&#10;        stopTrialList.append(deepcopy(conditionThree))&#10;    for i in range(1, stopTrialsPerStopStim + 1):&#10;        conditionThree['stopOrGo'] = 'stop'&#10;        stopTrialList.append(deepcopy(conditionThree))&#10;if conditionFour['condition'] == 'go':&#10;    conditionFour['stopOrGo'] = 'go'&#10;    for i in range(1, goTrialsPerGoStim + 1):&#10;        stopTrialList.append(conditionFour)&#10;else:&#10;    for j in range(1, goTrialsPerStopStim + 1):&#10;        conditionFour['stopOrGo'] = 'go'&#10;        stopTrialList.append(deepcopy(conditionFour))&#10;    for i in range(1, stopTrialsPerStopStim + 1):&#10;        conditionFour['stopOrGo'] = 'stop'&#10;        stopTrialList.append(deepcopy(conditionFour))&#10;if conditionFive['condition'] == 'go':&#10;    conditionFive['stopOrGo'] = 'go'&#10;    for i in range(1, goTrialsPerGoStim + 1):&#10;        stopTrialList.append(conditionFive)&#10;else:&#10;    for j in range(1, goTrialsPerStopStim + 1):&#10;        conditionFive['stopOrGo'] = 'go'&#10;        stopTrialList.append(deepcopy(conditionFive))&#10;    for i in range(1, stopTrialsPerStopStim + 1):&#10;        conditionFive['stopOrGo'] = 'stop'&#10;        stopTrialList.append(deepcopy(conditionFive))&#10;if conditionSix['condition'] == 'go':&#10;    conditionSix['stopOrGo'] = 'go'&#10;    for i in range(1, goTrialsPerGoStim + 1):&#10;        stopTrialList.append(conditionSix)&#10;else:&#10;    for j in range(1, stopTrialsPerStopStim + 1):&#10;        conditionSix['stopOrGo'] = 'go'&#10;        stopTrialList.append(deepcopy(conditionSix))&#10;    for i in range(1, goTrialsPerStopStim + 1):&#10;        conditionSix['stopOrGo'] = 'stop'&#10;        stopTrialList.append(deepcopy(conditionSix))&#10;if conditionSeven['condition'] == 'go':&#10;    conditionSeven['stopOrGo'] = 'go'&#10;    for i in range(1, goTrialsPerGoStim + 1):&#10;        stopTrialList.append(conditionSeven)&#10;else:&#10;    for j in range(1, goTrialsPerStopStim + 1):&#10;        conditionSeven['stopOrGo'] = 'go'&#10;        stopTrialList.append(deepcopy(conditionSeven))&#10;    for i in range(1, stopTrialsPerStopStim + 1):&#10;        conditionSeven['stopOrGo'] = 'stop'&#10;        stopTrialList.append(deepcopy(conditionSeven))&#10;if conditionEight['condition'] == 'go':&#10;    conditionEight['stopOrGo'] = 'go'&#10;    for i in range(1, goTrialsPerGoStim + 1):&#10;        stopTrialList.append(conditionEight)&#10;else:&#10;    for j in range(1, goTrialsPerStopStim + 1):&#10;        conditionEight['stopOrGo'] = 'go'&#10;        stopTrialList.append(deepcopy(conditionEight))&#10;    for i in range(1, stopTrialsPerStopStim + 1):&#10;        conditionEight['stopOrGo'] = 'stop'&#10;        stopTrialList.append(deepcopy(conditionEight))&#10;&#10;shuffle(stopTrialList)" valType="extendedCode" updates="constant"/>\u000a        <Param name="name" val="code" valType="code" updates="None"/>\u000a        <Param name="Begin Routine" val="" valType="extendedCode" updates="constant"/>\u000a        <Param name="End Routine" val="" valType="extendedCode" updates="constant"/>\u000a        <Param name="End Experiment" val="" valType="extendedCode" updates="constant"/>\u000a        <Param name="Each Frame" val="" valType="extendedCode" updates="constant"/>\u000a      </CodeComponent>\u000a    </Routine>\u000a    <Routine name="Bank"/>\u000a    <Routine name="Blank">\u000a      <TextComponent name="text_2">\u000a        <Param name="opacity" val="1" valType="code" updates="constant"/>\u000a        <Param name="colorSpace" val="rgb" valType="str" updates="constant"/>\u000a        <Param name="name" val="text_2" valType="code" updates="None"/>\u000a        <Param name="wrapWidth" val="" valType="code" updates="constant"/>\u000a        <Param name="color" val="white" valType="str" updates="constant"/>\u000a        <Param name="text" val="" valType="str" updates="constant"/>\u000a        <Param name="stopVal" val=".5" valType="code" updates="constant"/>\u000a        <Param name="durationEstim" val="" valType="code" updates="None"/>\u000a        <Param name="pos" val="[0, 0]" valType="code" updates="constant"/>\u000a        <Param name="flip" val="" valType="str" updates="constant"/>\u000a        <Param name="startEstim" val="" valType="code" updates="None"/>\u000a        <Param name="units" val="from exp settings" valType="str" updates="None"/>\u000a        <Param name="startType" val="time (s)" valType="str" updates="None"/>\u000a        <Param name="ori" val="0" valType="code" updates="constant"/>\u000a        <Param name="stopType" val="duration (s)" valType="str" updates="None"/>\u000a        <Param name="startVal" val="0" valType="code" updates="None"/>\u000a        <Param name="font" val="Arial" valType="str" updates="constant"/>\u000a        <Param name="letterHeight" val="0.1" valType="code" updates="constant"/>\u000a      </TextComponent>\u000a    </Routine>\u000a    <Routine name="ResetAtBlock">\u000a      <CodeComponent name="code_3">\u000a        <Param name="Begin Experiment" val="" valType="extendedCode" updates="constant"/>\u000a        <Param name="name" val="code_3" valType="code" updates="None"/>\u000a        <Param name="Begin Routine" val="Redo = 1" valType="extendedCode" updates="constant"/>\u000a        <Param name="End Routine" val="" valType="extendedCode" updates="constant"/>\u000a        <Param name="End Experiment" val="" valType="extendedCode" updates="constant"/>\u000a        <Param name="Each Frame" val="" valType="extendedCode" updates="constant"/>\u000a      </CodeComponent>\u000a    </Routine>\u000a    <Routine name="StopTrial">\u000a      <SoundComponent name="sound_1">\u000a        <Param name="sound" val="900" valType="str" updates="constant"/>\u000a        <Param name="volume" val=".2" valType="code" updates="constant"/>\u000a        <Param name="name" val="sound_1" valType="code" updates="None"/>\u000a        <Param name="stopVal" val=".2" valType="code" updates="constant"/>\u000a        <Param name="durationEstim" val="" valType="code" updates="None"/>\u000a        <Param name="startEstim" val=".75" valType="code" updates="None"/>\u000a        <Param name="startType" val="time (s)" valType="str" updates="None"/>\u000a        <Param name="stopType" val="duration (s)" valType="str" updates="None"/>\u000a        <Param name="startVal" val="$SSDInput" valType="code" updates="None"/>\u000a      </SoundComponent>\u000a      <TextComponent name="text_3">\u000a        <Param name="opacity" val="1" valType="code" updates="constant"/>\u000a        <Param name="colorSpace" val="rgb" valType="str" updates="constant"/>\u000a        <Param name="name" val="text_3" valType="code" updates="None"/>\u000a        <Param name="wrapWidth" val="" valType="code" updates="constant"/>\u000a        <Param name="color" val="white" valType="str" updates="constant"/>\u000a        <Param name="text" val="|" valType="str" updates="constant"/>\u000a        <Param name="stopVal" val="1.5" valType="code" updates="constant"/>\u000a        <Param name="durationEstim" val="" valType="code" updates="None"/>\u000a        <Param name="pos" val="[0, 0]" valType="code" updates="constant"/>\u000a        <Param name="flip" val="" valType="str" updates="constant"/>\u000a        <Param name="startEstim" val="" valType="code" updates="None"/>\u000a        <Param name="units" val="from exp settings" valType="str" updates="None"/>\u000a        <Param name="startType" val="time (s)" valType="str" updates="None"/>\u000a        <Param name="ori" val="0" valType="code" updates="constant"/>\u000a        <Param name="stopType" val="duration (s)" valType="str" updates="None"/>\u000a        <Param name="startVal" val="0.0" valType="code" updates="None"/>\u000a        <Param name="font" val="Arial" valType="str" updates="constant"/>\u000a        <Param name="letterHeight" val="4" valType="code" updates="constant"/>\u000a      </TextComponent>\u000a      <ImageComponent name="image_3">\u000a        <Param name="opacity" val="1" valType="code" updates="constant"/>\u000a        <Param name="flipVert" val="False" valType="bool" updates="constant"/>\u000a        <Param name="colorSpace" val="rgb" valType="str" updates="constant"/>\u000a        <Param name="name" val="image_3" valType="code" updates="None"/>\u000a        <Param name="color" val="$[1,1,1]" valType="str" updates="constant"/>\u000a        <Param name="stopVal" val="1.0" valType="code" updates="constant"/>\u000a        <Param name="durationEstim" val="" valType="code" updates="None"/>\u000a        <Param name="mask" val="None" valType="str" updates="constant"/>\u000a        <Param name="pos" val="$[xPosGoStim, yPosGoStim]" valType="code" updates="set every repeat"/>\u000a        <Param name="interpolate" val="linear" valType="str" updates="constant"/>\u000a        <Param name="startEstim" val="" valType="code" updates="None"/>\u000a        <Param name="units" val="pix" valType="str" updates="None"/>\u000a        <Param name="texture resolution" val="128" valType="code" updates="constant"/>\u000a        <Param name="startType" val="time (s)" valType="str" updates="None"/>\u000a        <Param name="ori" val="0" valType="code" updates="constant"/>\u000a        <Param name="stopType" val="duration (s)" valType="str" updates="None"/>\u000a        <Param name="startVal" val=".5" valType="code" updates="None"/>\u000a        <Param name="flipHoriz" val="False" valType="bool" updates="constant"/>\u000a        <Param name="image" val="$currentGoStim" valType="str" updates="set every repeat"/>\u000a        <Param name="size" val="[151, 151]" valType="code" updates="constant"/>\u000a      </ImageComponent>\u000a      <KeyboardComponent name="goResp">\u000a        <Param name="correctAns" val="$corrGoResp" valType="str" updates="constant"/>\u000a        <Param name="storeCorrect" val="True" valType="bool" updates="constant"/>\u000a        <Param name="name" val="goResp" valType="code" updates="None"/>\u000a        <Param name="stopVal" val="1" valType="code" updates="constant"/>\u000a        <Param name="durationEstim" val="" valType="code" updates="None"/>\u000a        <Param name="forceEndRoutine" val="False" valType="bool" updates="constant"/>\u000a        <Param name="startEstim" val="" valType="code" updates="None"/>\u000a        <Param name="discard previous" val="True" valType="bool" updates="constant"/>\u000a        <Param name="startType" val="time (s)" valType="str" updates="None"/>\u000a        <Param name="allowedKeys" val="'z','m'" valType="code" updates="constant"/>\u000a        <Param name="stopType" val="duration (s)" valType="str" updates="None"/>\u000a        <Param name="startVal" val=".5" valType="code" updates="None"/>\u000a        <Param name="store" val="first key" valType="str" updates="constant"/>\u000a      </KeyboardComponent>\u000a    </Routine>\u000a    <Routine name="instrMain">\u000a      <TextComponent name="instr2">\u000a        <Param name="opacity" val="1" valType="code" updates="constant"/>\u000a        <Param name="colorSpace" val="rgb" valType="str" updates="constant"/>\u000a        <Param name="name" val="instr2" valType="code" updates="constant"/>\u000a        <Param name="wrapWidth" val="" valType="code" updates="constant"/>\u000a        <Param name="color" val="white" valType="str" updates="constant"/>\u000a        <Param name="text" val="A shape stimulus will appear on every trial. &#10;&#10;If it appears in the upper right quadrant, PRESS Y&#10;&#10;If it appears in the lower right quadrant, PRESS H&#10;&#10;If it appears in the lower left quadrant, PRESS G&#10;&#10;If it appears in the upper left quadrant, PRESS T&#10;&#10;Press any key when you are ready to proceed. " valType="str" updates="constant"/>\u000a        <Param name="stopVal" val="" valType="code" updates="constant"/>\u000a        <Param name="durationEstim" val="" valType="code" updates="None"/>\u000a        <Param name="pos" val="[0, 0]" valType="code" updates="constant"/>\u000a        <Param name="flip" val="" valType="str" updates="constant"/>\u000a        <Param name="startEstim" val="" valType="code" updates="None"/>\u000a        <Param name="units" val="from exp settings" valType="str" updates="None"/>\u000a        <Param name="startType" val="time (s)" valType="str" updates="None"/>\u000a        <Param name="ori" val="0" valType="code" updates="constant"/>\u000a        <Param name="stopType" val="duration (s)" valType="str" updates="None"/>\u000a        <Param name="startVal" val="0.0" valType="code" updates="None"/>\u000a        <Param name="font" val="Arial" valType="str" updates="constant"/>\u000a        <Param name="letterHeight" val="0.075" valType="code" updates="constant"/>\u000a      </TextComponent>\u000a      <KeyboardComponent name="ok2">\u000a        <Param name="correctAns" val="" valType="str" updates="constant"/>\u000a        <Param name="storeCorrect" val="False" valType="bool" updates="constant"/>\u000a        <Param name="name" val="ok2" valType="code" updates="None"/>\u000a        <Param name="stopVal" val="" valType="code" updates="constant"/>\u000a        <Param name="durationEstim" val="" valType="code" updates="None"/>\u000a        <Param name="forceEndRoutine" val="True" valType="bool" updates="constant"/>\u000a        <Param name="startEstim" val="" valType="code" updates="None"/>\u000a        <Param name="discard previous" val="True" valType="bool" updates="constant"/>\u000a        <Param name="startType" val="time (s)" valType="str" updates="None"/>\u000a        <Param name="allowedKeys" val="" valType="code" updates="constant"/>\u000a        <Param name="stopType" val="duration (s)" valType="str" updates="None"/>\u000a        <Param name="startVal" val="0.0" valType="code" updates="None"/>\u000a        <Param name="store" val="nothing" valType="str" updates="constant"/>\u000a      </KeyboardComponent>\u000a    </Routine>\u000a    <Routine name="newStopStim">\u000a      <CodeComponent name="code_7">\u000a        <Param name="Begin Experiment" val="" valType="extendedCode" updates="constant"/>\u000a        <Param name="name" val="code_7" valType="code" updates="None"/>\u000a        <Param name="Begin Routine" val="currentStopTrial = stopTrialList.pop(0)&#10;currentGoStim = currentStopTrial['fileName']&#10;currentStopOrGo = currentStopTrial['stopOrGo']&#10;&#10;if currentStopOrGo == 'stop':&#10;    if xPosGoStim == -200:&#10;        SSD = deepcopy(SSDLeft)&#10;    else:&#10;        SSD = deepcopy(SSDRight)&#10;elif currentStopOrGo == 'go':&#10;    SSD = -1&#10;&#10;StopTrials.addData(&quot;beginningSSD&quot;, SSD)&#10;StopTrials.addData(&quot;trialType&quot;, currentStopOrGo)&#10;StopTrials.addData(&quot;goStim&quot;, currentGoStim)&#10;SSDInput = SSD + .5" valType="extendedCode" updates="constant"/>\u000a        <Param name="End Routine" val="" valType="extendedCode" updates="constant"/>\u000a        <Param name="End Experiment" val="" valType="extendedCode" updates="constant"/>\u000a        <Param name="Each Frame" val="" valType="extendedCode" updates="constant"/>\u000a      </CodeComponent>\u000a    </Routine>\u000a    <Routine name="feedback">\u000a      <CodeComponent name="message">\u000a        <Param name="Begin Experiment" val="#message variable just needs some value at start&#10;message=0" valType="extendedCode" updates="constant"/>\u000a        <Param name="name" val="message" valType="code" updates="None"/>\u000a        <Param name="Begin Routine" val="import random&#10;&#10;displayReward = random.randrange(1, 6)&#10;&#10;if resp.corr:#stored on last run routine&#10;    if displayReward == 1:&#10;            message = &quot;You won $&quot; + str(0);&#10;    else: &#10;            currentReward = currentLearningTrial['reward']&#10;            message = &quot;You won $&quot; + str(currentReward + (random.randrange(-25, 26)*.01))&#10;elif resp.keys is None: #or len(key_resp.keys)&lt;1:&#10;#elif resp.rt == 0:&#10;    message =&quot;Too Slow&quot;&#10;else:&#10;  message=&quot;Wrong&quot;" valType="extendedCode" updates="constant"/>\u000a        <Param name="End Routine" val="" valType="extendedCode" updates="constant"/>\u000a        <Param name="End Experiment" val="" valType="extendedCode" updates="constant"/>\u000a        <Param name="Each Frame" val="" valType="extendedCode" updates="constant"/>\u000a      </CodeComponent>\u000a      <TextComponent name="feedback_2">\u000a        <Param name="opacity" val="1" valType="code" updates="constant"/>\u000a        <Param name="colorSpace" val="rgb" valType="str" updates="constant"/>\u000a        <Param name="name" val="feedback_2" valType="code" updates="constant"/>\u000a        <Param name="wrapWidth" val="" valType="code" updates="constant"/>\u000a        <Param name="color" val="$[1,1,1]" valType="str" updates="constant"/>\u000a        <Param name="text" val="$message" valType="str" updates="set every repeat"/>\u000a        <Param name="stopVal" val="1.0" valType="code" updates="constant"/>\u000a        <Param name="durationEstim" val="" valType="code" updates="None"/>\u000a        <Param name="pos" val="[0, 0]" valType="code" updates="constant"/>\u000a        <Param name="flip" val="" valType="str" updates="constant"/>\u000a        <Param name="startEstim" val="" valType="code" updates="None"/>\u000a        <Param name="units" val="from exp settings" valType="str" updates="None"/>\u000a        <Param name="startType" val="time (s)" valType="str" updates="None"/>\u000a        <Param name="ori" val="0" valType="code" updates="constant"/>\u000a        <Param name="stopType" val="duration (s)" valType="str" updates="None"/>\u000a        <Param name="startVal" val="0.0" valType="code" updates="None"/>\u000a        <Param name="font" val="Arial" valType="str" updates="constant"/>\u000a        <Param name="letterHeight" val=".2" valType="code" updates="constant"/>\u000a      </TextComponent>\u000a      <ImageComponent name="image">\u000a        <Param name="opacity" val="1" valType="code" updates="constant"/>\u000a        <Param name="flipVert" val="False" valType="bool" updates="constant"/>\u000a        <Param name="colorSpace" val="rgb" valType="str" updates="constant"/>\u000a        <Param name="name" val="image" valType="code" updates="None"/>\u000a        <Param name="color" val="$[1,1,1]" valType="str" updates="constant"/>\u000a        <Param name="stopVal" val="1.0" valType="code" updates="constant"/>\u000a        <Param name="durationEstim" val="" valType="code" updates="None"/>\u000a        <Param name="mask" val="None" valType="str" updates="constant"/>\u000a        <Param name="pos" val="$[xPos, yPos]" valType="code" updates="set every repeat"/>\u000a        <Param name="interpolate" val="linear" valType="str" updates="constant"/>\u000a        <Param name="startEstim" val="" valType="code" updates="None"/>\u000a        <Param name="units" val="pix" valType="str" updates="None"/>\u000a        <Param name="texture resolution" val="128" valType="code" updates="constant"/>\u000a        <Param name="startType" val="time (s)" valType="str" updates="None"/>\u000a        <Param name="ori" val="0" valType="code" updates="constant"/>\u000a        <Param name="stopType" val="duration (s)" valType="str" updates="None"/>\u000a        <Param name="startVal" val="0.0" valType="code" updates="None"/>\u000a        <Param name="flipHoriz" val="False" valType="bool" updates="constant"/>\u000a        <Param name="image" val="$currentStimulus" valType="str" updates="set every repeat"/>\u000a        <Param name="size" val="[151, 151]" valType="code" updates="constant"/>\u000a      </ImageComponent>\u000a    </Routine>\u000a  </Routines>\u000a  <Flow>\u000a    <Routine name="StimSetup"/>\u000a    <Routine name="instrPractice"/>\u000a    <LoopInitiator loopType="TrialHandler" name="Blocks">\u000a      <Param name="conditionsFile" val="" valType="str" updates="None"/>\u000a      <Param name="name" val="Blocks" valType="code" updates="None"/>\u000a      <Param name="isTrials" val="True" valType="bool" updates="None"/>\u000a      <Param name="random seed" val="" valType="code" updates="None"/>\u000a      <Param name="loopType" val="sequential" valType="str" updates="None"/>\u000a      <Param name="nReps" val="0" valType="code" updates="None"/>\u000a      <Param name="endPoints" val="[0, 1]" valType="num" updates="None"/>\u000a      <Param name="conditions" val="None" valType="str" updates="None"/>\u000a      <Param name="Selected rows" val="" valType="str" updates="None"/>\u000a    </LoopInitiator>\u000a    <Routine name="ResetAtBlock"/>\u000a    <LoopInitiator loopType="TrialHandler" name="trials">\u000a      <Param name="conditionsFile" val="TrialtypesLearning.xlsx" valType="str" updates="None"/>\u000a      <Param name="name" val="trials" valType="code" updates="None"/>\u000a      <Param name="isTrials" val="True" valType="bool" updates="None"/>\u000a      <Param name="random seed" val="" valType="code" updates="None"/>\u000a      <Param name="loopType" val="fullRandom" valType="str" updates="None"/>\u000a      <Param name="nReps" val="25" valType="num" updates="None"/>\u000a      <Param name="endPoints" val="[0, 1]" valType="num" updates="None"/>\u000a      <Param name="conditions" val="[{u'xPos': 200, u'corrAns': u'h', u'yPos': 200}, {u'xPos': -200, u'corrAns': u'g', u'yPos': 200}, {u'xPos': 200, u'corrAns': u'n', u'yPos': -200}, {u'xPos': -200, u'corrAns': u'b', u'yPos': -200}]" valType="str" updates="None"/>\u000a      <Param name="Selected rows" val="" valType="str" updates="None"/>\u000a    </LoopInitiator>\u000a    <Routine name="NewStim"/>\u000a    <LoopInitiator loopType="TrialHandler" name="ReDoLoopMain">\u000a      <Param name="conditionsFile" val="" valType="str" updates="None"/>\u000a      <Param name="name" val="ReDoLoopMain" valType="code" updates="None"/>\u000a      <Param name="isTrials" val="False" valType="bool" updates="None"/>\u000a      <Param name="random seed" val="" valType="code" updates="None"/>\u000a      <Param name="loopType" val="random" valType="str" updates="None"/>\u000a      <Param name="nReps" val="999" valType="code" updates="None"/>\u000a      <Param name="endPoints" val="[0, 1]" valType="num" updates="None"/>\u000a      <Param name="conditions" val="None" valType="str" updates="None"/>\u000a      <Param name="Selected rows" val="" valType="str" updates="None"/>\u000a    </LoopInitiator>\u000a    <Routine name="trial"/>\u000a    <Routine name="feedback"/>\u000a    <Routine name="Blank"/>\u000a    <Routine name="ExitMain"/>\u000a    <LoopTerminator name="ReDoLoopMain"/>\u000a    <LoopTerminator name="trials"/>\u000a    <LoopTerminator name="Blocks"/>\u000a    <Routine name="instrStopPrac"/>\u000a    <LoopInitiator loopType="TrialHandler" name="StopBlocks">\u000a      <Param name="conditionsFile" val="" valType="str" updates="None"/>\u000a      <Param name="name" val="StopBlocks" valType="code" updates="None"/>\u000a      <Param name="isTrials" val="True" valType="bool" updates="None"/>\u000a      <Param name="random seed" val="" valType="code" updates="None"/>\u000a      <Param name="loopType" val="sequential" valType="str" updates="None"/>\u000a      <Param name="nReps" val="4" valType="code" updates="None"/>\u000a      <Param name="endPoints" val="[0, 1]" valType="num" updates="None"/>\u000a      <Param name="conditions" val="None" valType="str" updates="None"/>\u000a      <Param name="Selected rows" val="" valType="str" updates="None"/>\u000a    </LoopInitiator>\u000a    <Routine name="stopBlockSetup"/>\u000a    <LoopInitiator loopType="TrialHandler" name="StopTrials">\u000a      <Param name="conditionsFile" val="trialtypeStop.xlsx" valType="str" updates="None"/>\u000a      <Param name="name" val="StopTrials" valType="code" updates="None"/>\u000a      <Param name="isTrials" val="True" valType="bool" updates="None"/>\u000a      <Param name="random seed" val="" valType="code" updates="None"/>\u000a      <Param name="loopType" val="fullRandom" valType="str" updates="None"/>\u000a      <Param name="nReps" val="10" valType="code" updates="None"/>\u000a      <Param name="endPoints" val="[0, 1]" valType="num" updates="None"/>\u000a      <Param name="conditions" val="[{u'corrGoResp': u'z', u'yPosGoStim': 0, u'xPosGoStim': -200}, {u'corrGoResp': u'm', u'yPosGoStim': 0, u'xPosGoStim': 200}]" valType="str" updates="None"/>\u000a      <Param name="Selected rows" val="" valType="str" updates="None"/>\u000a    </LoopInitiator>\u000a    <Routine name="newStopStim"/>\u000a    <Routine name="StopTrial"/>\u000a    <Routine name="blankStop"/>\u000a    <Routine name="SSDChange"/>\u000a    <LoopTerminator name="StopTrials"/>\u000a    <Routine name="endOfStopBlockFeedback"/>\u000a    <LoopTerminator name="StopBlocks"/>\u000a    <Routine name="End"/>\u000a  </Flow>\u000a</PsychoPy2experiment>\u000a
p324
sg54
(lp325
sg55
I244523984
sg11
S'Blocks'
p326
sg6
g7
sg57
I0
sg31
I01
sg32
g33
sg58
g1
(g59
g60
(dp327
g62
g63
(g64
g65
g66
S'b'
tRp328
(I1
(I1
I0
tg68
I00
S''
S''
Ntbsg69
g63
(g64
g65
g66
S'b'
tRp329
(I1
(I1
I0
tg68
I00
S''
S''
NtbstRp330
(dp331
g73
(dp332
g62
I01
sg69
I01
ssg75
g322
sg76
(lp333
g62
ag69
asg78
(lp334
I1
aI0
asbsg80
g81
sg82
g83
(g65
(I0
tS'b'
tRp335
(I1
(I1
I0
tg85
I00
S''
tbsg86
I01
sg87
I0
sg88
I-1
sg89
(lp336
Nasg91
Nsg92
I0
sg94
I0
sg95
I0
sg96
I0
sg97
I01
sbag50
ag1
(g49
g3
NtRp337
(dp338
g52
V<PsychoPy2experiment version="1.82.01" encoding="utf-8">\u000a  <Settings>\u000a    <Param name="Show mouse" val="False" valType="bool" updates="None"/>\u000a    <Param name="Data filename" val="u'data' + os.sep + '%s_%s' %(expInfo['participant'], expInfo['date'])" valType="code" updates="None"/>\u000a    <Param name="Monitor" val="testMonitor" valType="str" updates="None"/>\u000a    <Param name="Enable Escape" val="True" valType="bool" updates="None"/>\u000a    <Param name="color" val="black" valType="str" updates="None"/>\u000a    <Param name="Window size (pixels)" val="[1680, 1050]" valType="code" updates="None"/>\u000a    <Param name="Full-screen window" val="True" valType="bool" updates="None"/>\u000a    <Param name="colorSpace" val="rgb" valType="str" updates="None"/>\u000a    <Param name="Experiment info" val="{'participant':'', 'gender (m/f)':'', 'age':'', 'session':03}" valType="code" updates="None"/>\u000a    <Param name="Save csv file" val="False" valType="bool" updates="None"/>\u000a    <Param name="Show info dlg" val="True" valType="bool" updates="None"/>\u000a    <Param name="Save wide csv file" val="True" valType="bool" updates="None"/>\u000a    <Param name="Save psydat file" val="True" valType="bool" updates="None"/>\u000a    <Param name="expName" val="LearningTask" valType="str" updates="None"/>\u000a    <Param name="logging level" val="warning" valType="code" updates="None"/>\u000a    <Param name="blendMode" val="avg" valType="str" updates="None"/>\u000a    <Param name="Save excel file" val="True" valType="bool" updates="None"/>\u000a    <Param name="Units" val="use prefs" valType="str" updates="None"/>\u000a    <Param name="Save log file" val="True" valType="bool" updates="None"/>\u000a    <Param name="Screen" val="1" valType="num" updates="None"/>\u000a  </Settings>\u000a  <Routines>\u000a    <Routine name="stopBlockSetup">\u000a      <CodeComponent name="code_9">\u000a        <Param name="Begin Experiment" val="goCumRT = 0&#10;goRTCount = 0&#10;omissionCount = 0&#10;commissionCount = 0&#10;stopTrialCount = 0&#10;stopSuccessCount = 0&#10;goTrialCount = 0" valType="extendedCode" updates="constant"/>\u000a        <Param name="name" val="code_9" valType="code" updates="None"/>\u000a        <Param name="Begin Routine" val="" valType="extendedCode" updates="constant"/>\u000a        <Param name="End Routine" val="" valType="extendedCode" updates="constant"/>\u000a        <Param name="End Experiment" val="" valType="extendedCode" updates="constant"/>\u000a        <Param name="Each Frame" val="" valType="extendedCode" updates="constant"/>\u000a      </CodeComponent>\u000a    </Routine>\u000a    <Routine name="blankStop">\u000a      <TextComponent name="text_4">\u000a        <Param name="opacity" val="1" valType="code" updates="constant"/>\u000a        <Param name="colorSpace" val="rgb" valType="str" updates="constant"/>\u000a        <Param name="name" val="text_4" valType="code" updates="None"/>\u000a        <Param name="wrapWidth" val="" valType="code" updates="constant"/>\u000a        <Param name="color" val="white" valType="str" updates="constant"/>\u000a        <Param name="text" val="" valType="str" updates="constant"/>\u000a        <Param name="stopVal" val="1.5" valType="code" updates="constant"/>\u000a        <Param name="durationEstim" val="" valType="code" updates="None"/>\u000a        <Param name="pos" val="[0, 0]" valType="code" updates="constant"/>\u000a        <Param name="flip" val="" valType="str" updates="constant"/>\u000a        <Param name="startEstim" val="" valType="code" updates="None"/>\u000a        <Param name="units" val="from exp settings" valType="str" updates="None"/>\u000a        <Param name="startType" val="time (s)" valType="str" updates="None"/>\u000a        <Param name="ori" val="0" valType="code" updates="constant"/>\u000a        <Param name="stopType" val="duration (s)" valType="str" updates="None"/>\u000a        <Param name="startVal" val="0.0" valType="code" updates="None"/>\u000a        <Param name="font" val="Arial" valType="str" updates="constant"/>\u000a        <Param name="letterHeight" val="0.1" valType="code" updates="constant"/>\u000a      </TextComponent>\u000a    </Routine>\u000a    <Routine name="End">\u000a      <TextComponent name="text_6">\u000a        <Param name="opacity" val="1" valType="code" updates="constant"/>\u000a        <Param name="colorSpace" val="rgb" valType="str" updates="constant"/>\u000a        <Param name="name" val="text_6" valType="code" updates="None"/>\u000a        <Param name="wrapWidth" val="" valType="code" updates="constant"/>\u000a        <Param name="color" val="white" valType="str" updates="constant"/>\u000a        <Param name="text" val="This is the end, beautiful friend" valType="str" updates="constant"/>\u000a        <Param name="stopVal" val="5" valType="code" updates="constant"/>\u000a        <Param name="durationEstim" val="" valType="code" updates="None"/>\u000a        <Param name="pos" val="[0, 0]" valType="code" updates="constant"/>\u000a        <Param name="flip" val="" valType="str" updates="constant"/>\u000a        <Param name="startEstim" val="" valType="code" updates="None"/>\u000a        <Param name="units" val="from exp settings" valType="str" updates="None"/>\u000a        <Param name="startType" val="time (s)" valType="str" updates="None"/>\u000a        <Param name="ori" val="0" valType="code" updates="constant"/>\u000a        <Param name="stopType" val="duration (s)" valType="str" updates="None"/>\u000a        <Param name="startVal" val="0.0" valType="code" updates="None"/>\u000a        <Param name="font" val="Arial" valType="str" updates="constant"/>\u000a        <Param name="letterHeight" val="0.1" valType="code" updates="constant"/>\u000a      </TextComponent>\u000a    </Routine>\u000a    <Routine name="instrStopPrac">\u000a      <TextComponent name="instrStopText">\u000a        <Param name="opacity" val="1" valType="code" updates="constant"/>\u000a        <Param name="colorSpace" val="rgb" valType="str" updates="constant"/>\u000a        <Param name="name" val="instrStopText" valType="code" updates="None"/>\u000a        <Param name="wrapWidth" val="" valType="code" updates="constant"/>\u000a        <Param name="color" val="white" valType="str" updates="constant"/>\u000a        <Param name="text" val="A shape stimulus will appear on the left or right side of the screen&#10;&#10;If it appears on the left, press Z&#10;&#10;If it appears on the right, press M&#10;&#10;If you hear a tone, do not press anything on that trial" valType="str" updates="constant"/>\u000a        <Param name="stopVal" val="" valType="code" updates="constant"/>\u000a        <Param name="durationEstim" val="" valType="code" updates="None"/>\u000a        <Param name="pos" val="[0, 0]" valType="code" updates="constant"/>\u000a        <Param name="flip" val="" valType="str" updates="constant"/>\u000a        <Param name="startEstim" val="" valType="code" updates="None"/>\u000a        <Param name="units" val="from exp settings" valType="str" updates="None"/>\u000a        <Param name="startType" val="time (s)" valType="str" updates="None"/>\u000a        <Param name="ori" val="0" valType="code" updates="constant"/>\u000a        <Param name="stopType" val="duration (s)" valType="str" updates="None"/>\u000a        <Param name="startVal" val="0.0" valType="code" updates="None"/>\u000a        <Param name="font" val="Arial" valType="str" updates="constant"/>\u000a        <Param name="letterHeight" val="0.1" valType="code" updates="constant"/>\u000a      </TextComponent>\u000a      <KeyboardComponent name="key_resp_2">\u000a        <Param name="correctAns" val="" valType="str" updates="constant"/>\u000a        <Param name="storeCorrect" val="False" valType="bool" updates="constant"/>\u000a        <Param name="name" val="key_resp_2" valType="code" updates="None"/>\u000a        <Param name="stopVal" val="" valType="code" updates="constant"/>\u000a        <Param name="durationEstim" val="" valType="code" updates="None"/>\u000a        <Param name="forceEndRoutine" val="True" valType="bool" updates="constant"/>\u000a        <Param name="startEstim" val="" valType="code" updates="None"/>\u000a        <Param name="discard previous" val="True" valType="bool" updates="constant"/>\u000a        <Param name="startType" val="time (s)" valType="str" updates="None"/>\u000a        <Param name="allowedKeys" val="" valType="code" updates="constant"/>\u000a        <Param name="stopType" val="duration (s)" valType="str" updates="None"/>\u000a        <Param name="startVal" val="0.0" valType="code" updates="None"/>\u000a        <Param name="store" val="nothing" valType="str" updates="constant"/>\u000a      </KeyboardComponent>\u000a      <CodeComponent name="code_8">\u000a        <Param name="Begin Experiment" val="" valType="extendedCode" updates="constant"/>\u000a        <Param name="name" val="code_8" valType="code" updates="None"/>\u000a        <Param name="Begin Routine" val="InitSSD = .25&#10;SSDLeft = InitSSD&#10;SSDRight = InitSSD" valType="extendedCode" updates="constant"/>\u000a        <Param name="End Routine" val="" valType="extendedCode" updates="constant"/>\u000a        <Param name="End Experiment" val="" valType="extendedCode" updates="constant"/>\u000a        <Param name="Each Frame" val="" valType="extendedCode" updates="constant"/>\u000a      </CodeComponent>\u000a    </Routine>\u000a    <Routine name="ExitMain">\u000a      <CodeComponent name="code_6">\u000a        <Param name="Begin Experiment" val="" valType="extendedCode" updates="constant"/>\u000a        <Param name="name" val="code_6" valType="code" updates="None"/>\u000a        <Param name="Begin Routine" val="" valType="extendedCode" updates="constant"/>\u000a        <Param name="End Routine" val="if resp.corr:&#10;    ReDoLoopMain.finished = True" valType="extendedCode" updates="constant"/>\u000a        <Param name="End Experiment" val="" valType="extendedCode" updates="constant"/>\u000a        <Param name="Each Frame" val="" valType="extendedCode" updates="constant"/>\u000a      </CodeComponent>\u000a    </Routine>\u000a    <Routine name="endOfStopBlockFeedback">\u000a      <CodeComponent name="code_10">\u000a        <Param name="Begin Experiment" val="" valType="extendedCode" updates="constant"/>\u000a        <Param name="name" val="code_10" valType="code" updates="None"/>\u000a        <Param name="Begin Routine" val="if goRTCount &gt; 0:&#10;    goRTFeedback = goCumRT/goRTCount&#10;else:&#10;    goRTFeedback = 'Null'&#10;&#10;if goTrialCount &gt; 0:&#10;    commissionRate = commissionCount/goTrialCount&#10;    omissionRate = omissionCount/goTrialCount&#10;else: &#10;    commissionRate = 'Null'&#10;    omissionRate = 'Null'&#10;&#10;if stopTrialCount &gt; 0: &#10;    probabilityOfStop = stopSuccessCount/stopTrialCount&#10;    probabilityOfStop = round(probabilityOfStop, 2)&#10;else:&#10;    probabilityOfStop = 'Null'&#10;&#10;SSDFeedback = (SSDLeft+SSDRight)/2&#10;&#10;stopMessage = &quot; RT = &quot; + str(goRTFeedback) + &quot;\u005cn Omission % = &quot; + str(omissionRate) + &quot;\u005cn Commission % = &quot; + str(commissionRate) + &quot;\u005cn\u005cn\u005cn\u005cn &quot; + str(probabilityOfStop) + &quot;\u005cn &quot; + str(SSDFeedback)" valType="extendedCode" updates="constant"/>\u000a        <Param name="End Routine" val="" valType="extendedCode" updates="constant"/>\u000a        <Param name="End Experiment" val="" valType="extendedCode" updates="constant"/>\u000a        <Param name="Each Frame" val="" valType="extendedCode" updates="constant"/>\u000a      </CodeComponent>\u000a      <TextComponent name="text_5">\u000a        <Param name="opacity" val="1" valType="code" updates="constant"/>\u000a        <Param name="colorSpace" val="rgb" valType="str" updates="constant"/>\u000a        <Param name="name" val="text_5" valType="code" updates="None"/>\u000a        <Param name="wrapWidth" val="" valType="code" updates="constant"/>\u000a        <Param name="color" val="white" valType="str" updates="constant"/>\u000a        <Param name="text" val="$stopMessage&#10;" valType="str" updates="set every repeat"/>\u000a        <Param name="stopVal" val="" valType="code" updates="constant"/>\u000a        <Param name="durationEstim" val="" valType="code" updates="None"/>\u000a        <Param name="pos" val="[0, 0]" valType="code" updates="constant"/>\u000a        <Param name="flip" val="" valType="str" updates="constant"/>\u000a        <Param name="startEstim" val="" valType="code" updates="None"/>\u000a        <Param name="units" val="from exp settings" valType="str" updates="None"/>\u000a        <Param name="startType" val="time (s)" valType="str" updates="None"/>\u000a        <Param name="ori" val="0" valType="code" updates="constant"/>\u000a        <Param name="stopType" val="duration (s)" valType="str" updates="None"/>\u000a        <Param name="startVal" val="0.0" valType="code" updates="None"/>\u000a        <Param name="font" val="Arial" valType="str" updates="constant"/>\u000a        <Param name="letterHeight" val="0.1" valType="code" updates="constant"/>\u000a      </TextComponent>\u000a      <KeyboardComponent name="key_resp_3">\u000a        <Param name="correctAns" val="" valType="str" updates="constant"/>\u000a        <Param name="storeCorrect" val="False" valType="bool" updates="constant"/>\u000a        <Param name="name" val="key_resp_3" valType="code" updates="None"/>\u000a        <Param name="stopVal" val="" valType="code" updates="constant"/>\u000a        <Param name="durationEstim" val="" valType="code" updates="None"/>\u000a        <Param name="forceEndRoutine" val="True" valType="bool" updates="constant"/>\u000a        <Param name="startEstim" val="" valType="code" updates="None"/>\u000a        <Param name="discard previous" val="True" valType="bool" updates="constant"/>\u000a        <Param name="startType" val="time (s)" valType="str" updates="None"/>\u000a        <Param name="allowedKeys" val="'y','n','left','right','space'" valType="code" updates="set every repeat"/>\u000a        <Param name="stopType" val="duration (s)" valType="str" updates="None"/>\u000a        <Param name="startVal" val="0.0" valType="code" updates="None"/>\u000a        <Param name="store" val="last key" valType="str" updates="constant"/>\u000a      </KeyboardComponent>\u000a    </Routine>\u000a    <Routine name="NewStim">\u000a      <CodeComponent name="code_4">\u000a        <Param name="Begin Experiment" val="" valType="extendedCode" updates="constant"/>\u000a        <Param name="name" val="code_4" valType="code" updates="None"/>\u000a        <Param name="Begin Routine" val="currentLearningTrial = learningTrialList.pop(0)&#10;currentStimulus = currentLearningTrial['fileName']&#10;" valType="extendedCode" updates="constant"/>\u000a        <Param name="End Routine" val="" valType="extendedCode" updates="constant"/>\u000a        <Param name="End Experiment" val="" valType="extendedCode" updates="constant"/>\u000a        <Param name="Each Frame" val="" valType="extendedCode" updates="constant"/>\u000a      </CodeComponent>\u000a    </Routine>\u000a    <Routine name="SSDChange">\u000a      <CodeComponent name="code_2">\u000a        <Param name="Begin Experiment" val="" valType="extendedCode" updates="constant"/>\u000a        <Param name="name" val="code_2" valType="code" updates="None"/>\u000a        <Param name="Begin Routine" val="if currentStopTrial['stopOrGo'] == 'stop':&#10;    if goResp.keys is None:&#10;        if SSD &lt;= 800:&#10;            if xPosGoStim == -200:&#10;                SSDLeft = deepcopy(SSDLeft)  + .05&#10;                SSD = SSDLeft&#10;            if xPosGoStim == 200:&#10;                SSDRight = deepcopy(SSDRight) + .05&#10;                SSD = SSDRight&#10;    else:&#10;        if SSD &gt; 0:&#10;            if xPosGoStim == -200:&#10;                SSDLeft = deepcopy(SSDLeft) - .05&#10;                SSD = SSDLeft&#10;            if xPosGoStim == 200:&#10;                SSDRight = deepcopy(SSDRight) - .05&#10;                SSD = SSDRight&#10;&#10;if currentStopTrial['stopOrGo'] == 'go':&#10;    goTrialCount = goTrialCount + 1&#10;&#10;if goResp.corr and currentStopTrial['stopOrGo'] == 'go':&#10;    goCumRT = goCumRT + goResp.rt&#10;    goRTCount = goRTCount + 1&#10;&#10;if currentStopTrial['stopOrGo'] == 'stop':&#10;    stopTrialCount = stopTrialCount + 1&#10;&#10;if currentStopTrial['stopOrGo'] == 'stop' and goResp.keys is None:&#10;    stopSuccessCount = stopSuccessCount + 1&#10;&#10;if currentStopTrial['stopOrGo'] == 'go':&#10;    if goResp.keys is None:&#10;        omissionCount = omissionCount + 1&#10;    elif goResp.corr == 0:&#10;        commissionCount = commissionCount + 1&#10;&#10;StopTrials.addData(&quot;goTrailCountOutput&quot;, goTrialCount)&#10;StopTrials.addData(&quot;goCumRTOutput&quot;, goCumRT)&#10;StopTrials.addData(&quot;goRTCountOutput&quot;, goRTCount)&#10;StopTrials.addData(&quot;stopTrialCountOutput&quot;, stopTrialCount)&#10;StopTrials.addData(&quot;stopSuccessCountOutput&quot;, stopSuccessCount)&#10;StopTrials.addData(&quot;omissionCountOutput&quot;, omissionCount)&#10;StopTrials.addData(&quot;commissionCountOutput&quot;, commissionCount)&#10;" valType="extendedCode" updates="constant"/>\u000a        <Param name="End Routine" val="StopTrials.addData(&quot;EndingSSD&quot;, SSD)" valType="extendedCode" updates="constant"/>\u000a        <Param name="End Experiment" val="" valType="extendedCode" updates="constant"/>\u000a        <Param name="Each Frame" val="" valType="extendedCode" updates="constant"/>\u000a      </CodeComponent>\u000a    </Routine>\u000a    <Routine name="instrPractice">\u000a      <TextComponent name="instruct1">\u000a        <Param name="opacity" val="1" valType="code" updates="constant"/>\u000a        <Param name="colorSpace" val="rgb" valType="str" updates="constant"/>\u000a        <Param name="name" val="instruct1" valType="code" updates="constant"/>\u000a        <Param name="wrapWidth" val="" valType="code" updates="constant"/>\u000a        <Param name="color" val="white" valType="str" updates="constant"/>\u000a        <Param name="text" val="A shape stimulus will appear on every trial. &#10;&#10;If it appears in the upper right quadrant, PRESS I&#10;&#10;If it appears in the lower right quadrant, PRESS K&#10;&#10;If it appears in the lower left quadrant, PRESS J&#10;&#10;If it appears in the upper left quadrant, PRESS U&#10;&#10;Press any key when you are ready to proceed. " valType="str" updates="constant"/>\u000a        <Param name="stopVal" val="" valType="code" updates="constant"/>\u000a        <Param name="durationEstim" val="" valType="code" updates="None"/>\u000a        <Param name="pos" val="[0, 0]" valType="code" updates="constant"/>\u000a        <Param name="flip" val="" valType="str" updates="constant"/>\u000a        <Param name="startEstim" val="" valType="code" updates="None"/>\u000a        <Param name="units" val="from exp settings" valType="str" updates="None"/>\u000a        <Param name="startType" val="time (s)" valType="str" updates="None"/>\u000a        <Param name="ori" val="0" valType="code" updates="constant"/>\u000a        <Param name="stopType" val="duration (s)" valType="str" updates="None"/>\u000a        <Param name="startVal" val="0.0" valType="code" updates="None"/>\u000a        <Param name="font" val="Arial" valType="str" updates="constant"/>\u000a        <Param name="letterHeight" val="0.07" valType="code" updates="constant"/>\u000a      </TextComponent>\u000a      <KeyboardComponent name="ok1">\u000a        <Param name="correctAns" val="" valType="str" updates="constant"/>\u000a        <Param name="storeCorrect" val="False" valType="bool" updates="constant"/>\u000a        <Param name="name" val="ok1" valType="code" updates="None"/>\u000a        <Param name="stopVal" val="" valType="code" updates="constant"/>\u000a        <Param name="durationEstim" val="" valType="code" updates="None"/>\u000a        <Param name="forceEndRoutine" val="True" valType="bool" updates="constant"/>\u000a        <Param name="startEstim" val="" valType="code" updates="None"/>\u000a        <Param name="discard previous" val="True" valType="bool" updates="constant"/>\u000a        <Param name="startType" val="time (s)" valType="str" updates="None"/>\u000a        <Param name="allowedKeys" val="" valType="code" updates="constant"/>\u000a        <Param name="stopType" val="duration (s)" valType="str" updates="None"/>\u000a        <Param name="startVal" val="0.0" valType="code" updates="None"/>\u000a        <Param name="store" val="last key" valType="str" updates="constant"/>\u000a      </KeyboardComponent>\u000a    </Routine>\u000a    <Routine name="ExitPrac">\u000a      <CodeComponent name="code_5">\u000a        <Param name="Begin Experiment" val="" valType="extendedCode" updates="constant"/>\u000a        <Param name="name" val="code_5" valType="code" updates="None"/>\u000a        <Param name="Begin Routine" val="" valType="extendedCode" updates="constant"/>\u000a        <Param name="End Routine" val="if resp.corr:&#10;    ReDoLoop.finished = True " valType="extendedCode" updates="constant"/>\u000a        <Param name="End Experiment" val="" valType="extendedCode" updates="constant"/>\u000a        <Param name="Each Frame" val="" valType="extendedCode" updates="constant"/>\u000a      </CodeComponent>\u000a    </Routine>\u000a    <Routine name="trial">\u000a      <KeyboardComponent name="resp">\u000a        <Param name="correctAns" val="$corrAns" valType="str" updates="constant"/>\u000a        <Param name="storeCorrect" val="True" valType="bool" updates="constant"/>\u000a        <Param name="name" val="resp" valType="code" updates="None"/>\u000a        <Param name="stopVal" val="1" valType="code" updates="constant"/>\u000a        <Param name="durationEstim" val="" valType="code" updates="None"/>\u000a        <Param name="forceEndRoutine" val="True" valType="bool" updates="constant"/>\u000a        <Param name="startEstim" val="" valType="code" updates="None"/>\u000a        <Param name="discard previous" val="True" valType="bool" updates="constant"/>\u000a        <Param name="startType" val="time (s)" valType="str" updates="None"/>\u000a        <Param name="allowedKeys" val="'u', 'i', 'j', 'k'" valType="code" updates="constant"/>\u000a        <Param name="stopType" val="duration (s)" valType="str" updates="None"/>\u000a        <Param name="startVal" val=".5" valType="code" updates="None"/>\u000a        <Param name="store" val="last key" valType="str" updates="constant"/>\u000a      </KeyboardComponent>\u000a      <TextComponent name="text">\u000a        <Param name="opacity" val="1" valType="code" updates="constant"/>\u000a        <Param name="colorSpace" val="rgb" valType="str" updates="constant"/>\u000a        <Param name="name" val="text" valType="code" updates="None"/>\u000a        <Param name="wrapWidth" val="" valType="code" updates="constant"/>\u000a        <Param name="color" val="white" valType="str" updates="constant"/>\u000a        <Param name="text" val="+" valType="str" updates="constant"/>\u000a        <Param name="stopVal" val="1.5" valType="code" updates="constant"/>\u000a        <Param name="durationEstim" val="" valType="code" updates="None"/>\u000a        <Param name="pos" val="[0, 0]" valType="code" updates="constant"/>\u000a        <Param name="flip" val="" valType="str" updates="constant"/>\u000a        <Param name="startEstim" val="" valType="code" updates="None"/>\u000a        <Param name="units" val="from exp settings" valType="str" updates="None"/>\u000a        <Param name="startType" val="time (s)" valType="str" updates="None"/>\u000a        <Param name="ori" val="0" valType="code" updates="constant"/>\u000a        <Param name="stopType" val="duration (s)" valType="str" updates="None"/>\u000a        <Param name="startVal" val="0.0" valType="code" updates="None"/>\u000a        <Param name="font" val="Arial" valType="str" updates="constant"/>\u000a        <Param name="letterHeight" val="1" valType="code" updates="constant"/>\u000a      </TextComponent>\u000a      <ImageComponent name="image_2">\u000a        <Param name="opacity" val="1" valType="code" updates="constant"/>\u000a        <Param name="flipVert" val="False" valType="bool" updates="constant"/>\u000a        <Param name="colorSpace" val="rgb" valType="str" updates="constant"/>\u000a        <Param name="name" val="image_2" valType="code" updates="None"/>\u000a        <Param name="color" val="$[1,1,1]" valType="str" updates="constant"/>\u000a        <Param name="stopVal" val="1.0" valType="code" updates="constant"/>\u000a        <Param name="durationEstim" val="" valType="code" updates="None"/>\u000a        <Param name="mask" val="None" valType="str" updates="constant"/>\u000a        <Param name="pos" val="$[xPos, yPos]" valType="code" updates="set every repeat"/>\u000a        <Param name="interpolate" val="linear" valType="str" updates="constant"/>\u000a        <Param name="startEstim" val="" valType="code" updates="None"/>\u000a        <Param name="units" val="pix" valType="str" updates="None"/>\u000a        <Param name="texture resolution" val="128" valType="code" updates="constant"/>\u000a        <Param name="startType" val="time (s)" valType="str" updates="None"/>\u000a        <Param name="ori" val="0" valType="code" updates="constant"/>\u000a        <Param name="stopType" val="duration (s)" valType="str" updates="None"/>\u000a        <Param name="startVal" val=".5" valType="code" updates="None"/>\u000a        <Param name="flipHoriz" val="False" valType="bool" updates="constant"/>\u000a        <Param name="image" val="$currentStimulus" valType="str" updates="set every repeat"/>\u000a        <Param name="size" val="[151, 151]" valType="code" updates="constant"/>\u000a      </ImageComponent>\u000a    </Routine>\u000a    <Routine name="StimSetup">\u000a      <CodeComponent name="code">\u000a        <Param name="Begin Experiment" val="from copy import deepcopy&#10;colors = ['yellow', 'white', 'orange', 'magenta', 'green', 'gray', 'cyan', 'blue']&#10;shapes = ['triangle', 'square', 'line', 'invertedtriangle', 'hexagon', 'diamond', 'cross', 'circle']&#10;rewards = [0.50, 1.00, 2.00, 4.00] * 2&#10;conditions = ['go', 'go', 'go', 'go', 'stop', 'stop', 'stop', 'stop']&#10;trialDetailsList = []&#10;learningTrialList = []&#10;&#10;shuffle(colors)&#10;shuffle(shapes)&#10;&#10;for i, color in enumerate(colors): # cycle through each color and keep track of an index number&#10;    trialDetails = {} # a dictionary of key-value pairs&#10;    trialDetails['fileName'] = shapes[i] + color + '.gif'&#10;    trialDetails['reward'] = rewards[i]&#10;    trialDetails['condition'] = conditions[i]&#10;    trialDetailsList.append(trialDetails)&#10;&#10;shuffle(trialDetailsList) # do this now to ensure that order of presentation of rewards and conditions is also shuffled&#10;&#10;conditionOne = trialDetailsList[0]&#10;conditionTwo = trialDetailsList[1]&#10;conditionThree = trialDetailsList[2]&#10;conditionFour = trialDetailsList[3]&#10;conditionFive = trialDetailsList[4]&#10;conditionSix = trialDetailsList[5]&#10;conditionSeven = trialDetailsList[6]&#10;conditionEight = trialDetailsList[7]&#10;&#10;numLearningTrials = 400&#10;numLearningRepetitions = 50&#10;for k in range(1, numLearningRepetitions + 1):&#10;    learningTrialList.append(conditionOne)&#10;    learningTrialList.append(conditionTwo)&#10;    learningTrialList.append(conditionThree)&#10;    learningTrialList.append(conditionFour)&#10;    learningTrialList.append(conditionFive)&#10;    learningTrialList.append(conditionSix)&#10;    learningTrialList.append(conditionSeven)&#10;    learningTrialList.append(conditionEight)&#10;&#10;shuffle(learningTrialList)&#10;&#10;stopTaskTrials = 272&#10;stopTrialsPerStopStim = 26&#10;goTrialsPerStopStim = 8&#10;goTrialsPerGoStim = 34&#10;numStim = 8&#10;stopTrialList = []&#10;&#10;if conditionOne['condition'] == 'go':&#10;    conditionOne['stopOrGo'] = 'go'&#10;    for i in range(1, goTrialsPerGoStim + 1):&#10;        stopTrialList.append(conditionOne)&#10;else:&#10;    for j in range(1, goTrialsPerStopStim + 1):&#10;        conditionOne['stopOrGo'] = 'go'&#10;        stopTrialList.append(deepcopy(conditionOne))&#10;    for i in range(1, stopTrialsPerStopStim + 1):&#10;        conditionOne['stopOrGo'] = 'stop'&#10;        stopTrialList.append(deepcopy(conditionOne))&#10;if conditionTwo['condition'] == 'go':&#10;    conditionTwo['stopOrGo'] = 'go'&#10;    for i in range(1, goTrialsPerGoStim + 1):&#10;        stopTrialList.append(conditionTwo)&#10;else:&#10;    for j in range(1, goTrialsPerStopStim + 1):&#10;        conditionTwo['stopOrGo'] = 'go'&#10;        stopTrialList.append(deepcopy(conditionTwo))&#10;    for i in range(1,  stopTrialsPerStopStim + 1):&#10;        conditionTwo['stopOrGo'] = 'stop'&#10;        stopTrialList.append(deepcopy(conditionTwo))&#10;if conditionThree['condition'] == 'go':&#10;    conditionThree['stopOrGo'] = 'go'&#10;    for i in range(1, goTrialsPerGoStim + 1):&#10;        stopTrialList.append(conditionThree)&#10;else:&#10;    for j in range(1, goTrialsPerStopStim + 1):&#10;        conditionThree['stopOrGo'] = 'go'&#10;        stopTrialList.append(deepcopy(conditionThree))&#10;    for i in range(1, stopTrialsPerStopStim + 1):&#10;        conditionThree['stopOrGo'] = 'stop'&#10;        stopTrialList.append(deepcopy(conditionThree))&#10;if conditionFour['condition'] == 'go':&#10;    conditionFour['stopOrGo'] = 'go'&#10;    for i in range(1, goTrialsPerGoStim + 1):&#10;        stopTrialList.append(conditionFour)&#10;else:&#10;    for j in range(1, goTrialsPerStopStim + 1):&#10;        conditionFour['stopOrGo'] = 'go'&#10;        stopTrialList.append(deepcopy(conditionFour))&#10;    for i in range(1, stopTrialsPerStopStim + 1):&#10;        conditionFour['stopOrGo'] = 'stop'&#10;        stopTrialList.append(deepcopy(conditionFour))&#10;if conditionFive['condition'] == 'go':&#10;    conditionFive['stopOrGo'] = 'go'&#10;    for i in range(1, goTrialsPerGoStim + 1):&#10;        stopTrialList.append(conditionFive)&#10;else:&#10;    for j in range(1, goTrialsPerStopStim + 1):&#10;        conditionFive['stopOrGo'] = 'go'&#10;        stopTrialList.append(deepcopy(conditionFive))&#10;    for i in range(1, stopTrialsPerStopStim + 1):&#10;        conditionFive['stopOrGo'] = 'stop'&#10;        stopTrialList.append(deepcopy(conditionFive))&#10;if conditionSix['condition'] == 'go':&#10;    conditionSix['stopOrGo'] = 'go'&#10;    for i in range(1, goTrialsPerGoStim + 1):&#10;        stopTrialList.append(conditionSix)&#10;else:&#10;    for j in range(1, stopTrialsPerStopStim + 1):&#10;        conditionSix['stopOrGo'] = 'go'&#10;        stopTrialList.append(deepcopy(conditionSix))&#10;    for i in range(1, goTrialsPerStopStim + 1):&#10;        conditionSix['stopOrGo'] = 'stop'&#10;        stopTrialList.append(deepcopy(conditionSix))&#10;if conditionSeven['condition'] == 'go':&#10;    conditionSeven['stopOrGo'] = 'go'&#10;    for i in range(1, goTrialsPerGoStim + 1):&#10;        stopTrialList.append(conditionSeven)&#10;else:&#10;    for j in range(1, goTrialsPerStopStim + 1):&#10;        conditionSeven['stopOrGo'] = 'go'&#10;        stopTrialList.append(deepcopy(conditionSeven))&#10;    for i in range(1, stopTrialsPerStopStim + 1):&#10;        conditionSeven['stopOrGo'] = 'stop'&#10;        stopTrialList.append(deepcopy(conditionSeven))&#10;if conditionEight['condition'] == 'go':&#10;    conditionEight['stopOrGo'] = 'go'&#10;    for i in range(1, goTrialsPerGoStim + 1):&#10;        stopTrialList.append(conditionEight)&#10;else:&#10;    for j in range(1, goTrialsPerStopStim + 1):&#10;        conditionEight['stopOrGo'] = 'go'&#10;        stopTrialList.append(deepcopy(conditionEight))&#10;    for i in range(1, stopTrialsPerStopStim + 1):&#10;        conditionEight['stopOrGo'] = 'stop'&#10;        stopTrialList.append(deepcopy(conditionEight))&#10;&#10;shuffle(stopTrialList)" valType="extendedCode" updates="constant"/>\u000a        <Param name="name" val="code" valType="code" updates="None"/>\u000a        <Param name="Begin Routine" val="" valType="extendedCode" updates="constant"/>\u000a        <Param name="End Routine" val="" valType="extendedCode" updates="constant"/>\u000a        <Param name="End Experiment" val="" valType="extendedCode" updates="constant"/>\u000a        <Param name="Each Frame" val="" valType="extendedCode" updates="constant"/>\u000a      </CodeComponent>\u000a    </Routine>\u000a    <Routine name="Bank"/>\u000a    <Routine name="Blank">\u000a      <TextComponent name="text_2">\u000a        <Param name="opacity" val="1" valType="code" updates="constant"/>\u000a        <Param name="colorSpace" val="rgb" valType="str" updates="constant"/>\u000a        <Param name="name" val="text_2" valType="code" updates="None"/>\u000a        <Param name="wrapWidth" val="" valType="code" updates="constant"/>\u000a        <Param name="color" val="white" valType="str" updates="constant"/>\u000a        <Param name="text" val="" valType="str" updates="constant"/>\u000a        <Param name="stopVal" val=".5" valType="code" updates="constant"/>\u000a        <Param name="durationEstim" val="" valType="code" updates="None"/>\u000a        <Param name="pos" val="[0, 0]" valType="code" updates="constant"/>\u000a        <Param name="flip" val="" valType="str" updates="constant"/>\u000a        <Param name="startEstim" val="" valType="code" updates="None"/>\u000a        <Param name="units" val="from exp settings" valType="str" updates="None"/>\u000a        <Param name="startType" val="time (s)" valType="str" updates="None"/>\u000a        <Param name="ori" val="0" valType="code" updates="constant"/>\u000a        <Param name="stopType" val="duration (s)" valType="str" updates="None"/>\u000a        <Param name="startVal" val="0" valType="code" updates="None"/>\u000a        <Param name="font" val="Arial" valType="str" updates="constant"/>\u000a        <Param name="letterHeight" val="0.1" valType="code" updates="constant"/>\u000a      </TextComponent>\u000a    </Routine>\u000a    <Routine name="ResetAtBlock">\u000a      <CodeComponent name="code_3">\u000a        <Param name="Begin Experiment" val="" valType="extendedCode" updates="constant"/>\u000a        <Param name="name" val="code_3" valType="code" updates="None"/>\u000a        <Param name="Begin Routine" val="Redo = 1" valType="extendedCode" updates="constant"/>\u000a        <Param name="End Routine" val="" valType="extendedCode" updates="constant"/>\u000a        <Param name="End Experiment" val="" valType="extendedCode" updates="constant"/>\u000a        <Param name="Each Frame" val="" valType="extendedCode" updates="constant"/>\u000a      </CodeComponent>\u000a    </Routine>\u000a    <Routine name="StopTrial">\u000a      <SoundComponent name="sound_1">\u000a        <Param name="sound" val="900" valType="str" updates="constant"/>\u000a        <Param name="volume" val=".2" valType="code" updates="constant"/>\u000a        <Param name="name" val="sound_1" valType="code" updates="None"/>\u000a        <Param name="stopVal" val=".2" valType="code" updates="constant"/>\u000a        <Param name="durationEstim" val="" valType="code" updates="None"/>\u000a        <Param name="startEstim" val=".75" valType="code" updates="None"/>\u000a        <Param name="startType" val="time (s)" valType="str" updates="None"/>\u000a        <Param name="stopType" val="duration (s)" valType="str" updates="None"/>\u000a        <Param name="startVal" val="$SSDInput" valType="code" updates="None"/>\u000a      </SoundComponent>\u000a      <TextComponent name="text_3">\u000a        <Param name="opacity" val="1" valType="code" updates="constant"/>\u000a        <Param name="colorSpace" val="rgb" valType="str" updates="constant"/>\u000a        <Param name="name" val="text_3" valType="code" updates="None"/>\u000a        <Param name="wrapWidth" val="" valType="code" updates="constant"/>\u000a        <Param name="color" val="white" valType="str" updates="constant"/>\u000a        <Param name="text" val="|" valType="str" updates="constant"/>\u000a        <Param name="stopVal" val="1.5" valType="code" updates="constant"/>\u000a        <Param name="durationEstim" val="" valType="code" updates="None"/>\u000a        <Param name="pos" val="[0, 0]" valType="code" updates="constant"/>\u000a        <Param name="flip" val="" valType="str" updates="constant"/>\u000a        <Param name="startEstim" val="" valType="code" updates="None"/>\u000a        <Param name="units" val="from exp settings" valType="str" updates="None"/>\u000a        <Param name="startType" val="time (s)" valType="str" updates="None"/>\u000a        <Param name="ori" val="0" valType="code" updates="constant"/>\u000a        <Param name="stopType" val="duration (s)" valType="str" updates="None"/>\u000a        <Param name="startVal" val="0.0" valType="code" updates="None"/>\u000a        <Param name="font" val="Arial" valType="str" updates="constant"/>\u000a        <Param name="letterHeight" val="4" valType="code" updates="constant"/>\u000a      </TextComponent>\u000a      <ImageComponent name="image_3">\u000a        <Param name="opacity" val="1" valType="code" updates="constant"/>\u000a        <Param name="flipVert" val="False" valType="bool" updates="constant"/>\u000a        <Param name="colorSpace" val="rgb" valType="str" updates="constant"/>\u000a        <Param name="name" val="image_3" valType="code" updates="None"/>\u000a        <Param name="color" val="$[1,1,1]" valType="str" updates="constant"/>\u000a        <Param name="stopVal" val="1.0" valType="code" updates="constant"/>\u000a        <Param name="durationEstim" val="" valType="code" updates="None"/>\u000a        <Param name="mask" val="None" valType="str" updates="constant"/>\u000a        <Param name="pos" val="$[xPosGoStim, yPosGoStim]" valType="code" updates="set every repeat"/>\u000a        <Param name="interpolate" val="linear" valType="str" updates="constant"/>\u000a        <Param name="startEstim" val="" valType="code" updates="None"/>\u000a        <Param name="units" val="pix" valType="str" updates="None"/>\u000a        <Param name="texture resolution" val="128" valType="code" updates="constant"/>\u000a        <Param name="startType" val="time (s)" valType="str" updates="None"/>\u000a        <Param name="ori" val="0" valType="code" updates="constant"/>\u000a        <Param name="stopType" val="duration (s)" valType="str" updates="None"/>\u000a        <Param name="startVal" val=".5" valType="code" updates="None"/>\u000a        <Param name="flipHoriz" val="False" valType="bool" updates="constant"/>\u000a        <Param name="image" val="$currentGoStim" valType="str" updates="set every repeat"/>\u000a        <Param name="size" val="[151, 151]" valType="code" updates="constant"/>\u000a      </ImageComponent>\u000a      <KeyboardComponent name="goResp">\u000a        <Param name="correctAns" val="$corrGoResp" valType="str" updates="constant"/>\u000a        <Param name="storeCorrect" val="True" valType="bool" updates="constant"/>\u000a        <Param name="name" val="goResp" valType="code" updates="None"/>\u000a        <Param name="stopVal" val="1" valType="code" updates="constant"/>\u000a        <Param name="durationEstim" val="" valType="code" updates="None"/>\u000a        <Param name="forceEndRoutine" val="False" valType="bool" updates="constant"/>\u000a        <Param name="startEstim" val="" valType="code" updates="None"/>\u000a        <Param name="discard previous" val="True" valType="bool" updates="constant"/>\u000a        <Param name="startType" val="time (s)" valType="str" updates="None"/>\u000a        <Param name="allowedKeys" val="'z','m'" valType="code" updates="constant"/>\u000a        <Param name="stopType" val="duration (s)" valType="str" updates="None"/>\u000a        <Param name="startVal" val=".5" valType="code" updates="None"/>\u000a        <Param name="store" val="first key" valType="str" updates="constant"/>\u000a      </KeyboardComponent>\u000a    </Routine>\u000a    <Routine name="instrMain">\u000a      <TextComponent name="instr2">\u000a        <Param name="opacity" val="1" valType="code" updates="constant"/>\u000a        <Param name="colorSpace" val="rgb" valType="str" updates="constant"/>\u000a        <Param name="name" val="instr2" valType="code" updates="constant"/>\u000a        <Param name="wrapWidth" val="" valType="code" updates="constant"/>\u000a        <Param name="color" val="white" valType="str" updates="constant"/>\u000a        <Param name="text" val="A shape stimulus will appear on every trial. &#10;&#10;If it appears in the upper right quadrant, PRESS Y&#10;&#10;If it appears in the lower right quadrant, PRESS H&#10;&#10;If it appears in the lower left quadrant, PRESS G&#10;&#10;If it appears in the upper left quadrant, PRESS T&#10;&#10;Press any key when you are ready to proceed. " valType="str" updates="constant"/>\u000a        <Param name="stopVal" val="" valType="code" updates="constant"/>\u000a        <Param name="durationEstim" val="" valType="code" updates="None"/>\u000a        <Param name="pos" val="[0, 0]" valType="code" updates="constant"/>\u000a        <Param name="flip" val="" valType="str" updates="constant"/>\u000a        <Param name="startEstim" val="" valType="code" updates="None"/>\u000a        <Param name="units" val="from exp settings" valType="str" updates="None"/>\u000a        <Param name="startType" val="time (s)" valType="str" updates="None"/>\u000a        <Param name="ori" val="0" valType="code" updates="constant"/>\u000a        <Param name="stopType" val="duration (s)" valType="str" updates="None"/>\u000a        <Param name="startVal" val="0.0" valType="code" updates="None"/>\u000a        <Param name="font" val="Arial" valType="str" updates="constant"/>\u000a        <Param name="letterHeight" val="0.075" valType="code" updates="constant"/>\u000a      </TextComponent>\u000a      <KeyboardComponent name="ok2">\u000a        <Param name="correctAns" val="" valType="str" updates="constant"/>\u000a        <Param name="storeCorrect" val="False" valType="bool" updates="constant"/>\u000a        <Param name="name" val="ok2" valType="code" updates="None"/>\u000a        <Param name="stopVal" val="" valType="code" updates="constant"/>\u000a        <Param name="durationEstim" val="" valType="code" updates="None"/>\u000a        <Param name="forceEndRoutine" val="True" valType="bool" updates="constant"/>\u000a        <Param name="startEstim" val="" valType="code" updates="None"/>\u000a        <Param name="discard previous" val="True" valType="bool" updates="constant"/>\u000a        <Param name="startType" val="time (s)" valType="str" updates="None"/>\u000a        <Param name="allowedKeys" val="" valType="code" updates="constant"/>\u000a        <Param name="stopType" val="duration (s)" valType="str" updates="None"/>\u000a        <Param name="startVal" val="0.0" valType="code" updates="None"/>\u000a        <Param name="store" val="nothing" valType="str" updates="constant"/>\u000a      </KeyboardComponent>\u000a    </Routine>\u000a    <Routine name="newStopStim">\u000a      <CodeComponent name="code_7">\u000a        <Param name="Begin Experiment" val="" valType="extendedCode" updates="constant"/>\u000a        <Param name="name" val="code_7" valType="code" updates="None"/>\u000a        <Param name="Begin Routine" val="currentStopTrial = stopTrialList.pop(0)&#10;currentGoStim = currentStopTrial['fileName']&#10;currentStopOrGo = currentStopTrial['stopOrGo']&#10;&#10;if currentStopOrGo == 'stop':&#10;    if xPosGoStim == -200:&#10;        SSD = deepcopy(SSDLeft)&#10;    else:&#10;        SSD = deepcopy(SSDRight)&#10;elif currentStopOrGo == 'go':&#10;    SSD = -1&#10;&#10;StopTrials.addData(&quot;beginningSSD&quot;, SSD)&#10;StopTrials.addData(&quot;trialType&quot;, currentStopOrGo)&#10;StopTrials.addData(&quot;goStim&quot;, currentGoStim)&#10;SSDInput = SSD + .5" valType="extendedCode" updates="constant"/>\u000a        <Param name="End Routine" val="" valType="extendedCode" updates="constant"/>\u000a        <Param name="End Experiment" val="" valType="extendedCode" updates="constant"/>\u000a        <Param name="Each Frame" val="" valType="extendedCode" updates="constant"/>\u000a      </CodeComponent>\u000a    </Routine>\u000a    <Routine name="feedback">\u000a      <CodeComponent name="message">\u000a        <Param name="Begin Experiment" val="#message variable just needs some value at start&#10;message=0" valType="extendedCode" updates="constant"/>\u000a        <Param name="name" val="message" valType="code" updates="None"/>\u000a        <Param name="Begin Routine" val="import random&#10;&#10;displayReward = random.randrange(1, 6)&#10;&#10;if resp.corr:#stored on last run routine&#10;    if displayReward == 1:&#10;            message = &quot;You won $&quot; + str(0);&#10;    else: &#10;            currentReward = currentLearningTrial['reward']&#10;            message = &quot;You won $&quot; + str(currentReward + (random.randrange(-25, 26)*.01))&#10;elif resp.keys is None: #or len(key_resp.keys)&lt;1:&#10;#elif resp.rt == 0:&#10;    message =&quot;Too Slow&quot;&#10;else:&#10;  message=&quot;Wrong&quot;" valType="extendedCode" updates="constant"/>\u000a        <Param name="End Routine" val="" valType="extendedCode" updates="constant"/>\u000a        <Param name="End Experiment" val="" valType="extendedCode" updates="constant"/>\u000a        <Param name="Each Frame" val="" valType="extendedCode" updates="constant"/>\u000a      </CodeComponent>\u000a      <TextComponent name="feedback_2">\u000a        <Param name="opacity" val="1" valType="code" updates="constant"/>\u000a        <Param name="colorSpace" val="rgb" valType="str" updates="constant"/>\u000a        <Param name="name" val="feedback_2" valType="code" updates="constant"/>\u000a        <Param name="wrapWidth" val="" valType="code" updates="constant"/>\u000a        <Param name="color" val="$[1,1,1]" valType="str" updates="constant"/>\u000a        <Param name="text" val="$message" valType="str" updates="set every repeat"/>\u000a        <Param name="stopVal" val="1.0" valType="code" updates="constant"/>\u000a        <Param name="durationEstim" val="" valType="code" updates="None"/>\u000a        <Param name="pos" val="[0, 0]" valType="code" updates="constant"/>\u000a        <Param name="flip" val="" valType="str" updates="constant"/>\u000a        <Param name="startEstim" val="" valType="code" updates="None"/>\u000a        <Param name="units" val="from exp settings" valType="str" updates="None"/>\u000a        <Param name="startType" val="time (s)" valType="str" updates="None"/>\u000a        <Param name="ori" val="0" valType="code" updates="constant"/>\u000a        <Param name="stopType" val="duration (s)" valType="str" updates="None"/>\u000a        <Param name="startVal" val="0.0" valType="code" updates="None"/>\u000a        <Param name="font" val="Arial" valType="str" updates="constant"/>\u000a        <Param name="letterHeight" val=".2" valType="code" updates="constant"/>\u000a      </TextComponent>\u000a      <ImageComponent name="image">\u000a        <Param name="opacity" val="1" valType="code" updates="constant"/>\u000a        <Param name="flipVert" val="False" valType="bool" updates="constant"/>\u000a        <Param name="colorSpace" val="rgb" valType="str" updates="constant"/>\u000a        <Param name="name" val="image" valType="code" updates="None"/>\u000a        <Param name="color" val="$[1,1,1]" valType="str" updates="constant"/>\u000a        <Param name="stopVal" val="1.0" valType="code" updates="constant"/>\u000a        <Param name="durationEstim" val="" valType="code" updates="None"/>\u000a        <Param name="mask" val="None" valType="str" updates="constant"/>\u000a        <Param name="pos" val="$[xPos, yPos]" valType="code" updates="set every repeat"/>\u000a        <Param name="interpolate" val="linear" valType="str" updates="constant"/>\u000a        <Param name="startEstim" val="" valType="code" updates="None"/>\u000a        <Param name="units" val="pix" valType="str" updates="None"/>\u000a        <Param name="texture resolution" val="128" valType="code" updates="constant"/>\u000a        <Param name="startType" val="time (s)" valType="str" updates="None"/>\u000a        <Param name="ori" val="0" valType="code" updates="constant"/>\u000a        <Param name="stopType" val="duration (s)" valType="str" updates="None"/>\u000a        <Param name="startVal" val="0.0" valType="code" updates="None"/>\u000a        <Param name="flipHoriz" val="False" valType="bool" updates="constant"/>\u000a        <Param name="image" val="$currentStimulus" valType="str" updates="set every repeat"/>\u000a        <Param name="size" val="[151, 151]" valType="code" updates="constant"/>\u000a      </ImageComponent>\u000a    </Routine>\u000a  </Routines>\u000a  <Flow>\u000a    <Routine name="StimSetup"/>\u000a    <Routine name="instrPractice"/>\u000a    <LoopInitiator loopType="TrialHandler" name="Blocks">\u000a      <Param name="conditionsFile" val="" valType="str" updates="None"/>\u000a      <Param name="name" val="Blocks" valType="code" updates="None"/>\u000a      <Param name="isTrials" val="True" valType="bool" updates="None"/>\u000a      <Param name="random seed" val="" valType="code" updates="None"/>\u000a      <Param name="loopType" val="sequential" valType="str" updates="None"/>\u000a      <Param name="nReps" val="0" valType="code" updates="None"/>\u000a      <Param name="endPoints" val="[0, 1]" valType="num" updates="None"/>\u000a      <Param name="conditions" val="None" valType="str" updates="None"/>\u000a      <Param name="Selected rows" val="" valType="str" updates="None"/>\u000a    </LoopInitiator>\u000a    <Routine name="ResetAtBlock"/>\u000a    <LoopInitiator loopType="TrialHandler" name="trials">\u000a      <Param name="conditionsFile" val="TrialtypesLearning.xlsx" valType="str" updates="None"/>\u000a      <Param name="name" val="trials" valType="code" updates="None"/>\u000a      <Param name="isTrials" val="True" valType="bool" updates="None"/>\u000a      <Param name="random seed" val="" valType="code" updates="None"/>\u000a      <Param name="loopType" val="fullRandom" valType="str" updates="None"/>\u000a      <Param name="nReps" val="25" valType="num" updates="None"/>\u000a      <Param name="endPoints" val="[0, 1]" valType="num" updates="None"/>\u000a      <Param name="conditions" val="[{u'xPos': 200, u'corrAns': u'h', u'yPos': 200}, {u'xPos': -200, u'corrAns': u'g', u'yPos': 200}, {u'xPos': 200, u'corrAns': u'n', u'yPos': -200}, {u'xPos': -200, u'corrAns': u'b', u'yPos': -200}]" valType="str" updates="None"/>\u000a      <Param name="Selected rows" val="" valType="str" updates="None"/>\u000a    </LoopInitiator>\u000a    <Routine name="NewStim"/>\u000a    <LoopInitiator loopType="TrialHandler" name="ReDoLoopMain">\u000a      <Param name="conditionsFile" val="" valType="str" updates="None"/>\u000a      <Param name="name" val="ReDoLoopMain" valType="code" updates="None"/>\u000a      <Param name="isTrials" val="False" valType="bool" updates="None"/>\u000a      <Param name="random seed" val="" valType="code" updates="None"/>\u000a      <Param name="loopType" val="random" valType="str" updates="None"/>\u000a      <Param name="nReps" val="999" valType="code" updates="None"/>\u000a      <Param name="endPoints" val="[0, 1]" valType="num" updates="None"/>\u000a      <Param name="conditions" val="None" valType="str" updates="None"/>\u000a      <Param name="Selected rows" val="" valType="str" updates="None"/>\u000a    </LoopInitiator>\u000a    <Routine name="trial"/>\u000a    <Routine name="feedback"/>\u000a    <Routine name="Blank"/>\u000a    <Routine name="ExitMain"/>\u000a    <LoopTerminator name="ReDoLoopMain"/>\u000a    <LoopTerminator name="trials"/>\u000a    <LoopTerminator name="Blocks"/>\u000a    <Routine name="instrStopPrac"/>\u000a    <LoopInitiator loopType="TrialHandler" name="StopBlocks">\u000a      <Param name="conditionsFile" val="" valType="str" updates="None"/>\u000a      <Param name="name" val="StopBlocks" valType="code" updates="None"/>\u000a      <Param name="isTrials" val="True" valType="bool" updates="None"/>\u000a      <Param name="random seed" val="" valType="code" updates="None"/>\u000a      <Param name="loopType" val="sequential" valType="str" updates="None"/>\u000a      <Param name="nReps" val="4" valType="code" updates="None"/>\u000a      <Param name="endPoints" val="[0, 1]" valType="num" updates="None"/>\u000a      <Param name="conditions" val="None" valType="str" updates="None"/>\u000a      <Param name="Selected rows" val="" valType="str" updates="None"/>\u000a    </LoopInitiator>\u000a    <Routine name="stopBlockSetup"/>\u000a    <LoopInitiator loopType="TrialHandler" name="StopTrials">\u000a      <Param name="conditionsFile" val="trialtypeStop.xlsx" valType="str" updates="None"/>\u000a      <Param name="name" val="StopTrials" valType="code" updates="None"/>\u000a      <Param name="isTrials" val="True" valType="bool" updates="None"/>\u000a      <Param name="random seed" val="" valType="code" updates="None"/>\u000a      <Param name="loopType" val="fullRandom" valType="str" updates="None"/>\u000a      <Param name="nReps" val="10" valType="code" updates="None"/>\u000a      <Param name="endPoints" val="[0, 1]" valType="num" updates="None"/>\u000a      <Param name="conditions" val="[{u'corrGoResp': u'z', u'yPosGoStim': 0, u'xPosGoStim': -200}, {u'corrGoResp': u'm', u'yPosGoStim': 0, u'xPosGoStim': 200}]" valType="str" updates="None"/>\u000a      <Param name="Selected rows" val="" valType="str" updates="None"/>\u000a    </LoopInitiator>\u000a    <Routine name="newStopStim"/>\u000a    <Routine name="StopTrial"/>\u000a    <Routine name="blankStop"/>\u000a    <Routine name="SSDChange"/>\u000a    <LoopTerminator name="StopTrials"/>\u000a    <Routine name="endOfStopBlockFeedback"/>\u000a    <LoopTerminator name="StopBlocks"/>\u000a    <Routine name="End"/>\u000a  </Flow>\u000a</PsychoPy2experiment>\u000a
p339
sg54
(lp340
sg55
I244523984
sg11
S'StopTrials'
p341
sg6
g7
sg57
I10
sg31
I01
sg32
g33
sg58
g1
(g59
g60
(dp342
g21
g63
(g64
g65
g66
S'b'
tRp343
(I1
(I2
I10
tg68
I00
S'\x00\x00\x80?\x00\x00\x80?\x00\x00\x00\x00\x00\x00\x00\x00\x00\x00\x00\x00\x00\x00\x00\x00\x00\x00\x00\x00\x00\x00\x00\x00\x00\x00\x00\x00\x00\x00\x00\x00\x00\x00\x80?\x00\x00\x80?\x00\x00\x80?\x00\x00\x00\x00\x00\x00\x00\x00\x00\x00\x00\x00\x00\x00\x00\x00\x00\x00\x00\x00\x00\x00\x00\x00\x00\x00\x00\x00'
S'\x00\x00\x00\x00\x00\x00\x00\x00\x00\x00\x00\x00\x00\x00\x00\x00\x00\x00\x00\x00'
Ntbsg22
g63
(g64
g65
g66
S'b'
tRp344
(I1
(I2
I10
tg68
I00
S'P\xa7\xc4>h\x1d\xcd>\x18b\xd5>\xf8\x8f\xd5>\x80\xc6\xc4>\x00\x00\x00\x00\x00\x00\x00\x00\x00\x00\x00\x00\x00\x00\x00\x00\x00\x00\x00\x00\x9c\r\r?\xa0\xf8\x99>\xe0i\xa2>\x90\xc7\xd5>x,\xcd>\x00\x00\x00\x00\x00\x00\x00\x00\x00\x00\x00\x00\x00\x00\x00\x00\x00\x00\x00\x00'
S'\x00\x00\x00\x00\x00\x01\x01\x01\x01\x01\x00\x00\x00\x00\x00\x01\x01\x01\x01\x01'
Ntbsg26
g63
(g64
g65
g66
S'b'
tRp345
(I1
(I2
I10
tg68
I00
S'\x00\x00\x80?\x00\x00\x80?\x00\x00\x80?\x00\x00\x80?\x00\x00\x00@\x00\x00@@\x00\x00\x80@\x00\x00\x80@\x00\x00\x80@\x00\x00\xc0@\x00\x00\x80?\x00\x00\x80?\x00\x00\x80?\x00\x00\x00@\x00\x00\x00@\x00\x00\x00@\x00\x00@@\x00\x00\xa0@\x00\x00\xc0@\x00\x00\xc0@'
S'\x00\x00\x00\x00\x00\x00\x00\x00\x00\x00\x00\x00\x00\x00\x00\x00\x00\x00\x00\x00'
Ntbsg62
g63
(g64
g65
g66
S'b'
tRp346
(I1
(I2
I10
tg68
I00
S'\x00\x00\x80?\x00\x00\x80?\x00\x00\x80?\x00\x00\x80?\x00\x00\x80?\x00\x00\x80?\x00\x00\x80?\x00\x00\x80?\x00\x00\x80?\x00\x00\x80?\x00\x00\x80?\x00\x00\x80?\x00\x00\x80?\x00\x00\x80?\x00\x00\x80?\x00\x00\x80?\x00\x00\x80?\x00\x00\x80?\x00\x00\x80?\x00\x00\x80?'
S'\x00\x00\x00\x00\x00\x00\x00\x00\x00\x00\x00\x00\x00\x00\x00\x00\x00\x00\x00\x00'
Ntbsg25
g63
(g64
g65
g66
S'b'
tRp347
(I1
(I2
I10
tg68
I00
S'\x00\x00\x00@\x00\x00@@\x00\x00\x80@\x00\x00\x80@\x00\x00\x80@\x00\x00\x80@\x00\x00\x80@\x00\x00\x80@\x00\x00\x80@\x00\x00\x80@\x00\x00\x00\x00\x00\x00\x80?\x00\x00\x80@\x00\x00\x80@\x00\x00\x80@\x00\x00\x80@\x00\x00\x80@\x00\x00\x80@\x00\x00\x80@\x00\x00\x80@'
S'\x00\x00\x00\x00\x00\x00\x00\x00\x00\x00\x00\x00\x00\x00\x00\x00\x00\x00\x00\x00'
Ntbsg30
g63
(g64
g65
g66
S'b'
tRp348
(I1
(I2
I10
tg68
I00
S'\x00\x00\x80\xbf\x00\x00\x80\xbf\x00\x00\x80\xbf\x00\x00\x80\xbf\x00\x00\x80\xbf\x00\x00\x80\xbf\x9a\x99\x99>\x00\x00\x80\xbf\x00\x00\x80\xbf33\xb3>\xcd\xccL>\x00\x00\x80\xbf\x00\x00\x80\xbf\x9a\x99\x19>\x00\x00\x80\xbf\x00\x00\x80\xbf\xcd\xccL>\x00\x00\x80>\x00\x00\x80\xbf\x00\x00\x80\xbf'
S'\x00\x00\x00\x00\x00\x00\x00\x00\x00\x00\x00\x00\x00\x00\x00\x00\x00\x00\x00\x00'
Ntbsg17
g63
(g64
g65
g66
S'b'
tRp349
(I1
(I2
I10
tg68
I00
S'\x00\x00\x80\xbf\x00\x00\x80\xbf\x00\x00\x80\xbf\x00\x00\x80\xbf\x00\x00\x80\xbf\x00\x00\x80\xbf\x00\x00\x80>\x00\x00\x80\xbf\x00\x00\x80\xbf\x9a\x99\x99>\x00\x00\x80>\x00\x00\x80\xbf\x00\x00\x80\xbf\xcd\xccL>\x00\x00\x80\xbf\x00\x00\x80\xbf\x9a\x99\x19>\xcd\xccL>\x00\x00\x80\xbf\x00\x00\x80\xbf'
S'\x00\x00\x00\x00\x00\x00\x00\x00\x00\x00\x00\x00\x00\x00\x00\x00\x00\x00\x00\x00'
Ntbsg28
g63
(g64
g65
g66
S'b'
tRp350
(I1
(I2
I10
tg68
I00
S'\x00\x00\x00\x00\x00\x00\x00\x00\x00\x00\x00\x00\x00\x00\x00\x00\x00\x00\x00\x00\x00\x00\x00@\x00\x00\x00@\x00\x00@@\x00\x00\x80@\x00\x00\x80@\x00\x00\x00\x00\x00\x00\x00\x00\x00\x00\x00\x00\x00\x00\x00\x00\x00\x00\x00\x00\x00\x00\x80?\x00\x00\x80?\x00\x00\x80@\x00\x00\xa0@\x00\x00\xc0@'
S'\x00\x00\x00\x00\x00\x00\x00\x00\x00\x00\x00\x00\x00\x00\x00\x00\x00\x00\x00\x00'
Ntbsg18
g83
(g65
(I0
tS'b'
tRp351
(I1
(I2
I10
tg39
(S'O4'
I0
I1
tRp352
(I3
S'|'
NNNI-1
I-1
I63
tbI00
(lp353
g124
ag124
ag124
ag124
ag124
ag124
ag112
ag124
ag124
ag112
ag112
ag124
ag124
ag112
ag124
ag124
ag112
ag112
ag124
ag124
atbsg29
g63
(g64
g65
g66
S'b'
tRp354
(I1
(I2
I10
tg68
I00
S'\x00\x00\x00\x00\x00\x00\x00\x00\x00\x00\x80?\x00\x00\x00@\x00\x00\x80@\x00\x00\x80@\x00\x00\x80@\x00\x00\x80@\x00\x00\x80@\x00\x00\x80@\x00\x00\x00\x00\x00\x00\x00\x00\x00\x00\x00\x00\x00\x00\x00@\x00\x00@@\x00\x00\x80@\x00\x00\x80@\x00\x00\x80@\x00\x00\x80@\x00\x00\x80@'
S'\x00\x00\x00\x00\x00\x00\x00\x00\x00\x00\x00\x00\x00\x00\x00\x00\x00\x00\x00\x00'
Ntbsg24
g63
(g64
g65
g66
S'b'
tRp355
(I1
(I2
I10
tg68
I00
S'\xf8O/?V\xef\x8a?\xce\x89\xb3?\xce\x89\xb3?\xce\x89\xb3?\xce\x89\xb3?\xce\x89\xb3?\xce\x89\xb3?\xce\x89\xb3?\xce\x89\xb3?\x00\x00\x00\x00\xa0\xf8\x99>\xce\x89\xb3?\xce\x89\xb3?\xce\x89\xb3?\xce\x89\xb3?\xce\x89\xb3?\xce\x89\xb3?\xce\x89\xb3?\xce\x89\xb3?'
S'\x00\x00\x00\x00\x00\x00\x00\x00\x00\x00\x00\x00\x00\x00\x00\x00\x00\x00\x00\x00'
Ntbsg20
g83
(g65
(I0
tS'b'
tRp356
(I1
(I2
I10
tg352
I00
(lp357
S'z'
aS'z'
aS'm'
aS'm'
aS'm'
aNaNaNaNaNaS'm'
aS'm'
aS'm'
aS'z'
aS'z'
aNaNaNaNaNatbsg19
g83
(g65
(I0
tS'b'
tRp358
(I1
(I2
I10
tg352
I00
(lp359
g144
ag155
ag176
ag144
ag176
ag144
ag258
ag176
ag237
ag121
ag121
ag133
ag133
ag121
ag133
ag176
ag237
ag121
ag121
ag258
atbsg27
g63
(g64
g65
g66
S'b'
tRp360
(I1
(I2
I10
tg68
I00
S'\x00\x00\x00\x00\x00\x00\x00\x00\x00\x00\x00\x00\x00\x00\x00\x00\x00\x00\x00\x00\x00\x00\x80?\x00\x00\x00@\x00\x00\x00@\x00\x00\x00@\x00\x00\x80@\x00\x00\x00\x00\x00\x00\x00\x00\x00\x00\x00\x00\x00\x00\x00\x00\x00\x00\x00\x00\x00\x00\x00\x00\x00\x00\x80?\x00\x00@@\x00\x00\x80@\x00\x00\x80@'
S'\x00\x00\x00\x00\x00\x00\x00\x00\x00\x00\x00\x00\x00\x00\x00\x00\x00\x00\x00\x00'
Ntbsg23
g63
(g64
g65
g66
S'b'
tRp361
(I1
(I2
I10
tg68
I00
S'\x00\x00\x00@\x00\x00@@\x00\x00\xa0@\x00\x00\xc0@\x00\x00\x00A\x00\x00 A\x00\x00 A\x00\x000A\x00\x00@A\x00\x00@A\x00\x00\x00\x00\x00\x00\x80?\x00\x00\x80@\x00\x00\xc0@\x00\x00\xe0@\x00\x00\x10A\x00\x00\x10A\x00\x00@A\x00\x00PA\x00\x00`A'
S'\x00\x00\x00\x00\x00\x00\x00\x00\x00\x00\x00\x00\x00\x00\x00\x00\x00\x00\x00\x00'
Ntbsg69
g63
(g64
g65
g66
S'b'
tRp362
(I1
(I2
I10
tg68
I00
S'\x00\x00\x00@\x00\x00@@\x00\x00\xa0@\x00\x00\xc0@\x00\x00\x10A\x00\x00@A\x00\x00PA\x00\x00`A\x00\x00pA\x00\x00\x88A\x00\x00\x00\x00\x00\x00\x80?\x00\x00\x80@\x00\x00\xe0@\x00\x00\x00A\x00\x00 A\x00\x000A\x00\x00\x80A\x00\x00\x90A\x00\x00\x98A'
S'\x00\x00\x00\x00\x00\x00\x00\x00\x00\x00\x00\x00\x00\x00\x00\x00\x00\x00\x00\x00'
NtbstRp363
(dp364
g73
(dp365
g29
I01
sg21
I01
sg22
I01
sg26
I01
sg62
I01
sg20
I00
sg19
I00
sg30
I01
sg17
I01
sg27
I01
sg24
I01
sg28
I01
sg18
I00
sg25
I01
sg23
I01
sg69
I01
ssg75
g337
sg76
(lp366
g62
ag69
ag17
ag18
ag19
ag20
ag21
ag22
ag23
ag24
ag25
ag26
ag27
ag28
ag29
ag30
asg78
(lp367
I2
aI10
asbsg80
S'fullRandom'
p368
sg82
g83
(g65
(I0
tS'b'
tRp369
(I1
(I2
I10
tg352
I00
(lp370
I1
aI0
aI1
aI0
aI1
aI1
aI0
aI0
aI1
aI1
aI1
aI0
aI0
aI1
aI0
aI1
aI0
aI0
aI0
aI1
atbsg86
I01
sg87
I10
sg88
I-1
sg89
(lp371
g1
(cpsychopy.data
TrialType
p372
g60
(dp373
g104
Vz
sg105
I0
sg106
I-200
stRp374
ag1
(g372
g60
(dp375
g104
Vm
sg105
I0
sg106
I200
stRp376
asg91
Nsg92
I1
sg94
I20
sg95
I0
sg96
I20
sg97
I01
sbasS'savePickle'
p377
I00
sb.