ccopy_reg
_reconstructor
p1
(cpsychopy.data
ExperimentHandler
p2
c__builtin__
object
p3
NtRp4
(dp5
S'originPath'
p6
V/Users/patrickbissett/OneDrive/Poldrack/TrainedInhibition/PsychoPy/IntegratingDifferentCodeFlexibleStim10.psyexp
p7
sS'dataFileName'
p8
V/Users/patrickbissett/OneDrive/Poldrack/TrainedInhibition/PsychoPy/data/616_2015_Mar_18_1446
p9
sS'runtimeInfo'
p10
NsS'name'
p11
S'LearningTask'
p12
sS'dataNames'
p13
(lp14
S'ok1.keys'
p15
aS'ok1.rt'
p16
aS'resp.keys'
p17
aS'resp.corr'
p18
aS'resp.rt'
p19
asS'autoLog'
p20
I01
sS'extraInfo'
p21
(dp22
S'expName'
p23
g12
sS'gender (m/f)'
p24
V
sS'age'
p25
V
sS'frameRate'
p26
cnumpy.core.multiarray
scalar
p27
(cnumpy
dtype
p28
(S'f8'
I0
I1
tRp29
(I3
S'<'
NNNI-1
I-1
I0
tbS'\x9e-k\xec\x1b\xf3M@'
tRp30
sS'session'
p31
I3
sS'date'
p32
V2015_Mar_18_1446
p33
sS'participant'
p34
V616
p35
ssS'loopsUnfinished'
p36
(lp37
g1
(cpsychopy.data
TrialHandler
p38
g3
NtRp39
(dp40
S'origin'
p41
V<PsychoPy2experiment version="1.82.01" encoding="utf-8">\u000a  <Settings>\u000a    <Param name="Show mouse" val="False" valType="bool" updates="None"/>\u000a    <Param name="Data filename" val="u'data' + os.sep + '%s_%s' %(expInfo['participant'], expInfo['date'])" valType="code" updates="None"/>\u000a    <Param name="Monitor" val="testMonitor" valType="str" updates="None"/>\u000a    <Param name="Enable Escape" val="True" valType="bool" updates="None"/>\u000a    <Param name="color" val="black" valType="str" updates="None"/>\u000a    <Param name="Window size (pixels)" val="[1680, 1050]" valType="code" updates="None"/>\u000a    <Param name="Full-screen window" val="True" valType="bool" updates="None"/>\u000a    <Param name="colorSpace" val="rgb" valType="str" updates="None"/>\u000a    <Param name="Experiment info" val="{'participant':'', 'gender (m/f)':'', 'age':'', 'session':03}" valType="code" updates="None"/>\u000a    <Param name="Save csv file" val="False" valType="bool" updates="None"/>\u000a    <Param name="Show info dlg" val="True" valType="bool" updates="None"/>\u000a    <Param name="Save wide csv file" val="True" valType="bool" updates="None"/>\u000a    <Param name="Save psydat file" val="True" valType="bool" updates="None"/>\u000a    <Param name="expName" val="LearningTask" valType="str" updates="None"/>\u000a    <Param name="logging level" val="warning" valType="code" updates="None"/>\u000a    <Param name="blendMode" val="avg" valType="str" updates="None"/>\u000a    <Param name="Save excel file" val="True" valType="bool" updates="None"/>\u000a    <Param name="Units" val="use prefs" valType="str" updates="None"/>\u000a    <Param name="Save log file" val="True" valType="bool" updates="None"/>\u000a    <Param name="Screen" val="1" valType="num" updates="None"/>\u000a  </Settings>\u000a  <Routines>\u000a    <Routine name="trial">\u000a      <CodeComponent name="code_2">\u000a        <Param name="Begin Experiment" val="" valType="extendedCode" updates="constant"/>\u000a        <Param name="name" val="code_2" valType="code" updates="None"/>\u000a        <Param name="Begin Routine" val="import random&#10;&#10;Integers = [1, 2, 3, 4, 5, 6, 7, 8]&#10;&#10;if Redo == 1:&#10;    ConditionChoice = random.choice(Integers)&#10;    if ConditionChoice == 1:&#10;        CurrentStimulus = ConditionOne['fileName']&#10;    elif ConditionChoice == 2:&#10;        CurrentStimulus = ConditionTwo['fileName']&#10;    elif ConditionChoice == 3:&#10;        CurrentStimulus = ConditionThree['fileName']&#10;    elif ConditionChoice == 4:&#10;        CurrentStimulus = ConditionFour['fileName']&#10;    elif ConditionChoice == 5:&#10;        CurrentStimulus = ConditionFive['fileName']&#10;    elif ConditionChoice == 6:&#10;        CurrentStimulus = ConditionSix['fileName']&#10;    elif ConditionChoice == 7:&#10;        CurrentStimulus = ConditionSeven['fileName']&#10;    elif ConditionChoice == 8:&#10;        CurrentStimulus = ConditionEight['fileName']" valType="extendedCode" updates="constant"/>\u000a        <Param name="End Routine" val="" valType="extendedCode" updates="constant"/>\u000a        <Param name="End Experiment" val="" valType="extendedCode" updates="constant"/>\u000a        <Param name="Each Frame" val="" valType="extendedCode" updates="constant"/>\u000a      </CodeComponent>\u000a      <KeyboardComponent name="resp">\u000a        <Param name="correctAns" val="$corrAns" valType="str" updates="constant"/>\u000a        <Param name="storeCorrect" val="True" valType="bool" updates="constant"/>\u000a        <Param name="name" val="resp" valType="code" updates="None"/>\u000a        <Param name="stopVal" val="1" valType="code" updates="constant"/>\u000a        <Param name="durationEstim" val="" valType="code" updates="None"/>\u000a        <Param name="forceEndRoutine" val="True" valType="bool" updates="constant"/>\u000a        <Param name="startEstim" val="" valType="code" updates="None"/>\u000a        <Param name="discard previous" val="True" valType="bool" updates="constant"/>\u000a        <Param name="startType" val="time (s)" valType="str" updates="None"/>\u000a        <Param name="allowedKeys" val="'t', 'y', 'g', 'h'" valType="code" updates="constant"/>\u000a        <Param name="stopType" val="duration (s)" valType="str" updates="None"/>\u000a        <Param name="startVal" val=".5" valType="code" updates="None"/>\u000a        <Param name="store" val="last key" valType="str" updates="constant"/>\u000a      </KeyboardComponent>\u000a      <TextComponent name="text">\u000a        <Param name="opacity" val="1" valType="code" updates="constant"/>\u000a        <Param name="colorSpace" val="rgb" valType="str" updates="constant"/>\u000a        <Param name="name" val="text" valType="code" updates="None"/>\u000a        <Param name="wrapWidth" val="" valType="code" updates="constant"/>\u000a        <Param name="color" val="white" valType="str" updates="constant"/>\u000a        <Param name="text" val="+" valType="str" updates="constant"/>\u000a        <Param name="stopVal" val="1.5" valType="code" updates="constant"/>\u000a        <Param name="durationEstim" val="" valType="code" updates="None"/>\u000a        <Param name="pos" val="[0, 0]" valType="code" updates="constant"/>\u000a        <Param name="flip" val="" valType="str" updates="constant"/>\u000a        <Param name="startEstim" val="" valType="code" updates="None"/>\u000a        <Param name="units" val="from exp settings" valType="str" updates="None"/>\u000a        <Param name="startType" val="time (s)" valType="str" updates="None"/>\u000a        <Param name="ori" val="0" valType="code" updates="constant"/>\u000a        <Param name="stopType" val="duration (s)" valType="str" updates="None"/>\u000a        <Param name="startVal" val="0.0" valType="code" updates="None"/>\u000a        <Param name="font" val="Arial" valType="str" updates="constant"/>\u000a        <Param name="letterHeight" val="1" valType="code" updates="constant"/>\u000a      </TextComponent>\u000a      <ImageComponent name="image_2">\u000a        <Param name="opacity" val="1" valType="code" updates="constant"/>\u000a        <Param name="flipVert" val="False" valType="bool" updates="constant"/>\u000a        <Param name="colorSpace" val="rgb" valType="str" updates="constant"/>\u000a        <Param name="name" val="image_2" valType="code" updates="None"/>\u000a        <Param name="color" val="$[1,1,1]" valType="str" updates="constant"/>\u000a        <Param name="stopVal" val="1.0" valType="code" updates="constant"/>\u000a        <Param name="durationEstim" val="" valType="code" updates="None"/>\u000a        <Param name="mask" val="None" valType="str" updates="constant"/>\u000a        <Param name="pos" val="$[xPos, yPos]" valType="code" updates="set every repeat"/>\u000a        <Param name="interpolate" val="linear" valType="str" updates="constant"/>\u000a        <Param name="startEstim" val="" valType="code" updates="None"/>\u000a        <Param name="units" val="pix" valType="str" updates="None"/>\u000a        <Param name="texture resolution" val="128" valType="code" updates="constant"/>\u000a        <Param name="startType" val="time (s)" valType="str" updates="None"/>\u000a        <Param name="ori" val="0" valType="code" updates="constant"/>\u000a        <Param name="stopType" val="duration (s)" valType="str" updates="None"/>\u000a        <Param name="startVal" val=".5" valType="code" updates="None"/>\u000a        <Param name="flipHoriz" val="False" valType="bool" updates="constant"/>\u000a        <Param name="image" val="$CurrentStimulus" valType="str" updates="set every repeat"/>\u000a        <Param name="size" val="[101, 101]" valType="code" updates="constant"/>\u000a      </ImageComponent>\u000a    </Routine>\u000a    <Routine name="StimSetup">\u000a      <CodeComponent name="code">\u000a        <Param name="Begin Experiment" val="import random&#10;Redo = 1&#10;colors = ['yellow', 'white', 'orange', 'magenta', 'green', 'gray', 'cyan', 'blue']&#10;shapes = ['triangle', 'square', 'line', 'invertedtriangle', 'hexagon', 'diamond', 'cross', 'circle']&#10;rewards = [0.5, 1, 2, 4] * 2&#10;conditions = ['go', 'go', 'go', 'go', 'stop', 'stop', 'stop', 'stop']&#10;trialDetailsList = []&#10;&#10;shuffle(colors)&#10;shuffle(shapes)&#10;&#10;for i, color in enumerate(colors): # cycle through each color and keep track of an index number&#10;    trialDetails = {} # a dictionary of key-value pairs&#10;    trialDetails['fileName'] = shapes[i] + color + '.gif'&#10;    trialDetails['reward'] = rewards[i]&#10;    trialDetails['condition'] = conditions[i]&#10;    trialDetailsList.append(trialDetails)&#10;&#10;shuffle(trialDetailsList) # do this now to ensure that order of presentation of rewards and conditions is also shuffled&#10;&#10;ConditionOne = trialDetailsList[0]&#10;ConditionTwo = trialDetailsList[1]&#10;ConditionThree = trialDetailsList[2]&#10;ConditionFour = trialDetailsList[3]&#10;ConditionFive = trialDetailsList[4]&#10;ConditionSix = trialDetailsList[5]&#10;ConditionSeven = trialDetailsList[6]&#10;ConditionEight = trialDetailsList[7]" valType="extendedCode" updates="constant"/>\u000a        <Param name="name" val="code" valType="code" updates="None"/>\u000a        <Param name="Begin Routine" val="" valType="extendedCode" updates="constant"/>\u000a        <Param name="End Routine" val="" valType="extendedCode" updates="constant"/>\u000a        <Param name="End Experiment" val="" valType="extendedCode" updates="constant"/>\u000a        <Param name="Each Frame" val="" valType="extendedCode" updates="constant"/>\u000a      </CodeComponent>\u000a    </Routine>\u000a    <Routine name="instrMain">\u000a      <TextComponent name="instr2">\u000a        <Param name="opacity" val="1" valType="code" updates="constant"/>\u000a        <Param name="colorSpace" val="rgb" valType="str" updates="constant"/>\u000a        <Param name="name" val="instr2" valType="code" updates="constant"/>\u000a        <Param name="wrapWidth" val="" valType="code" updates="constant"/>\u000a        <Param name="color" val="white" valType="str" updates="constant"/>\u000a        <Param name="text" val="OK, ready to start the main experiment?&#10;&#10;Remember, press;&#10; - 'S' if the SMALL letters are S&#10; - 'H' if the SMALL letters are H&#10;&#10;Try to respond as quickly and as accurately as possible.&#10;&#10;When you are ready to proceed press any key." valType="str" updates="constant"/>\u000a        <Param name="stopVal" val="" valType="code" updates="constant"/>\u000a        <Param name="durationEstim" val="" valType="code" updates="None"/>\u000a        <Param name="pos" val="[0, 0]" valType="code" updates="constant"/>\u000a        <Param name="flip" val="" valType="str" updates="constant"/>\u000a        <Param name="startEstim" val="" valType="code" updates="None"/>\u000a        <Param name="units" val="from exp settings" valType="str" updates="None"/>\u000a        <Param name="startType" val="time (s)" valType="str" updates="None"/>\u000a        <Param name="ori" val="0" valType="code" updates="constant"/>\u000a        <Param name="stopType" val="duration (s)" valType="str" updates="None"/>\u000a        <Param name="startVal" val="0.0" valType="code" updates="None"/>\u000a        <Param name="font" val="Arial" valType="str" updates="constant"/>\u000a        <Param name="letterHeight" val="0.075" valType="code" updates="constant"/>\u000a      </TextComponent>\u000a      <KeyboardComponent name="ok2">\u000a        <Param name="correctAns" val="" valType="str" updates="constant"/>\u000a        <Param name="storeCorrect" val="False" valType="bool" updates="constant"/>\u000a        <Param name="name" val="ok2" valType="code" updates="None"/>\u000a        <Param name="stopVal" val="" valType="code" updates="constant"/>\u000a        <Param name="durationEstim" val="" valType="code" updates="None"/>\u000a        <Param name="forceEndRoutine" val="True" valType="bool" updates="constant"/>\u000a        <Param name="startEstim" val="" valType="code" updates="None"/>\u000a        <Param name="discard previous" val="True" valType="bool" updates="constant"/>\u000a        <Param name="startType" val="time (s)" valType="str" updates="None"/>\u000a        <Param name="allowedKeys" val="" valType="code" updates="constant"/>\u000a        <Param name="stopType" val="duration (s)" valType="str" updates="None"/>\u000a        <Param name="startVal" val="0.0" valType="code" updates="None"/>\u000a        <Param name="store" val="nothing" valType="str" updates="constant"/>\u000a      </KeyboardComponent>\u000a    </Routine>\u000a    <Routine name="feedback">\u000a      <CodeComponent name="message">\u000a        <Param name="Begin Experiment" val="#message variable just needs some value at start&#10;message=0" valType="extendedCode" updates="constant"/>\u000a        <Param name="name" val="message" valType="code" updates="None"/>\u000a        <Param name="Begin Routine" val="DisplayReward = random.randrange(1, 6)&#10;&#10;if resp.corr:#stored on last run routine&#10;    if DisplayReward == 1:&#10;            message = 0;&#10;    else:&#10;        if ConditionChoice == 1:&#10;            CurrentReward = ConditionOne['reward']&#10;            message = CurrentReward + (random.randrange(-25, 26)*.01)&#10;        elif ConditionChoice == 2:&#10;            CurrentReward = ConditionTwo['reward']&#10;            message = CurrentReward + (random.randrange(-25, 26)*.01)&#10;        elif ConditionChoice == 3:&#10;            CurrentReward = ConditionThree['reward']&#10;            message = CurrentReward + (random.randrange(-25, 26)*.01)&#10;        elif ConditionChoice == 4:&#10;            CurrentReward = ConditionFour['reward']&#10;            message = CurrentReward + (random.randrange(-25, 26)*.01)&#10;        elif ConditionChoice == 5:&#10;            CurrentReward = ConditionFive['reward']&#10;            message = CurrentReward + (random.randrange(-25, 26)*.01)&#10;        elif ConditionChoice == 6:&#10;            CurrentReward = ConditionSix['reward']&#10;            message = CurrentReward + (random.randrange(-25, 26)*.01)&#10;        elif ConditionChoice == 7:&#10;            CurrentReward = ConditionSeven['reward']&#10;            message = CurrentReward + (random.randrange(-25, 26)*.01)&#10;        elif ConditionChoice == 8:&#10;            CurrentReward = ConditionEight['reward']&#10;            message = CurrentReward + (random.randrange(-25, 26)*.01)&#10;elif resp.keys is None: #or len(key_resp.keys)&lt;1:&#10;#elif resp.rt == 0:&#10;    message =&quot;Too Slow&quot;&#10;else:&#10;  message=&quot;Wrong&quot;&#10;&#10;if resp.corr:#stored on last run routine&#10;    Redo = 1; &#10;else:&#10;    Redo = Redo + 1;&#10;&#10;#if DisplayReward == 1:&#10;#    message = 0;&#10;#else:&#10;#    message = CurrentReward + (random.randrange(-25, 26)*.01)&#10;&#10;#  message=&quot;Correct! RT=%.3f&quot; %(resp.rt)" valType="extendedCode" updates="constant"/>\u000a        <Param name="End Routine" val="" valType="extendedCode" updates="constant"/>\u000a        <Param name="End Experiment" val="" valType="extendedCode" updates="constant"/>\u000a        <Param name="Each Frame" val="" valType="extendedCode" updates="constant"/>\u000a      </CodeComponent>\u000a      <TextComponent name="feedback_2">\u000a        <Param name="opacity" val="1" valType="code" updates="constant"/>\u000a        <Param name="colorSpace" val="rgb" valType="str" updates="constant"/>\u000a        <Param name="name" val="feedback_2" valType="code" updates="constant"/>\u000a        <Param name="wrapWidth" val="" valType="code" updates="constant"/>\u000a        <Param name="color" val="$[1,1,1]" valType="str" updates="constant"/>\u000a        <Param name="text" val="$message" valType="str" updates="set every repeat"/>\u000a        <Param name="stopVal" val="1.0" valType="code" updates="constant"/>\u000a        <Param name="durationEstim" val="" valType="code" updates="None"/>\u000a        <Param name="pos" val="[0, 0]" valType="code" updates="constant"/>\u000a        <Param name="flip" val="" valType="str" updates="constant"/>\u000a        <Param name="startEstim" val="" valType="code" updates="None"/>\u000a        <Param name="units" val="from exp settings" valType="str" updates="None"/>\u000a        <Param name="startType" val="time (s)" valType="str" updates="None"/>\u000a        <Param name="ori" val="0" valType="code" updates="constant"/>\u000a        <Param name="stopType" val="duration (s)" valType="str" updates="None"/>\u000a        <Param name="startVal" val="0.0" valType="code" updates="None"/>\u000a        <Param name="font" val="Arial" valType="str" updates="constant"/>\u000a        <Param name="letterHeight" val="0.1" valType="code" updates="constant"/>\u000a      </TextComponent>\u000a    </Routine>\u000a    <Routine name="instrPractice">\u000a      <TextComponent name="instruct1">\u000a        <Param name="opacity" val="1" valType="code" updates="constant"/>\u000a        <Param name="colorSpace" val="rgb" valType="str" updates="constant"/>\u000a        <Param name="name" val="instruct1" valType="code" updates="constant"/>\u000a        <Param name="wrapWidth" val="" valType="code" updates="constant"/>\u000a        <Param name="color" val="white" valType="str" updates="constant"/>\u000a        <Param name="text" val="A shape stimulus will appear on every trial. &#10;&#10;If it appears in the upper right quadrant, PRESS Y&#10;&#10;If it appears in the lower right quadrant, PRESS H&#10;&#10;If it appears in the lower left quadrant, PRESS G&#10;&#10;If it appears in the upper left quadrant, PRESS T&#10;&#10;Press any key when you are ready to proceed. " valType="str" updates="constant"/>\u000a        <Param name="stopVal" val="" valType="code" updates="constant"/>\u000a        <Param name="durationEstim" val="" valType="code" updates="None"/>\u000a        <Param name="pos" val="[0, 0]" valType="code" updates="constant"/>\u000a        <Param name="flip" val="" valType="str" updates="constant"/>\u000a        <Param name="startEstim" val="" valType="code" updates="None"/>\u000a        <Param name="units" val="from exp settings" valType="str" updates="None"/>\u000a        <Param name="startType" val="time (s)" valType="str" updates="None"/>\u000a        <Param name="ori" val="0" valType="code" updates="constant"/>\u000a        <Param name="stopType" val="duration (s)" valType="str" updates="None"/>\u000a        <Param name="startVal" val="0.0" valType="code" updates="None"/>\u000a        <Param name="font" val="Arial" valType="str" updates="constant"/>\u000a        <Param name="letterHeight" val="0.07" valType="code" updates="constant"/>\u000a      </TextComponent>\u000a      <KeyboardComponent name="ok1">\u000a        <Param name="correctAns" val="" valType="str" updates="constant"/>\u000a        <Param name="storeCorrect" val="False" valType="bool" updates="constant"/>\u000a        <Param name="name" val="ok1" valType="code" updates="None"/>\u000a        <Param name="stopVal" val="" valType="code" updates="constant"/>\u000a        <Param name="durationEstim" val="" valType="code" updates="None"/>\u000a        <Param name="forceEndRoutine" val="True" valType="bool" updates="constant"/>\u000a        <Param name="startEstim" val="" valType="code" updates="None"/>\u000a        <Param name="discard previous" val="True" valType="bool" updates="constant"/>\u000a        <Param name="startType" val="time (s)" valType="str" updates="None"/>\u000a        <Param name="allowedKeys" val="" valType="code" updates="constant"/>\u000a        <Param name="stopType" val="duration (s)" valType="str" updates="None"/>\u000a        <Param name="startVal" val="0.0" valType="code" updates="None"/>\u000a        <Param name="store" val="last key" valType="str" updates="constant"/>\u000a      </KeyboardComponent>\u000a    </Routine>\u000a  </Routines>\u000a  <Flow>\u000a    <Routine name="StimSetup"/>\u000a    <Routine name="instrPractice"/>\u000a    <LoopInitiator loopType="TrialHandler" name="practiceTrials">\u000a      <Param name="conditionsFile" val="Trialtypes5.xlsx" valType="str" updates="None"/>\u000a      <Param name="name" val="practiceTrials" valType="code" updates="None"/>\u000a      <Param name="isTrials" val="True" valType="bool" updates="None"/>\u000a      <Param name="random seed" val="" valType="code" updates="None"/>\u000a      <Param name="loopType" val="random" valType="str" updates="None"/>\u000a      <Param name="nReps" val="1" valType="num" updates="None"/>\u000a      <Param name="endPoints" val="[1, 2]" valType="num" updates="None"/>\u000a      <Param name="conditions" val="[{u'xPos': 200, u'corrAns': u'y', u'yPos': 200}, {u'xPos': -200, u'corrAns': u't', u'yPos': 200}, {u'xPos': 200, u'corrAns': u'h', u'yPos': -200}, {u'xPos': -200, u'corrAns': u'g', u'yPos': -200}]" valType="str" updates="None"/>\u000a      <Param name="Selected rows" val="" valType="str" updates="None"/>\u000a    </LoopInitiator>\u000a    <LoopInitiator loopType="TrialHandler" name="ReDoLoop">\u000a      <Param name="conditionsFile" val="" valType="str" updates="None"/>\u000a      <Param name="name" val="ReDoLoop" valType="code" updates="None"/>\u000a      <Param name="isTrials" val="True" valType="bool" updates="None"/>\u000a      <Param name="random seed" val="" valType="code" updates="None"/>\u000a      <Param name="loopType" val="random" valType="str" updates="None"/>\u000a      <Param name="nReps" val="$Redo" valType="code" updates="None"/>\u000a      <Param name="endPoints" val="[0, 1]" valType="num" updates="None"/>\u000a      <Param name="conditions" val="None" valType="str" updates="None"/>\u000a      <Param name="Selected rows" val="" valType="code" updates="None"/>\u000a    </LoopInitiator>\u000a    <Routine name="trial"/>\u000a    <Routine name="feedback"/>\u000a    <LoopTerminator name="ReDoLoop"/>\u000a    <LoopTerminator name="practiceTrials"/>\u000a    <Routine name="instrMain"/>\u000a    <LoopInitiator loopType="TrialHandler" name="trials">\u000a      <Param name="conditionsFile" val="Trialtypes5.xlsx" valType="str" updates="None"/>\u000a      <Param name="name" val="trials" valType="code" updates="None"/>\u000a      <Param name="isTrials" val="True" valType="bool" updates="None"/>\u000a      <Param name="random seed" val="" valType="code" updates="None"/>\u000a      <Param name="loopType" val="random" valType="str" updates="None"/>\u000a      <Param name="nReps" val="10" valType="num" updates="None"/>\u000a      <Param name="endPoints" val="[0, 1]" valType="num" updates="None"/>\u000a      <Param name="conditions" val="[{u'xPos': 200, u'corrAns': u'y', u'yPos': 200}, {u'xPos': -200, u'corrAns': u't', u'yPos': 200}, {u'xPos': 200, u'corrAns': u'h', u'yPos': -200}, {u'xPos': -200, u'corrAns': u'g', u'yPos': -200}]" valType="str" updates="None"/>\u000a      <Param name="Selected rows" val="" valType="str" updates="None"/>\u000a    </LoopInitiator>\u000a    <Routine name="trial"/>\u000a    <Routine name="feedback"/>\u000a    <LoopTerminator name="trials"/>\u000a  </Flow>\u000a</PsychoPy2experiment>\u000a
p42
sS'thisTrial'
p43
g1
(cpsychopy.data
TrialType
p44
c__builtin__
dict
p45
(dp46
VxPos
p47
I200
sVcorrAns
p48
Vy
sVyPos
p49
I200
stRp50
sS'_exp'
p51
I235079088
sg11
S'trials'
p52
sg6
g7
sS'thisRepN'
p53
I9
sg20
I01
sg21
g22
sS'data'
p54
g1
(cpsychopy.data
DataHandler
p55
g45
(dp56
S'ran'
p57
cnumpy.ma.core
_mareconstruct
p58
(cnumpy.ma.core
MaskedArray
p59
cnumpy
ndarray
p60
(I0
tp61
S'b'
tRp62
(I1
(I4
I10
tg28
(S'f4'
I0
I1
tRp63
(I3
S'<'
NNNI-1
I-1
I0
tbI00
S'\x00\x00\x80?\x00\x00\x80?\x00\x00\x80?\x00\x00\x80?\x00\x00\x80?\x00\x00\x80?\x00\x00\x80?\x00\x00\x80?\x00\x00\x80?\x00\x00\x80?\x00\x00\x80?\x00\x00\x80?\x00\x00\x80?\x00\x00\x80?\x00\x00\x80?\x00\x00\x80?\x00\x00\x80?\x00\x00\x80?\x00\x00\x80?\x00\x00\x00\x00\x00\x00\x80?\x00\x00\x80?\x00\x00\x80?\x00\x00\x80?\x00\x00\x80?\x00\x00\x80?\x00\x00\x80?\x00\x00\x80?\x00\x00\x80?\x00\x00\x00\x00\x00\x00\x80?\x00\x00\x80?\x00\x00\x80?\x00\x00\x80?\x00\x00\x80?\x00\x00\x80?\x00\x00\x80?\x00\x00\x80?\x00\x00\x80?\x00\x00\x80?'
S'\x00\x00\x00\x00\x00\x00\x00\x00\x00\x00\x00\x00\x00\x00\x00\x00\x00\x00\x00\x00\x00\x00\x00\x00\x00\x00\x00\x00\x00\x00\x00\x00\x00\x00\x00\x00\x00\x00\x00\x00'
Ntbsg17
cnumpy.core.multiarray
_reconstruct
p64
(g60
(I0
tS'b'
tRp65
(I1
(I4
I10
tg28
(S'O4'
I0
I1
tRp66
(I3
S'|'
NNNI-1
I-1
I63
tbI00
(lp67
S'h'
aS'y'
aS'y'
aS'y'
aS'y'
aS'y'
aS'y'
aS'y'
aS'h'
aS'--'
p68
aS'g'
aS'g'
aS't'
aS'g'
aNaS't'
aS't'
aS'g'
aS't'
aS'--'
p69
aS'y'
aS'y'
aS'h'
aS'y'
aS'h'
aS'h'
aS'h'
aS'h'
aS'h'
aS'--'
p70
aS't'
aS't'
aS't'
aS'g'
aS'g'
aS'g'
aS'g'
aS'g'
aS'g'
aS'g'
atbsg18
g58
(g59
g60
g61
S'b'
tRp71
(I1
(I4
I10
tg63
I00
S'\x00\x00\x00\x00\x00\x00\x80?\x00\x00\x80?\x00\x00\x80?\x00\x00\x80?\x00\x00\x80?\x00\x00\x80?\x00\x00\x80?\x00\x00\x00\x00\x00\x00\x00\x00\x00\x00\x00\x00\x00\x00\x00\x00\x00\x00\x80?\x00\x00\x00\x00\x00\x00\x00\x00\x00\x00\x80?\x00\x00\x80?\x00\x00\x00\x00\x00\x00\x80?\x00\x00\x00\x00\x00\x00\x00\x00\x00\x00\x00\x00\x00\x00\x80?\x00\x00\x00\x00\x00\x00\x80?\x00\x00\x80?\x00\x00\x80?\x00\x00\x80?\x00\x00\x80?\x00\x00\x00\x00\x00\x00\x00\x00\x00\x00\x00\x00\x00\x00\x00\x00\x00\x00\x80?\x00\x00\x80?\x00\x00\x80?\x00\x00\x80?\x00\x00\x80?\x00\x00\x80?\x00\x00\x80?'
S'\x00\x00\x00\x00\x00\x00\x00\x00\x00\x01\x00\x00\x00\x00\x00\x00\x00\x00\x00\x01\x00\x00\x00\x00\x00\x00\x00\x00\x00\x01\x00\x00\x00\x00\x00\x00\x00\x00\x00\x00'
NtbsS'order'
p72
g58
(g59
g60
g61
S'b'
tRp73
(I1
(I4
I10
tg63
I00
S'\x00\x00\x00\x00\x00\x00\xe0@\x00\x00\x00A\x00\x00PA\x00\x00\x90A\x00\x00\xb0A\x00\x00\xd0A\x00\x00\xf0A\x00\x00\x00B\x00\x00\x14B\x00\x00\x80?\x00\x00\xc0@\x00\x00\x10A\x00\x00@A\x00\x00\x80A\x00\x00\xa8A\x00\x00\xc0A\x00\x00\xf8A\x00\x00\x08B\x00\x00\x00\x00\x00\x00\x00@\x00\x00\xa0@\x00\x00 A\x00\x00pA\x00\x00\x98A\x00\x00\xa0A\x00\x00\xc8A\x00\x00\xe0A\x00\x00\x04B\x00\x00\x00\x00\x00\x00@@\x00\x00\x80@\x00\x000A\x00\x00`A\x00\x00\x88A\x00\x00\xb8A\x00\x00\xd8A\x00\x00\xe8A\x00\x00\x0cB\x00\x00\x10B'
S'\x00\x00\x00\x00\x00\x00\x00\x00\x00\x00\x00\x00\x00\x00\x00\x00\x00\x00\x00\x01\x00\x00\x00\x00\x00\x00\x00\x00\x00\x01\x00\x00\x00\x00\x00\x00\x00\x00\x00\x00'
Ntbsg19
g58
(g59
g60
g61
S'b'
tRp74
(I1
(I4
I10
tg63
I00
S'P\x1a\x1e?\x90\xfe\xd5>\xa0\x91\xef>\xd8\xe9\xe6>\x04\x883?\xe82\xcd>\xa4\xf3\x19?@d\x11?PW/?\x00\x00\x00\x00\x9c^Q?\x1c/<?\xd0\x97"? \xd4U?\x00\x00\x00\x00(d\xef>\x18\xd4\xf7>\x00\x89"?\xf0\xd47?\x00\x00\x00\x00\xc0|"?\xe0\xee\x19?(G\x11?\xecO\x1e?\xa8\xa0s?\xe8\x91"?D\x1a\r?\x90\xe3\xf7>\xf0\xc6&?\x00\x00\x00\x00h\xe9*?\xd02\x1e?\x9c[\x00?\xa4\xbe\x08?\x1c]\x11?\xc4\x1c\r?\xe8\x94\x04?@&\xf8>|\x13+?\x98)\r?'
S'\x00\x00\x00\x00\x00\x00\x00\x00\x00\x01\x00\x00\x00\x00\x01\x00\x00\x00\x00\x01\x00\x00\x00\x00\x00\x00\x00\x00\x00\x01\x00\x00\x00\x00\x00\x00\x00\x00\x00\x00'
NtbstRp75
(dp76
S'isNumeric'
p77
(dp78
g57
I01
sg17
I00
sg19
I01
sg72
I01
sg18
I01
ssg52
g39
sS'dataTypes'
p79
(lp80
g57
ag72
ag17
ag18
ag19
asS'dataShape'
p81
(lp82
I4
aI10
asbsS'method'
p83
S'random'
p84
sS'sequenceIndices'
p85
g64
(g60
(I0
tS'b'
tRp86
(I1
(I4
I10
tg28
(S'i4'
I0
I1
tRp87
(I3
S'<'
NNNI-1
I-1
I0
tbI01
S'\x00\x00\x00\x00\x01\x00\x00\x00\x02\x00\x00\x00\x03\x00\x00\x00\x03\x00\x00\x00\x02\x00\x00\x00\x01\x00\x00\x00\x00\x00\x00\x00\x00\x00\x00\x00\x01\x00\x00\x00\x02\x00\x00\x00\x03\x00\x00\x00\x01\x00\x00\x00\x00\x00\x00\x00\x03\x00\x00\x00\x02\x00\x00\x00\x01\x00\x00\x00\x03\x00\x00\x00\x00\x00\x00\x00\x02\x00\x00\x00\x02\x00\x00\x00\x01\x00\x00\x00\x00\x00\x00\x00\x03\x00\x00\x00\x01\x00\x00\x00\x02\x00\x00\x00\x00\x00\x00\x00\x03\x00\x00\x00\x02\x00\x00\x00\x03\x00\x00\x00\x00\x00\x00\x00\x01\x00\x00\x00\x00\x00\x00\x00\x02\x00\x00\x00\x01\x00\x00\x00\x03\x00\x00\x00\x03\x00\x00\x00\x00\x00\x00\x00\x02\x00\x00\x00\x01\x00\x00\x00'
tbsS'finished'
p88
I00
sS'nReps'
p89
I10
sS'nRemaining'
p90
I2
sS'trialList'
p91
(lp92
g50
ag1
(g44
g45
(dp93
g47
I-200
sg48
Vt
sg49
I200
stRp94
ag1
(g44
g45
(dp95
g47
I200
sg48
Vh
sg49
I-200
stRp96
ag1
(g44
g45
(dp97
g47
I-200
sg48
Vg
sg49
I-200
stRp98
asS'seed'
p99
NsS'thisIndex'
p100
g27
(g87
S'\x00\x00\x00\x00'
tRp101
sS'thisN'
p102
I37
sS'thisTrialN'
p103
I1
sS'nTotal'
p104
I40
sS'_warnUseOfNext'
p105
I01
sbasS'saveWideText'
p106
I01
sS'thisEntry'
p107
(dp108
sS'version'
p109
S''
sS'_paramNamesSoFar'
p110
(lp111
VxPos
p112
aVcorrAns
p113
aVyPos
p114
asS'entries'
p115
(lp116
(dp117
g31
I3
sg24
V
sg16
F0.83820509910583496
sg25
V
sg26
g30
sg23
g12
sg15
S'space'
p118
sg32
g33
sg34
g35
sa(dp119
g24
V
sg18
I0
sS'ReDoLoop.thisRepN'
p120
I0
sg19
F0.41744899749755859
sS'ReDoLoop.thisIndex'
p121
g27
(g87
S'\x00\x00\x00\x00'
tRp122
sg26
g30
sg32
g33
sS'ReDoLoop.thisTrial'
p123
Nsg31
I3
sg113
Vy
sS'practiceTrials.thisRepN'
p124
I0
sS'ReDoLoop.thisN'
p125
I0
sS'ReDoLoop.thisTrialN'
p126
I0
sg17
S'h'
sg112
I200
sg34
g35
sg25
V
sS'practiceTrials.thisN'
p127
I0
sg114
I200
sg23
g12
sS'practiceTrials.thisTrialN'
p128
I0
sS'practiceTrials.thisIndex'
p129
g27
(g87
S'\x00\x00\x00\x00'
tRp130
sa(dp131
g31
I3
sg112
I200
sg24
V
sg26
g30
sg25
V
sS'practiceTrials.thisN'
p132
I0
sg114
I200
sg32
g33
sg23
g12
sS'practiceTrials.thisTrialN'
p133
I0
sS'practiceTrials.thisIndex'
p134
g130
sS'practiceTrials.thisRepN'
p135
I0
sg34
g35
sg113
Vy
sa(dp136
g24
V
sg18
I0
sS'ReDoLoop.thisRepN'
p137
I0
sg19
F0.68444514274597168
sS'ReDoLoop.thisIndex'
p138
g27
(g87
S'\x00\x00\x00\x00'
tRp139
sg26
g30
sg32
g33
sS'ReDoLoop.thisTrial'
p140
Nsg31
I3
sg113
Vt
sS'practiceTrials.thisRepN'
p141
I0
sS'ReDoLoop.thisN'
p142
I0
sS'ReDoLoop.thisTrialN'
p143
I0
sg17
S'g'
sg112
I-200
sg34
g35
sg25
V
sS'practiceTrials.thisN'
p144
I1
sg114
I200
sg23
g12
sS'practiceTrials.thisTrialN'
p145
I1
sS'practiceTrials.thisIndex'
p146
g27
(g87
S'\x01\x00\x00\x00'
tRp147
sa(dp148
g24
V
sg18
I0
sS'ReDoLoop.thisRepN'
p149
I1
sg19
F0.56784892082214355
sS'ReDoLoop.thisIndex'
p150
g27
(g87
S'\x00\x00\x00\x00'
tRp151
sg26
g30
sg32
g33
sS'ReDoLoop.thisTrial'
p152
Nsg31
I3
sg113
Vt
sS'practiceTrials.thisRepN'
p153
I0
sS'ReDoLoop.thisN'
p154
I1
sS'ReDoLoop.thisTrialN'
p155
I0
sg17
S'g'
sg112
I-200
sg34
g35
sg25
V
sS'practiceTrials.thisN'
p156
I1
sg114
I200
sg23
g12
sS'practiceTrials.thisTrialN'
p157
I1
sS'practiceTrials.thisIndex'
p158
g147
sa(dp159
g31
I3
sg112
I-200
sg24
V
sg26
g30
sg25
V
sS'practiceTrials.thisN'
p160
I1
sg114
I200
sg32
g33
sg23
g12
sS'practiceTrials.thisTrialN'
p161
I1
sS'practiceTrials.thisIndex'
p162
g147
sS'practiceTrials.thisRepN'
p163
I0
sg34
g35
sg113
Vt
sa(dp164
g24
V
sg18
I1
sS'ReDoLoop.thisRepN'
p165
I0
sg19
F0.43455386161804199
sS'ReDoLoop.thisIndex'
p166
g27
(g87
S'\x00\x00\x00\x00'
tRp167
sg26
g30
sg32
g33
sS'ReDoLoop.thisTrial'
p168
Nsg31
I3
sg113
Vh
sS'practiceTrials.thisRepN'
p169
I0
sS'ReDoLoop.thisN'
p170
I0
sS'ReDoLoop.thisTrialN'
p171
I0
sg17
S'h'
sg112
I200
sg34
g35
sg25
V
sS'practiceTrials.thisN'
p172
I2
sg114
I-200
sg23
g12
sS'practiceTrials.thisTrialN'
p173
I2
sS'practiceTrials.thisIndex'
p174
g27
(g87
S'\x02\x00\x00\x00'
tRp175
sa(dp176
g24
V
sg18
I1
sS'ReDoLoop.thisRepN'
p177
I1
sg19
F0.65134096145629883
sS'ReDoLoop.thisIndex'
p178
g27
(g87
S'\x00\x00\x00\x00'
tRp179
sg26
g30
sg32
g33
sS'ReDoLoop.thisTrial'
p180
Nsg31
I3
sg113
Vh
sS'practiceTrials.thisRepN'
p181
I0
sS'ReDoLoop.thisN'
p182
I1
sS'ReDoLoop.thisTrialN'
p183
I0
sg17
S'h'
sg112
I200
sg34
g35
sg25
V
sS'practiceTrials.thisN'
p184
I2
sg114
I-200
sg23
g12
sS'practiceTrials.thisTrialN'
p185
I2
sS'practiceTrials.thisIndex'
p186
g175
sa(dp187
g24
V
sg18
I1
sS'ReDoLoop.thisRepN'
p188
I2
sg19
F0.53425192832946777
sS'ReDoLoop.thisIndex'
p189
g27
(g87
S'\x00\x00\x00\x00'
tRp190
sg26
g30
sg32
g33
sS'ReDoLoop.thisTrial'
p191
Nsg31
I3
sg113
Vh
sS'practiceTrials.thisRepN'
p192
I0
sS'ReDoLoop.thisN'
p193
I2
sS'ReDoLoop.thisTrialN'
p194
I0
sg17
S'h'
sg112
I200
sg34
g35
sg25
V
sS'practiceTrials.thisN'
p195
I2
sg114
I-200
sg23
g12
sS'practiceTrials.thisTrialN'
p196
I2
sS'practiceTrials.thisIndex'
p197
g175
sa(dp198
g24
V
sg18
I1
sS'ReDoLoop.thisRepN'
p199
I3
sg19
F0.6678929328918457
sS'ReDoLoop.thisIndex'
p200
g27
(g87
S'\x00\x00\x00\x00'
tRp201
sg26
g30
sg32
g33
sS'ReDoLoop.thisTrial'
p202
Nsg31
I3
sg113
Vh
sS'practiceTrials.thisRepN'
p203
I0
sS'ReDoLoop.thisN'
p204
I3
sS'ReDoLoop.thisTrialN'
p205
I0
sg17
S'h'
sg112
I200
sg34
g35
sg25
V
sS'practiceTrials.thisN'
p206
I2
sg114
I-200
sg23
g12
sS'practiceTrials.thisTrialN'
p207
I2
sS'practiceTrials.thisIndex'
p208
g175
sa(dp209
g31
I3
sg112
I200
sg24
V
sg26
g30
sg25
V
sS'practiceTrials.thisN'
p210
I2
sg114
I-200
sg32
g33
sg23
g12
sS'practiceTrials.thisTrialN'
p211
I2
sS'practiceTrials.thisIndex'
p212
g175
sS'practiceTrials.thisRepN'
p213
I0
sg34
g35
sg113
Vh
sa(dp214
g24
V
sg18
I1
sS'ReDoLoop.thisRepN'
p215
I0
sg19
F0.60116314888000488
sS'ReDoLoop.thisIndex'
p216
g27
(g87
S'\x00\x00\x00\x00'
tRp217
sg26
g30
sg32
g33
sS'ReDoLoop.thisTrial'
p218
Nsg31
I3
sg113
Vg
sS'practiceTrials.thisRepN'
p219
I0
sS'ReDoLoop.thisN'
p220
I0
sS'ReDoLoop.thisTrialN'
p221
I0
sg17
S'g'
sg112
I-200
sg34
g35
sg25
V
sS'practiceTrials.thisN'
p222
I3
sg114
I-200
sg23
g12
sS'practiceTrials.thisTrialN'
p223
I3
sS'practiceTrials.thisIndex'
p224
g27
(g87
S'\x03\x00\x00\x00'
tRp225
sa(dp226
g31
I3
sg112
I-200
sg24
V
sg26
g30
sg25
V
sS'practiceTrials.thisN'
p227
I3
sg114
I-200
sg32
g33
sg23
g12
sS'practiceTrials.thisTrialN'
p228
I3
sS'practiceTrials.thisIndex'
p229
g225
sS'practiceTrials.thisRepN'
p230
I0
sg34
g35
sg113
Vg
sa(dp231
g31
I3
sg17
S'h'
sg47
I200
sg24
V
sg18
I0
sg19
F0.61758899688720703
sg25
V
sg26
g30
sg49
I200
sS'trials.thisN'
p232
I0
sg23
g12
sS'trials.thisTrialN'
p233
I0
sg48
Vy
sS'trials.thisRepN'
p234
I0
sg32
g33
sg34
g35
sS'trials.thisIndex'
p235
g27
(g87
S'\x00\x00\x00\x00'
tRp236
sa(dp237
g31
I3
sg17
S'g'
sg47
I-200
sg24
V
sg18
I0
sg19
F0.81784987449645996
sg25
V
sg26
g30
sg49
I200
sS'trials.thisN'
p238
I1
sg23
g12
sS'trials.thisTrialN'
p239
I1
sg48
Vt
sS'trials.thisRepN'
p240
I0
sg32
g33
sg34
g35
sS'trials.thisIndex'
p241
g27
(g87
S'\x01\x00\x00\x00'
tRp242
sa(dp243
g31
I3
sg17
S'y'
sg47
I200
sg24
V
sg18
I0
sg19
F0.63471603393554688
sg25
V
sg26
g30
sg49
I-200
sS'trials.thisN'
p244
I2
sg23
g12
sS'trials.thisTrialN'
p245
I2
sg48
Vh
sS'trials.thisRepN'
p246
I0
sg32
g33
sg34
g35
sS'trials.thisIndex'
p247
g27
(g87
S'\x02\x00\x00\x00'
tRp248
sa(dp249
g31
I3
sg17
S't'
sg47
I-200
sg24
V
sg18
I0
sg19
F0.66762399673461914
sg25
V
sg26
g30
sg49
I-200
sS'trials.thisN'
p250
I3
sg23
g12
sS'trials.thisTrialN'
p251
I3
sg48
Vg
sS'trials.thisRepN'
p252
I0
sg32
g33
sg34
g35
sS'trials.thisIndex'
p253
g27
(g87
S'\x03\x00\x00\x00'
tRp254
sa(dp255
g31
I3
sg17
S't'
sg47
I-200
sg24
V
sg18
I0
sg19
F0.61796283721923828
sg25
V
sg26
g30
sg49
I-200
sS'trials.thisN'
p256
I4
sg23
g12
sS'trials.thisTrialN'
p257
I0
sg48
Vg
sS'trials.thisRepN'
p258
I1
sg32
g33
sg34
g35
sS'trials.thisIndex'
p259
g27
(g87
S'\x03\x00\x00\x00'
tRp260
sa(dp261
g31
I3
sg17
S'y'
sg47
I200
sg24
V
sg18
I0
sg19
F0.60130119323730469
sg25
V
sg26
g30
sg49
I-200
sS'trials.thisN'
p262
I5
sg23
g12
sS'trials.thisTrialN'
p263
I1
sg48
Vh
sS'trials.thisRepN'
p264
I1
sg32
g33
sg34
g35
sS'trials.thisIndex'
p265
g27
(g87
S'\x02\x00\x00\x00'
tRp266
sa(dp267
g31
I3
sg17
S'g'
sg47
I-200
sg24
V
sg18
I0
sg19
F0.73509383201599121
sg25
V
sg26
g30
sg49
I200
sS'trials.thisN'
p268
I6
sg23
g12
sS'trials.thisTrialN'
p269
I2
sg48
Vt
sS'trials.thisRepN'
p270
I1
sg32
g33
sg34
g35
sS'trials.thisIndex'
p271
g27
(g87
S'\x01\x00\x00\x00'
tRp272
sa(dp273
g31
I3
sg17
S'y'
sg47
I200
sg24
V
sg18
I1
sg19
F0.41795778274536133
sg25
V
sg26
g30
sg49
I200
sS'trials.thisN'
p274
I7
sg23
g12
sS'trials.thisTrialN'
p275
I3
sg48
Vy
sS'trials.thisRepN'
p276
I1
sg32
g33
sg34
g35
sS'trials.thisIndex'
p277
g27
(g87
S'\x00\x00\x00\x00'
tRp278
sa(dp279
g31
I3
sg17
S'y'
sg47
I200
sg24
V
sg18
I1
sg19
F0.46790790557861328
sg25
V
sg26
g30
sg49
I200
sS'trials.thisN'
p280
I8
sg23
g12
sS'trials.thisTrialN'
p281
I0
sg48
Vy
sS'trials.thisRepN'
p282
I2
sg32
g33
sg34
g35
sS'trials.thisIndex'
p283
g27
(g87
S'\x00\x00\x00\x00'
tRp284
sa(dp285
g31
I3
sg17
S't'
sg47
I-200
sg24
V
sg18
I1
sg19
F0.63512897491455078
sg25
V
sg26
g30
sg49
I200
sS'trials.thisN'
p286
I9
sg23
g12
sS'trials.thisTrialN'
p287
I1
sg48
Vt
sS'trials.thisRepN'
p288
I2
sg32
g33
sg34
g35
sS'trials.thisIndex'
p289
g27
(g87
S'\x01\x00\x00\x00'
tRp290
sa(dp291
g31
I3
sg17
S'h'
sg47
I200
sg24
V
sg18
I1
sg19
F0.56749200820922852
sg25
V
sg26
g30
sg49
I-200
sS'trials.thisN'
p292
I10
sg23
g12
sS'trials.thisTrialN'
p293
I2
sg48
Vh
sS'trials.thisRepN'
p294
I2
sg32
g33
sg34
g35
sS'trials.thisIndex'
p295
g27
(g87
S'\x02\x00\x00\x00'
tRp296
sa(dp297
g31
I3
sg17
S't'
sg47
I-200
sg24
V
sg18
I0
sg19
F0.50139784812927246
sg25
V
sg26
g30
sg49
I-200
sS'trials.thisN'
p298
I11
sg23
g12
sS'trials.thisTrialN'
p299
I3
sg48
Vg
sS'trials.thisRepN'
p300
I2
sg32
g33
sg34
g35
sS'trials.thisIndex'
p301
g27
(g87
S'\x03\x00\x00\x00'
tRp302
sa(dp303
g31
I3
sg17
S'g'
sg47
I-200
sg24
V
sg18
I0
sg19
F0.83526802062988281
sg25
V
sg26
g30
sg49
I200
sS'trials.thisN'
p304
I12
sg23
g12
sS'trials.thisTrialN'
p305
I0
sg48
Vt
sS'trials.thisRepN'
p306
I3
sg32
g33
sg34
g35
sS'trials.thisIndex'
p307
g27
(g87
S'\x01\x00\x00\x00'
tRp308
sa(dp309
g31
I3
sg17
S'y'
sg47
I200
sg24
V
sg18
I1
sg19
F0.45100283622741699
sg25
V
sg26
g30
sg49
I200
sS'trials.thisN'
p310
I13
sg23
g12
sS'trials.thisTrialN'
p311
I1
sg48
Vy
sS'trials.thisRepN'
p312
I3
sg32
g33
sg34
g35
sS'trials.thisIndex'
p313
g27
(g87
S'\x00\x00\x00\x00'
tRp314
sa(dp315
g31
I3
sg17
S'g'
sg47
I-200
sg24
V
sg18
I1
sg19
F0.53415894508361816
sg25
V
sg26
g30
sg49
I-200
sS'trials.thisN'
p316
I14
sg23
g12
sS'trials.thisTrialN'
p317
I2
sg48
Vg
sS'trials.thisRepN'
p318
I3
sg32
g33
sg34
g35
sS'trials.thisIndex'
p319
g27
(g87
S'\x03\x00\x00\x00'
tRp320
sa(dp321
g31
I3
sg17
S'y'
sg47
I200
sg24
V
sg18
I0
sg19
F0.61840701103210449
sg25
V
sg26
g30
sg49
I-200
sS'trials.thisN'
p322
I15
sg23
g12
sS'trials.thisTrialN'
p323
I3
sg48
Vh
sS'trials.thisRepN'
p324
I3
sg32
g33
sg34
g35
sS'trials.thisIndex'
p325
g27
(g87
S'\x02\x00\x00\x00'
tRp326
sa(dp327
g31
I3
sS'trials.thisIndex'
p328
g27
(g87
S'\x01\x00\x00\x00'
tRp329
sg47
I-200
sg24
V
sg17
NsS'trials.thisRepN'
p330
I4
sg25
V
sg18
I0
sg26
g30
sg49
I200
sS'trials.thisN'
p331
I16
sg23
g12
sS'trials.thisTrialN'
p332
I0
sg48
Vt
sg32
g33
sg34
g35
sa(dp333
g31
I3
sg17
S'g'
sg47
I-200
sg24
V
sg18
I1
sg19
F0.56782698631286621
sg25
V
sg26
g30
sg49
I-200
sS'trials.thisN'
p334
I17
sg23
g12
sS'trials.thisTrialN'
p335
I1
sg48
Vg
sS'trials.thisRepN'
p336
I4
sg32
g33
sg34
g35
sS'trials.thisIndex'
p337
g27
(g87
S'\x03\x00\x00\x00'
tRp338
sa(dp339
g31
I3
sg17
S'y'
sg47
I200
sg24
V
sg18
I1
sg19
F0.7012941837310791
sg25
V
sg26
g30
sg49
I200
sS'trials.thisN'
p340
I18
sg23
g12
sS'trials.thisTrialN'
p341
I2
sg48
Vy
sS'trials.thisRepN'
p342
I4
sg32
g33
sg34
g35
sS'trials.thisIndex'
p343
g27
(g87
S'\x00\x00\x00\x00'
tRp344
sa(dp345
g31
I3
sg17
S'h'
sg47
I200
sg24
V
sg18
I1
sg19
F0.95167016983032227
sg25
V
sg26
g30
sg49
I-200
sS'trials.thisN'
p346
I19
sg23
g12
sS'trials.thisTrialN'
p347
I3
sg48
Vh
sS'trials.thisRepN'
p348
I4
sg32
g33
sg34
g35
sS'trials.thisIndex'
p349
g27
(g87
S'\x02\x00\x00\x00'
tRp350
sa(dp351
g31
I3
sg17
S'h'
sg47
I200
sg24
V
sg18
I1
sg19
F0.63503885269165039
sg25
V
sg26
g30
sg49
I-200
sS'trials.thisN'
p352
I20
sg23
g12
sS'trials.thisTrialN'
p353
I0
sg48
Vh
sS'trials.thisRepN'
p354
I5
sg32
g33
sg34
g35
sS'trials.thisIndex'
p355
g27
(g87
S'\x02\x00\x00\x00'
tRp356
sa(dp357
g31
I3
sg17
S't'
sg47
I-200
sg24
V
sg18
I1
sg19
F0.46756100654602051
sg25
V
sg26
g30
sg49
I200
sS'trials.thisN'
p358
I21
sg23
g12
sS'trials.thisTrialN'
p359
I1
sg48
Vt
sS'trials.thisRepN'
p360
I5
sg32
g33
sg34
g35
sS'trials.thisIndex'
p361
g27
(g87
S'\x01\x00\x00\x00'
tRp362
sa(dp363
g31
I3
sg17
S'y'
sg47
I200
sg24
V
sg18
I1
sg19
F0.40077900886535645
sg25
V
sg26
g30
sg49
I200
sS'trials.thisN'
p364
I22
sg23
g12
sS'trials.thisTrialN'
p365
I2
sg48
Vy
sS'trials.thisRepN'
p366
I5
sg32
g33
sg34
g35
sS'trials.thisIndex'
p367
g27
(g87
S'\x00\x00\x00\x00'
tRp368
sa(dp369
g31
I3
sg17
S'g'
sg47
I-200
sg24
V
sg18
I1
sg19
F0.55122017860412598
sg25
V
sg26
g30
sg49
I-200
sS'trials.thisN'
p370
I23
sg23
g12
sS'trials.thisTrialN'
p371
I3
sg48
Vg
sS'trials.thisRepN'
p372
I5
sg32
g33
sg34
g35
sS'trials.thisIndex'
p373
g27
(g87
S'\x03\x00\x00\x00'
tRp374
sa(dp375
g31
I3
sg17
S't'
sg47
I-200
sg24
V
sg18
I1
sg19
F0.4840400218963623
sg25
V
sg26
g30
sg49
I200
sS'trials.thisN'
p376
I24
sg23
g12
sS'trials.thisTrialN'
p377
I0
sg48
Vt
sS'trials.thisRepN'
p378
I6
sg32
g33
sg34
g35
sS'trials.thisIndex'
p379
g27
(g87
S'\x01\x00\x00\x00'
tRp380
sa(dp381
g31
I3
sg17
S'h'
sg47
I200
sg24
V
sg18
I1
sg19
F0.55118203163146973
sg25
V
sg26
g30
sg49
I-200
sS'trials.thisN'
p382
I25
sg23
g12
sS'trials.thisTrialN'
p383
I1
sg48
Vh
sS'trials.thisRepN'
p384
I6
sg32
g33
sg34
g35
sS'trials.thisIndex'
p385
g27
(g87
S'\x02\x00\x00\x00'
tRp386
sa(dp387
g31
I3
sg17
S'y'
sg47
I200
sg24
V
sg18
I1
sg19
F0.60137391090393066
sg25
V
sg26
g30
sg49
I200
sS'trials.thisN'
p388
I26
sg23
g12
sS'trials.thisTrialN'
p389
I2
sg48
Vy
sS'trials.thisRepN'
p390
I6
sg32
g33
sg34
g35
sS'trials.thisIndex'
p391
g27
(g87
S'\x00\x00\x00\x00'
tRp392
sa(dp393
g31
I3
sg17
S'g'
sg47
I-200
sg24
V
sg18
I1
sg19
F0.51789712905883789
sg25
V
sg26
g30
sg49
I-200
sS'trials.thisN'
p394
I27
sg23
g12
sS'trials.thisTrialN'
p395
I3
sg48
Vg
sS'trials.thisRepN'
p396
I6
sg32
g33
sg34
g35
sS'trials.thisIndex'
p397
g27
(g87
S'\x03\x00\x00\x00'
tRp398
sa(dp399
g31
I3
sg17
S'h'
sg47
I200
sg24
V
sg18
I1
sg19
F0.48415803909301758
sg25
V
sg26
g30
sg49
I-200
sS'trials.thisN'
p400
I28
sg23
g12
sS'trials.thisTrialN'
p401
I0
sg48
Vh
sS'trials.thisRepN'
p402
I7
sg32
g33
sg34
g35
sS'trials.thisIndex'
p403
g27
(g87
S'\x02\x00\x00\x00'
tRp404
sa(dp405
g31
I3
sg17
S'g'
sg47
I-200
sg24
V
sg18
I1
sg19
F0.48466682434082031
sg25
V
sg26
g30
sg49
I-200
sS'trials.thisN'
p406
I29
sg23
g12
sS'trials.thisTrialN'
p407
I1
sg48
Vg
sS'trials.thisRepN'
p408
I7
sg32
g33
sg34
g35
sS'trials.thisIndex'
p409
g27
(g87
S'\x03\x00\x00\x00'
tRp410
sa(dp411
g31
I3
sg17
S'y'
sg47
I200
sg24
V
sg18
I1
sg19
F0.56793594360351562
sg25
V
sg26
g30
sg49
I200
sS'trials.thisN'
p412
I30
sg23
g12
sS'trials.thisTrialN'
p413
I2
sg48
Vy
sS'trials.thisRepN'
p414
I7
sg32
g33
sg34
g35
sS'trials.thisIndex'
p415
g27
(g87
S'\x00\x00\x00\x00'
tRp416
sa(dp417
g31
I3
sg17
S'g'
sg47
I-200
sg24
V
sg18
I0
sg19
F0.6349029541015625
sg25
V
sg26
g30
sg49
I200
sS'trials.thisN'
p418
I31
sg23
g12
sS'trials.thisTrialN'
p419
I3
sg48
Vt
sS'trials.thisRepN'
p420
I7
sg32
g33
sg34
g35
sS'trials.thisIndex'
p421
g27
(g87
S'\x01\x00\x00\x00'
tRp422
sa(dp423
g31
I3
sg17
S'h'
sg47
I200
sg24
V
sg18
I0
sg19
F0.68492603302001953
sg25
V
sg26
g30
sg49
I200
sS'trials.thisN'
p424
I32
sg23
g12
sS'trials.thisTrialN'
p425
I0
sg48
Vy
sS'trials.thisRepN'
p426
I8
sg32
g33
sg34
g35
sS'trials.thisIndex'
p427
g27
(g87
S'\x00\x00\x00\x00'
tRp428
sa(dp429
g31
I3
sg17
S'h'
sg47
I200
sg24
V
sg18
I1
sg19
F0.65147304534912109
sg25
V
sg26
g30
sg49
I-200
sS'trials.thisN'
p430
I33
sg23
g12
sS'trials.thisTrialN'
p431
I1
sg48
Vh
sS'trials.thisRepN'
p432
I8
sg32
g33
sg34
g35
sS'trials.thisIndex'
p433
g27
(g87
S'\x02\x00\x00\x00'
tRp434
sa(dp435
g31
I3
sg17
S't'
sg47
I-200
sg24
V
sg18
I1
sg19
F0.71809291839599609
sg25
V
sg26
g30
sg49
I200
sS'trials.thisN'
p436
I34
sg23
g12
sS'trials.thisTrialN'
p437
I2
sg48
Vt
sS'trials.thisRepN'
p438
I8
sg32
g33
sg34
g35
sS'trials.thisIndex'
p439
g27
(g87
S'\x01\x00\x00\x00'
tRp440
sa(dp441
g31
I3
sg17
S'g'
sg47
I-200
sg24
V
sg18
I1
sg19
F0.66826605796813965
sg25
V
sg26
g30
sg49
I-200
sS'trials.thisN'
p442
I35
sg23
g12
sS'trials.thisTrialN'
p443
I3
sg48
Vg
sS'trials.thisRepN'
p444
I8
sg32
g33
sg34
g35
sS'trials.thisIndex'
p445
g27
(g87
S'\x03\x00\x00\x00'
tRp446
sa(dp447
g31
I3
sg17
S'g'
sg47
I-200
sg24
V
sg18
I1
sg19
F0.55141592025756836
sg25
V
sg26
g30
sg49
I-200
sS'trials.thisN'
p448
I36
sg23
g12
sS'trials.thisTrialN'
p449
I0
sg48
Vg
sS'trials.thisRepN'
p450
I9
sg32
g33
sg34
g35
sS'trials.thisIndex'
p451
g27
(g87
S'\x03\x00\x00\x00'
tRp452
sasS'loops'
p453
(lp454
g1
(g38
g3
NtRp455
(dp456
g41
V<PsychoPy2experiment version="1.82.01" encoding="utf-8">\u000a  <Settings>\u000a    <Param name="Show mouse" val="False" valType="bool" updates="None"/>\u000a    <Param name="Data filename" val="u'data' + os.sep + '%s_%s' %(expInfo['participant'], expInfo['date'])" valType="code" updates="None"/>\u000a    <Param name="Monitor" val="testMonitor" valType="str" updates="None"/>\u000a    <Param name="Enable Escape" val="True" valType="bool" updates="None"/>\u000a    <Param name="color" val="black" valType="str" updates="None"/>\u000a    <Param name="Window size (pixels)" val="[1680, 1050]" valType="code" updates="None"/>\u000a    <Param name="Full-screen window" val="True" valType="bool" updates="None"/>\u000a    <Param name="colorSpace" val="rgb" valType="str" updates="None"/>\u000a    <Param name="Experiment info" val="{'participant':'', 'gender (m/f)':'', 'age':'', 'session':03}" valType="code" updates="None"/>\u000a    <Param name="Save csv file" val="False" valType="bool" updates="None"/>\u000a    <Param name="Show info dlg" val="True" valType="bool" updates="None"/>\u000a    <Param name="Save wide csv file" val="True" valType="bool" updates="None"/>\u000a    <Param name="Save psydat file" val="True" valType="bool" updates="None"/>\u000a    <Param name="expName" val="LearningTask" valType="str" updates="None"/>\u000a    <Param name="logging level" val="warning" valType="code" updates="None"/>\u000a    <Param name="blendMode" val="avg" valType="str" updates="None"/>\u000a    <Param name="Save excel file" val="True" valType="bool" updates="None"/>\u000a    <Param name="Units" val="use prefs" valType="str" updates="None"/>\u000a    <Param name="Save log file" val="True" valType="bool" updates="None"/>\u000a    <Param name="Screen" val="1" valType="num" updates="None"/>\u000a  </Settings>\u000a  <Routines>\u000a    <Routine name="trial">\u000a      <CodeComponent name="code_2">\u000a        <Param name="Begin Experiment" val="" valType="extendedCode" updates="constant"/>\u000a        <Param name="name" val="code_2" valType="code" updates="None"/>\u000a        <Param name="Begin Routine" val="import random&#10;&#10;Integers = [1, 2, 3, 4, 5, 6, 7, 8]&#10;&#10;if Redo == 1:&#10;    ConditionChoice = random.choice(Integers)&#10;    if ConditionChoice == 1:&#10;        CurrentStimulus = ConditionOne['fileName']&#10;    elif ConditionChoice == 2:&#10;        CurrentStimulus = ConditionTwo['fileName']&#10;    elif ConditionChoice == 3:&#10;        CurrentStimulus = ConditionThree['fileName']&#10;    elif ConditionChoice == 4:&#10;        CurrentStimulus = ConditionFour['fileName']&#10;    elif ConditionChoice == 5:&#10;        CurrentStimulus = ConditionFive['fileName']&#10;    elif ConditionChoice == 6:&#10;        CurrentStimulus = ConditionSix['fileName']&#10;    elif ConditionChoice == 7:&#10;        CurrentStimulus = ConditionSeven['fileName']&#10;    elif ConditionChoice == 8:&#10;        CurrentStimulus = ConditionEight['fileName']" valType="extendedCode" updates="constant"/>\u000a        <Param name="End Routine" val="" valType="extendedCode" updates="constant"/>\u000a        <Param name="End Experiment" val="" valType="extendedCode" updates="constant"/>\u000a        <Param name="Each Frame" val="" valType="extendedCode" updates="constant"/>\u000a      </CodeComponent>\u000a      <KeyboardComponent name="resp">\u000a        <Param name="correctAns" val="$corrAns" valType="str" updates="constant"/>\u000a        <Param name="storeCorrect" val="True" valType="bool" updates="constant"/>\u000a        <Param name="name" val="resp" valType="code" updates="None"/>\u000a        <Param name="stopVal" val="1" valType="code" updates="constant"/>\u000a        <Param name="durationEstim" val="" valType="code" updates="None"/>\u000a        <Param name="forceEndRoutine" val="True" valType="bool" updates="constant"/>\u000a        <Param name="startEstim" val="" valType="code" updates="None"/>\u000a        <Param name="discard previous" val="True" valType="bool" updates="constant"/>\u000a        <Param name="startType" val="time (s)" valType="str" updates="None"/>\u000a        <Param name="allowedKeys" val="'t', 'y', 'g', 'h'" valType="code" updates="constant"/>\u000a        <Param name="stopType" val="duration (s)" valType="str" updates="None"/>\u000a        <Param name="startVal" val=".5" valType="code" updates="None"/>\u000a        <Param name="store" val="last key" valType="str" updates="constant"/>\u000a      </KeyboardComponent>\u000a      <TextComponent name="text">\u000a        <Param name="opacity" val="1" valType="code" updates="constant"/>\u000a        <Param name="colorSpace" val="rgb" valType="str" updates="constant"/>\u000a        <Param name="name" val="text" valType="code" updates="None"/>\u000a        <Param name="wrapWidth" val="" valType="code" updates="constant"/>\u000a        <Param name="color" val="white" valType="str" updates="constant"/>\u000a        <Param name="text" val="+" valType="str" updates="constant"/>\u000a        <Param name="stopVal" val="1.5" valType="code" updates="constant"/>\u000a        <Param name="durationEstim" val="" valType="code" updates="None"/>\u000a        <Param name="pos" val="[0, 0]" valType="code" updates="constant"/>\u000a        <Param name="flip" val="" valType="str" updates="constant"/>\u000a        <Param name="startEstim" val="" valType="code" updates="None"/>\u000a        <Param name="units" val="from exp settings" valType="str" updates="None"/>\u000a        <Param name="startType" val="time (s)" valType="str" updates="None"/>\u000a        <Param name="ori" val="0" valType="code" updates="constant"/>\u000a        <Param name="stopType" val="duration (s)" valType="str" updates="None"/>\u000a        <Param name="startVal" val="0.0" valType="code" updates="None"/>\u000a        <Param name="font" val="Arial" valType="str" updates="constant"/>\u000a        <Param name="letterHeight" val="1" valType="code" updates="constant"/>\u000a      </TextComponent>\u000a      <ImageComponent name="image_2">\u000a        <Param name="opacity" val="1" valType="code" updates="constant"/>\u000a        <Param name="flipVert" val="False" valType="bool" updates="constant"/>\u000a        <Param name="colorSpace" val="rgb" valType="str" updates="constant"/>\u000a        <Param name="name" val="image_2" valType="code" updates="None"/>\u000a        <Param name="color" val="$[1,1,1]" valType="str" updates="constant"/>\u000a        <Param name="stopVal" val="1.0" valType="code" updates="constant"/>\u000a        <Param name="durationEstim" val="" valType="code" updates="None"/>\u000a        <Param name="mask" val="None" valType="str" updates="constant"/>\u000a        <Param name="pos" val="$[xPos, yPos]" valType="code" updates="set every repeat"/>\u000a        <Param name="interpolate" val="linear" valType="str" updates="constant"/>\u000a        <Param name="startEstim" val="" valType="code" updates="None"/>\u000a        <Param name="units" val="pix" valType="str" updates="None"/>\u000a        <Param name="texture resolution" val="128" valType="code" updates="constant"/>\u000a        <Param name="startType" val="time (s)" valType="str" updates="None"/>\u000a        <Param name="ori" val="0" valType="code" updates="constant"/>\u000a        <Param name="stopType" val="duration (s)" valType="str" updates="None"/>\u000a        <Param name="startVal" val=".5" valType="code" updates="None"/>\u000a        <Param name="flipHoriz" val="False" valType="bool" updates="constant"/>\u000a        <Param name="image" val="$CurrentStimulus" valType="str" updates="set every repeat"/>\u000a        <Param name="size" val="[101, 101]" valType="code" updates="constant"/>\u000a      </ImageComponent>\u000a    </Routine>\u000a    <Routine name="StimSetup">\u000a      <CodeComponent name="code">\u000a        <Param name="Begin Experiment" val="import random&#10;Redo = 1&#10;colors = ['yellow', 'white', 'orange', 'magenta', 'green', 'gray', 'cyan', 'blue']&#10;shapes = ['triangle', 'square', 'line', 'invertedtriangle', 'hexagon', 'diamond', 'cross', 'circle']&#10;rewards = [0.5, 1, 2, 4] * 2&#10;conditions = ['go', 'go', 'go', 'go', 'stop', 'stop', 'stop', 'stop']&#10;trialDetailsList = []&#10;&#10;shuffle(colors)&#10;shuffle(shapes)&#10;&#10;for i, color in enumerate(colors): # cycle through each color and keep track of an index number&#10;    trialDetails = {} # a dictionary of key-value pairs&#10;    trialDetails['fileName'] = shapes[i] + color + '.gif'&#10;    trialDetails['reward'] = rewards[i]&#10;    trialDetails['condition'] = conditions[i]&#10;    trialDetailsList.append(trialDetails)&#10;&#10;shuffle(trialDetailsList) # do this now to ensure that order of presentation of rewards and conditions is also shuffled&#10;&#10;ConditionOne = trialDetailsList[0]&#10;ConditionTwo = trialDetailsList[1]&#10;ConditionThree = trialDetailsList[2]&#10;ConditionFour = trialDetailsList[3]&#10;ConditionFive = trialDetailsList[4]&#10;ConditionSix = trialDetailsList[5]&#10;ConditionSeven = trialDetailsList[6]&#10;ConditionEight = trialDetailsList[7]" valType="extendedCode" updates="constant"/>\u000a        <Param name="name" val="code" valType="code" updates="None"/>\u000a        <Param name="Begin Routine" val="" valType="extendedCode" updates="constant"/>\u000a        <Param name="End Routine" val="" valType="extendedCode" updates="constant"/>\u000a        <Param name="End Experiment" val="" valType="extendedCode" updates="constant"/>\u000a        <Param name="Each Frame" val="" valType="extendedCode" updates="constant"/>\u000a      </CodeComponent>\u000a    </Routine>\u000a    <Routine name="instrMain">\u000a      <TextComponent name="instr2">\u000a        <Param name="opacity" val="1" valType="code" updates="constant"/>\u000a        <Param name="colorSpace" val="rgb" valType="str" updates="constant"/>\u000a        <Param name="name" val="instr2" valType="code" updates="constant"/>\u000a        <Param name="wrapWidth" val="" valType="code" updates="constant"/>\u000a        <Param name="color" val="white" valType="str" updates="constant"/>\u000a        <Param name="text" val="OK, ready to start the main experiment?&#10;&#10;Remember, press;&#10; - 'S' if the SMALL letters are S&#10; - 'H' if the SMALL letters are H&#10;&#10;Try to respond as quickly and as accurately as possible.&#10;&#10;When you are ready to proceed press any key." valType="str" updates="constant"/>\u000a        <Param name="stopVal" val="" valType="code" updates="constant"/>\u000a        <Param name="durationEstim" val="" valType="code" updates="None"/>\u000a        <Param name="pos" val="[0, 0]" valType="code" updates="constant"/>\u000a        <Param name="flip" val="" valType="str" updates="constant"/>\u000a        <Param name="startEstim" val="" valType="code" updates="None"/>\u000a        <Param name="units" val="from exp settings" valType="str" updates="None"/>\u000a        <Param name="startType" val="time (s)" valType="str" updates="None"/>\u000a        <Param name="ori" val="0" valType="code" updates="constant"/>\u000a        <Param name="stopType" val="duration (s)" valType="str" updates="None"/>\u000a        <Param name="startVal" val="0.0" valType="code" updates="None"/>\u000a        <Param name="font" val="Arial" valType="str" updates="constant"/>\u000a        <Param name="letterHeight" val="0.075" valType="code" updates="constant"/>\u000a      </TextComponent>\u000a      <KeyboardComponent name="ok2">\u000a        <Param name="correctAns" val="" valType="str" updates="constant"/>\u000a        <Param name="storeCorrect" val="False" valType="bool" updates="constant"/>\u000a        <Param name="name" val="ok2" valType="code" updates="None"/>\u000a        <Param name="stopVal" val="" valType="code" updates="constant"/>\u000a        <Param name="durationEstim" val="" valType="code" updates="None"/>\u000a        <Param name="forceEndRoutine" val="True" valType="bool" updates="constant"/>\u000a        <Param name="startEstim" val="" valType="code" updates="None"/>\u000a        <Param name="discard previous" val="True" valType="bool" updates="constant"/>\u000a        <Param name="startType" val="time (s)" valType="str" updates="None"/>\u000a        <Param name="allowedKeys" val="" valType="code" updates="constant"/>\u000a        <Param name="stopType" val="duration (s)" valType="str" updates="None"/>\u000a        <Param name="startVal" val="0.0" valType="code" updates="None"/>\u000a        <Param name="store" val="nothing" valType="str" updates="constant"/>\u000a      </KeyboardComponent>\u000a    </Routine>\u000a    <Routine name="feedback">\u000a      <CodeComponent name="message">\u000a        <Param name="Begin Experiment" val="#message variable just needs some value at start&#10;message=0" valType="extendedCode" updates="constant"/>\u000a        <Param name="name" val="message" valType="code" updates="None"/>\u000a        <Param name="Begin Routine" val="DisplayReward = random.randrange(1, 6)&#10;&#10;if resp.corr:#stored on last run routine&#10;    if DisplayReward == 1:&#10;            message = 0;&#10;    else:&#10;        if ConditionChoice == 1:&#10;            CurrentReward = ConditionOne['reward']&#10;            message = CurrentReward + (random.randrange(-25, 26)*.01)&#10;        elif ConditionChoice == 2:&#10;            CurrentReward = ConditionTwo['reward']&#10;            message = CurrentReward + (random.randrange(-25, 26)*.01)&#10;        elif ConditionChoice == 3:&#10;            CurrentReward = ConditionThree['reward']&#10;            message = CurrentReward + (random.randrange(-25, 26)*.01)&#10;        elif ConditionChoice == 4:&#10;            CurrentReward = ConditionFour['reward']&#10;            message = CurrentReward + (random.randrange(-25, 26)*.01)&#10;        elif ConditionChoice == 5:&#10;            CurrentReward = ConditionFive['reward']&#10;            message = CurrentReward + (random.randrange(-25, 26)*.01)&#10;        elif ConditionChoice == 6:&#10;            CurrentReward = ConditionSix['reward']&#10;            message = CurrentReward + (random.randrange(-25, 26)*.01)&#10;        elif ConditionChoice == 7:&#10;            CurrentReward = ConditionSeven['reward']&#10;            message = CurrentReward + (random.randrange(-25, 26)*.01)&#10;        elif ConditionChoice == 8:&#10;            CurrentReward = ConditionEight['reward']&#10;            message = CurrentReward + (random.randrange(-25, 26)*.01)&#10;elif resp.keys is None: #or len(key_resp.keys)&lt;1:&#10;#elif resp.rt == 0:&#10;    message =&quot;Too Slow&quot;&#10;else:&#10;  message=&quot;Wrong&quot;&#10;&#10;if resp.corr:#stored on last run routine&#10;    Redo = 1; &#10;else:&#10;    Redo = Redo + 1;&#10;&#10;#if DisplayReward == 1:&#10;#    message = 0;&#10;#else:&#10;#    message = CurrentReward + (random.randrange(-25, 26)*.01)&#10;&#10;#  message=&quot;Correct! RT=%.3f&quot; %(resp.rt)" valType="extendedCode" updates="constant"/>\u000a        <Param name="End Routine" val="" valType="extendedCode" updates="constant"/>\u000a        <Param name="End Experiment" val="" valType="extendedCode" updates="constant"/>\u000a        <Param name="Each Frame" val="" valType="extendedCode" updates="constant"/>\u000a      </CodeComponent>\u000a      <TextComponent name="feedback_2">\u000a        <Param name="opacity" val="1" valType="code" updates="constant"/>\u000a        <Param name="colorSpace" val="rgb" valType="str" updates="constant"/>\u000a        <Param name="name" val="feedback_2" valType="code" updates="constant"/>\u000a        <Param name="wrapWidth" val="" valType="code" updates="constant"/>\u000a        <Param name="color" val="$[1,1,1]" valType="str" updates="constant"/>\u000a        <Param name="text" val="$message" valType="str" updates="set every repeat"/>\u000a        <Param name="stopVal" val="1.0" valType="code" updates="constant"/>\u000a        <Param name="durationEstim" val="" valType="code" updates="None"/>\u000a        <Param name="pos" val="[0, 0]" valType="code" updates="constant"/>\u000a        <Param name="flip" val="" valType="str" updates="constant"/>\u000a        <Param name="startEstim" val="" valType="code" updates="None"/>\u000a        <Param name="units" val="from exp settings" valType="str" updates="None"/>\u000a        <Param name="startType" val="time (s)" valType="str" updates="None"/>\u000a        <Param name="ori" val="0" valType="code" updates="constant"/>\u000a        <Param name="stopType" val="duration (s)" valType="str" updates="None"/>\u000a        <Param name="startVal" val="0.0" valType="code" updates="None"/>\u000a        <Param name="font" val="Arial" valType="str" updates="constant"/>\u000a        <Param name="letterHeight" val="0.1" valType="code" updates="constant"/>\u000a      </TextComponent>\u000a    </Routine>\u000a    <Routine name="instrPractice">\u000a      <TextComponent name="instruct1">\u000a        <Param name="opacity" val="1" valType="code" updates="constant"/>\u000a        <Param name="colorSpace" val="rgb" valType="str" updates="constant"/>\u000a        <Param name="name" val="instruct1" valType="code" updates="constant"/>\u000a        <Param name="wrapWidth" val="" valType="code" updates="constant"/>\u000a        <Param name="color" val="white" valType="str" updates="constant"/>\u000a        <Param name="text" val="A shape stimulus will appear on every trial. &#10;&#10;If it appears in the upper right quadrant, PRESS Y&#10;&#10;If it appears in the lower right quadrant, PRESS H&#10;&#10;If it appears in the lower left quadrant, PRESS G&#10;&#10;If it appears in the upper left quadrant, PRESS T&#10;&#10;Press any key when you are ready to proceed. " valType="str" updates="constant"/>\u000a        <Param name="stopVal" val="" valType="code" updates="constant"/>\u000a        <Param name="durationEstim" val="" valType="code" updates="None"/>\u000a        <Param name="pos" val="[0, 0]" valType="code" updates="constant"/>\u000a        <Param name="flip" val="" valType="str" updates="constant"/>\u000a        <Param name="startEstim" val="" valType="code" updates="None"/>\u000a        <Param name="units" val="from exp settings" valType="str" updates="None"/>\u000a        <Param name="startType" val="time (s)" valType="str" updates="None"/>\u000a        <Param name="ori" val="0" valType="code" updates="constant"/>\u000a        <Param name="stopType" val="duration (s)" valType="str" updates="None"/>\u000a        <Param name="startVal" val="0.0" valType="code" updates="None"/>\u000a        <Param name="font" val="Arial" valType="str" updates="constant"/>\u000a        <Param name="letterHeight" val="0.07" valType="code" updates="constant"/>\u000a      </TextComponent>\u000a      <KeyboardComponent name="ok1">\u000a        <Param name="correctAns" val="" valType="str" updates="constant"/>\u000a        <Param name="storeCorrect" val="False" valType="bool" updates="constant"/>\u000a        <Param name="name" val="ok1" valType="code" updates="None"/>\u000a        <Param name="stopVal" val="" valType="code" updates="constant"/>\u000a        <Param name="durationEstim" val="" valType="code" updates="None"/>\u000a        <Param name="forceEndRoutine" val="True" valType="bool" updates="constant"/>\u000a        <Param name="startEstim" val="" valType="code" updates="None"/>\u000a        <Param name="discard previous" val="True" valType="bool" updates="constant"/>\u000a        <Param name="startType" val="time (s)" valType="str" updates="None"/>\u000a        <Param name="allowedKeys" val="" valType="code" updates="constant"/>\u000a        <Param name="stopType" val="duration (s)" valType="str" updates="None"/>\u000a        <Param name="startVal" val="0.0" valType="code" updates="None"/>\u000a        <Param name="store" val="last key" valType="str" updates="constant"/>\u000a      </KeyboardComponent>\u000a    </Routine>\u000a  </Routines>\u000a  <Flow>\u000a    <Routine name="StimSetup"/>\u000a    <Routine name="instrPractice"/>\u000a    <LoopInitiator loopType="TrialHandler" name="practiceTrials">\u000a      <Param name="conditionsFile" val="Trialtypes5.xlsx" valType="str" updates="None"/>\u000a      <Param name="name" val="practiceTrials" valType="code" updates="None"/>\u000a      <Param name="isTrials" val="True" valType="bool" updates="None"/>\u000a      <Param name="random seed" val="" valType="code" updates="None"/>\u000a      <Param name="loopType" val="random" valType="str" updates="None"/>\u000a      <Param name="nReps" val="1" valType="num" updates="None"/>\u000a      <Param name="endPoints" val="[1, 2]" valType="num" updates="None"/>\u000a      <Param name="conditions" val="[{u'xPos': 200, u'corrAns': u'y', u'yPos': 200}, {u'xPos': -200, u'corrAns': u't', u'yPos': 200}, {u'xPos': 200, u'corrAns': u'h', u'yPos': -200}, {u'xPos': -200, u'corrAns': u'g', u'yPos': -200}]" valType="str" updates="None"/>\u000a      <Param name="Selected rows" val="" valType="str" updates="None"/>\u000a    </LoopInitiator>\u000a    <LoopInitiator loopType="TrialHandler" name="ReDoLoop">\u000a      <Param name="conditionsFile" val="" valType="str" updates="None"/>\u000a      <Param name="name" val="ReDoLoop" valType="code" updates="None"/>\u000a      <Param name="isTrials" val="True" valType="bool" updates="None"/>\u000a      <Param name="random seed" val="" valType="code" updates="None"/>\u000a      <Param name="loopType" val="random" valType="str" updates="None"/>\u000a      <Param name="nReps" val="$Redo" valType="code" updates="None"/>\u000a      <Param name="endPoints" val="[0, 1]" valType="num" updates="None"/>\u000a      <Param name="conditions" val="None" valType="str" updates="None"/>\u000a      <Param name="Selected rows" val="" valType="code" updates="None"/>\u000a    </LoopInitiator>\u000a    <Routine name="trial"/>\u000a    <Routine name="feedback"/>\u000a    <LoopTerminator name="ReDoLoop"/>\u000a    <LoopTerminator name="practiceTrials"/>\u000a    <Routine name="instrMain"/>\u000a    <LoopInitiator loopType="TrialHandler" name="trials">\u000a      <Param name="conditionsFile" val="Trialtypes5.xlsx" valType="str" updates="None"/>\u000a      <Param name="name" val="trials" valType="code" updates="None"/>\u000a      <Param name="isTrials" val="True" valType="bool" updates="None"/>\u000a      <Param name="random seed" val="" valType="code" updates="None"/>\u000a      <Param name="loopType" val="random" valType="str" updates="None"/>\u000a      <Param name="nReps" val="10" valType="num" updates="None"/>\u000a      <Param name="endPoints" val="[0, 1]" valType="num" updates="None"/>\u000a      <Param name="conditions" val="[{u'xPos': 200, u'corrAns': u'y', u'yPos': 200}, {u'xPos': -200, u'corrAns': u't', u'yPos': 200}, {u'xPos': 200, u'corrAns': u'h', u'yPos': -200}, {u'xPos': -200, u'corrAns': u'g', u'yPos': -200}]" valType="str" updates="None"/>\u000a      <Param name="Selected rows" val="" valType="str" updates="None"/>\u000a    </LoopInitiator>\u000a    <Routine name="trial"/>\u000a    <Routine name="feedback"/>\u000a    <LoopTerminator name="trials"/>\u000a  </Flow>\u000a</PsychoPy2experiment>\u000a
p457
sg43
(lp458
sg51
I235079088
sg11
S'practiceTrials'
p459
sg6
g7
sg53
I1
sg20
I01
sg21
g22
sg54
g1
(g55
g45
(dp460
g57
g58
(g59
g60
g61
S'b'
tRp461
(I1
(I4
I1
tg63
I00
S'\x00\x00\x80?\x00\x00\x80?\x00\x00\x80?\x00\x00\x80?'
S'\x00\x00\x00\x00'
Ntbsg72
g58
(g59
g60
g61
S'b'
tRp462
(I1
(I4
I1
tg63
I00
S'\x00\x00\x00\x00\x00\x00\x80?\x00\x00\x00@\x00\x00@@'
S'\x00\x00\x00\x00'
NtbstRp463
(dp464
g77
(dp465
g57
I01
sg72
I01
ssg52
g455
sg79
(lp466
g57
ag72
asg81
(lp467
I4
aI1
asbsg83
g84
sg85
g64
(g60
(I0
tS'b'
tRp468
(I1
(I4
I1
tg87
I01
S'\x00\x00\x00\x00\x01\x00\x00\x00\x02\x00\x00\x00\x03\x00\x00\x00'
tbsg88
I01
sg89
I1
sg90
I-1
sg91
(lp469
g1
(g44
g45
(dp470
g112
I200
sg113
Vy
sg114
I200
stRp471
ag1
(g44
g45
(dp472
g112
I-200
sg113
Vt
sg114
I200
stRp473
ag1
(g44
g45
(dp474
g112
I200
sg113
Vh
sg114
I-200
stRp475
ag1
(g44
g45
(dp476
g112
I-200
sg113
Vg
sg114
I-200
stRp477
asg99
Nsg100
g225
sg102
I4
sg103
I0
sg104
I4
sg105
I01
sbag1
(g38
g3
NtRp478
(dp479
g41
V<PsychoPy2experiment version="1.82.01" encoding="utf-8">\u000a  <Settings>\u000a    <Param name="Show mouse" val="False" valType="bool" updates="None"/>\u000a    <Param name="Data filename" val="u'data' + os.sep + '%s_%s' %(expInfo['participant'], expInfo['date'])" valType="code" updates="None"/>\u000a    <Param name="Monitor" val="testMonitor" valType="str" updates="None"/>\u000a    <Param name="Enable Escape" val="True" valType="bool" updates="None"/>\u000a    <Param name="color" val="black" valType="str" updates="None"/>\u000a    <Param name="Window size (pixels)" val="[1680, 1050]" valType="code" updates="None"/>\u000a    <Param name="Full-screen window" val="True" valType="bool" updates="None"/>\u000a    <Param name="colorSpace" val="rgb" valType="str" updates="None"/>\u000a    <Param name="Experiment info" val="{'participant':'', 'gender (m/f)':'', 'age':'', 'session':03}" valType="code" updates="None"/>\u000a    <Param name="Save csv file" val="False" valType="bool" updates="None"/>\u000a    <Param name="Show info dlg" val="True" valType="bool" updates="None"/>\u000a    <Param name="Save wide csv file" val="True" valType="bool" updates="None"/>\u000a    <Param name="Save psydat file" val="True" valType="bool" updates="None"/>\u000a    <Param name="expName" val="LearningTask" valType="str" updates="None"/>\u000a    <Param name="logging level" val="warning" valType="code" updates="None"/>\u000a    <Param name="blendMode" val="avg" valType="str" updates="None"/>\u000a    <Param name="Save excel file" val="True" valType="bool" updates="None"/>\u000a    <Param name="Units" val="use prefs" valType="str" updates="None"/>\u000a    <Param name="Save log file" val="True" valType="bool" updates="None"/>\u000a    <Param name="Screen" val="1" valType="num" updates="None"/>\u000a  </Settings>\u000a  <Routines>\u000a    <Routine name="trial">\u000a      <CodeComponent name="code_2">\u000a        <Param name="Begin Experiment" val="" valType="extendedCode" updates="constant"/>\u000a        <Param name="name" val="code_2" valType="code" updates="None"/>\u000a        <Param name="Begin Routine" val="import random&#10;&#10;Integers = [1, 2, 3, 4, 5, 6, 7, 8]&#10;&#10;if Redo == 1:&#10;    ConditionChoice = random.choice(Integers)&#10;    if ConditionChoice == 1:&#10;        CurrentStimulus = ConditionOne['fileName']&#10;    elif ConditionChoice == 2:&#10;        CurrentStimulus = ConditionTwo['fileName']&#10;    elif ConditionChoice == 3:&#10;        CurrentStimulus = ConditionThree['fileName']&#10;    elif ConditionChoice == 4:&#10;        CurrentStimulus = ConditionFour['fileName']&#10;    elif ConditionChoice == 5:&#10;        CurrentStimulus = ConditionFive['fileName']&#10;    elif ConditionChoice == 6:&#10;        CurrentStimulus = ConditionSix['fileName']&#10;    elif ConditionChoice == 7:&#10;        CurrentStimulus = ConditionSeven['fileName']&#10;    elif ConditionChoice == 8:&#10;        CurrentStimulus = ConditionEight['fileName']" valType="extendedCode" updates="constant"/>\u000a        <Param name="End Routine" val="" valType="extendedCode" updates="constant"/>\u000a        <Param name="End Experiment" val="" valType="extendedCode" updates="constant"/>\u000a        <Param name="Each Frame" val="" valType="extendedCode" updates="constant"/>\u000a      </CodeComponent>\u000a      <KeyboardComponent name="resp">\u000a        <Param name="correctAns" val="$corrAns" valType="str" updates="constant"/>\u000a        <Param name="storeCorrect" val="True" valType="bool" updates="constant"/>\u000a        <Param name="name" val="resp" valType="code" updates="None"/>\u000a        <Param name="stopVal" val="1" valType="code" updates="constant"/>\u000a        <Param name="durationEstim" val="" valType="code" updates="None"/>\u000a        <Param name="forceEndRoutine" val="True" valType="bool" updates="constant"/>\u000a        <Param name="startEstim" val="" valType="code" updates="None"/>\u000a        <Param name="discard previous" val="True" valType="bool" updates="constant"/>\u000a        <Param name="startType" val="time (s)" valType="str" updates="None"/>\u000a        <Param name="allowedKeys" val="'t', 'y', 'g', 'h'" valType="code" updates="constant"/>\u000a        <Param name="stopType" val="duration (s)" valType="str" updates="None"/>\u000a        <Param name="startVal" val=".5" valType="code" updates="None"/>\u000a        <Param name="store" val="last key" valType="str" updates="constant"/>\u000a      </KeyboardComponent>\u000a      <TextComponent name="text">\u000a        <Param name="opacity" val="1" valType="code" updates="constant"/>\u000a        <Param name="colorSpace" val="rgb" valType="str" updates="constant"/>\u000a        <Param name="name" val="text" valType="code" updates="None"/>\u000a        <Param name="wrapWidth" val="" valType="code" updates="constant"/>\u000a        <Param name="color" val="white" valType="str" updates="constant"/>\u000a        <Param name="text" val="+" valType="str" updates="constant"/>\u000a        <Param name="stopVal" val="1.5" valType="code" updates="constant"/>\u000a        <Param name="durationEstim" val="" valType="code" updates="None"/>\u000a        <Param name="pos" val="[0, 0]" valType="code" updates="constant"/>\u000a        <Param name="flip" val="" valType="str" updates="constant"/>\u000a        <Param name="startEstim" val="" valType="code" updates="None"/>\u000a        <Param name="units" val="from exp settings" valType="str" updates="None"/>\u000a        <Param name="startType" val="time (s)" valType="str" updates="None"/>\u000a        <Param name="ori" val="0" valType="code" updates="constant"/>\u000a        <Param name="stopType" val="duration (s)" valType="str" updates="None"/>\u000a        <Param name="startVal" val="0.0" valType="code" updates="None"/>\u000a        <Param name="font" val="Arial" valType="str" updates="constant"/>\u000a        <Param name="letterHeight" val="1" valType="code" updates="constant"/>\u000a      </TextComponent>\u000a      <ImageComponent name="image_2">\u000a        <Param name="opacity" val="1" valType="code" updates="constant"/>\u000a        <Param name="flipVert" val="False" valType="bool" updates="constant"/>\u000a        <Param name="colorSpace" val="rgb" valType="str" updates="constant"/>\u000a        <Param name="name" val="image_2" valType="code" updates="None"/>\u000a        <Param name="color" val="$[1,1,1]" valType="str" updates="constant"/>\u000a        <Param name="stopVal" val="1.0" valType="code" updates="constant"/>\u000a        <Param name="durationEstim" val="" valType="code" updates="None"/>\u000a        <Param name="mask" val="None" valType="str" updates="constant"/>\u000a        <Param name="pos" val="$[xPos, yPos]" valType="code" updates="set every repeat"/>\u000a        <Param name="interpolate" val="linear" valType="str" updates="constant"/>\u000a        <Param name="startEstim" val="" valType="code" updates="None"/>\u000a        <Param name="units" val="pix" valType="str" updates="None"/>\u000a        <Param name="texture resolution" val="128" valType="code" updates="constant"/>\u000a        <Param name="startType" val="time (s)" valType="str" updates="None"/>\u000a        <Param name="ori" val="0" valType="code" updates="constant"/>\u000a        <Param name="stopType" val="duration (s)" valType="str" updates="None"/>\u000a        <Param name="startVal" val=".5" valType="code" updates="None"/>\u000a        <Param name="flipHoriz" val="False" valType="bool" updates="constant"/>\u000a        <Param name="image" val="$CurrentStimulus" valType="str" updates="set every repeat"/>\u000a        <Param name="size" val="[101, 101]" valType="code" updates="constant"/>\u000a      </ImageComponent>\u000a    </Routine>\u000a    <Routine name="StimSetup">\u000a      <CodeComponent name="code">\u000a        <Param name="Begin Experiment" val="import random&#10;Redo = 1&#10;colors = ['yellow', 'white', 'orange', 'magenta', 'green', 'gray', 'cyan', 'blue']&#10;shapes = ['triangle', 'square', 'line', 'invertedtriangle', 'hexagon', 'diamond', 'cross', 'circle']&#10;rewards = [0.5, 1, 2, 4] * 2&#10;conditions = ['go', 'go', 'go', 'go', 'stop', 'stop', 'stop', 'stop']&#10;trialDetailsList = []&#10;&#10;shuffle(colors)&#10;shuffle(shapes)&#10;&#10;for i, color in enumerate(colors): # cycle through each color and keep track of an index number&#10;    trialDetails = {} # a dictionary of key-value pairs&#10;    trialDetails['fileName'] = shapes[i] + color + '.gif'&#10;    trialDetails['reward'] = rewards[i]&#10;    trialDetails['condition'] = conditions[i]&#10;    trialDetailsList.append(trialDetails)&#10;&#10;shuffle(trialDetailsList) # do this now to ensure that order of presentation of rewards and conditions is also shuffled&#10;&#10;ConditionOne = trialDetailsList[0]&#10;ConditionTwo = trialDetailsList[1]&#10;ConditionThree = trialDetailsList[2]&#10;ConditionFour = trialDetailsList[3]&#10;ConditionFive = trialDetailsList[4]&#10;ConditionSix = trialDetailsList[5]&#10;ConditionSeven = trialDetailsList[6]&#10;ConditionEight = trialDetailsList[7]" valType="extendedCode" updates="constant"/>\u000a        <Param name="name" val="code" valType="code" updates="None"/>\u000a        <Param name="Begin Routine" val="" valType="extendedCode" updates="constant"/>\u000a        <Param name="End Routine" val="" valType="extendedCode" updates="constant"/>\u000a        <Param name="End Experiment" val="" valType="extendedCode" updates="constant"/>\u000a        <Param name="Each Frame" val="" valType="extendedCode" updates="constant"/>\u000a      </CodeComponent>\u000a    </Routine>\u000a    <Routine name="instrMain">\u000a      <TextComponent name="instr2">\u000a        <Param name="opacity" val="1" valType="code" updates="constant"/>\u000a        <Param name="colorSpace" val="rgb" valType="str" updates="constant"/>\u000a        <Param name="name" val="instr2" valType="code" updates="constant"/>\u000a        <Param name="wrapWidth" val="" valType="code" updates="constant"/>\u000a        <Param name="color" val="white" valType="str" updates="constant"/>\u000a        <Param name="text" val="OK, ready to start the main experiment?&#10;&#10;Remember, press;&#10; - 'S' if the SMALL letters are S&#10; - 'H' if the SMALL letters are H&#10;&#10;Try to respond as quickly and as accurately as possible.&#10;&#10;When you are ready to proceed press any key." valType="str" updates="constant"/>\u000a        <Param name="stopVal" val="" valType="code" updates="constant"/>\u000a        <Param name="durationEstim" val="" valType="code" updates="None"/>\u000a        <Param name="pos" val="[0, 0]" valType="code" updates="constant"/>\u000a        <Param name="flip" val="" valType="str" updates="constant"/>\u000a        <Param name="startEstim" val="" valType="code" updates="None"/>\u000a        <Param name="units" val="from exp settings" valType="str" updates="None"/>\u000a        <Param name="startType" val="time (s)" valType="str" updates="None"/>\u000a        <Param name="ori" val="0" valType="code" updates="constant"/>\u000a        <Param name="stopType" val="duration (s)" valType="str" updates="None"/>\u000a        <Param name="startVal" val="0.0" valType="code" updates="None"/>\u000a        <Param name="font" val="Arial" valType="str" updates="constant"/>\u000a        <Param name="letterHeight" val="0.075" valType="code" updates="constant"/>\u000a      </TextComponent>\u000a      <KeyboardComponent name="ok2">\u000a        <Param name="correctAns" val="" valType="str" updates="constant"/>\u000a        <Param name="storeCorrect" val="False" valType="bool" updates="constant"/>\u000a        <Param name="name" val="ok2" valType="code" updates="None"/>\u000a        <Param name="stopVal" val="" valType="code" updates="constant"/>\u000a        <Param name="durationEstim" val="" valType="code" updates="None"/>\u000a        <Param name="forceEndRoutine" val="True" valType="bool" updates="constant"/>\u000a        <Param name="startEstim" val="" valType="code" updates="None"/>\u000a        <Param name="discard previous" val="True" valType="bool" updates="constant"/>\u000a        <Param name="startType" val="time (s)" valType="str" updates="None"/>\u000a        <Param name="allowedKeys" val="" valType="code" updates="constant"/>\u000a        <Param name="stopType" val="duration (s)" valType="str" updates="None"/>\u000a        <Param name="startVal" val="0.0" valType="code" updates="None"/>\u000a        <Param name="store" val="nothing" valType="str" updates="constant"/>\u000a      </KeyboardComponent>\u000a    </Routine>\u000a    <Routine name="feedback">\u000a      <CodeComponent name="message">\u000a        <Param name="Begin Experiment" val="#message variable just needs some value at start&#10;message=0" valType="extendedCode" updates="constant"/>\u000a        <Param name="name" val="message" valType="code" updates="None"/>\u000a        <Param name="Begin Routine" val="DisplayReward = random.randrange(1, 6)&#10;&#10;if resp.corr:#stored on last run routine&#10;    if DisplayReward == 1:&#10;            message = 0;&#10;    else:&#10;        if ConditionChoice == 1:&#10;            CurrentReward = ConditionOne['reward']&#10;            message = CurrentReward + (random.randrange(-25, 26)*.01)&#10;        elif ConditionChoice == 2:&#10;            CurrentReward = ConditionTwo['reward']&#10;            message = CurrentReward + (random.randrange(-25, 26)*.01)&#10;        elif ConditionChoice == 3:&#10;            CurrentReward = ConditionThree['reward']&#10;            message = CurrentReward + (random.randrange(-25, 26)*.01)&#10;        elif ConditionChoice == 4:&#10;            CurrentReward = ConditionFour['reward']&#10;            message = CurrentReward + (random.randrange(-25, 26)*.01)&#10;        elif ConditionChoice == 5:&#10;            CurrentReward = ConditionFive['reward']&#10;            message = CurrentReward + (random.randrange(-25, 26)*.01)&#10;        elif ConditionChoice == 6:&#10;            CurrentReward = ConditionSix['reward']&#10;            message = CurrentReward + (random.randrange(-25, 26)*.01)&#10;        elif ConditionChoice == 7:&#10;            CurrentReward = ConditionSeven['reward']&#10;            message = CurrentReward + (random.randrange(-25, 26)*.01)&#10;        elif ConditionChoice == 8:&#10;            CurrentReward = ConditionEight['reward']&#10;            message = CurrentReward + (random.randrange(-25, 26)*.01)&#10;elif resp.keys is None: #or len(key_resp.keys)&lt;1:&#10;#elif resp.rt == 0:&#10;    message =&quot;Too Slow&quot;&#10;else:&#10;  message=&quot;Wrong&quot;&#10;&#10;if resp.corr:#stored on last run routine&#10;    Redo = 1; &#10;else:&#10;    Redo = Redo + 1;&#10;&#10;#if DisplayReward == 1:&#10;#    message = 0;&#10;#else:&#10;#    message = CurrentReward + (random.randrange(-25, 26)*.01)&#10;&#10;#  message=&quot;Correct! RT=%.3f&quot; %(resp.rt)" valType="extendedCode" updates="constant"/>\u000a        <Param name="End Routine" val="" valType="extendedCode" updates="constant"/>\u000a        <Param name="End Experiment" val="" valType="extendedCode" updates="constant"/>\u000a        <Param name="Each Frame" val="" valType="extendedCode" updates="constant"/>\u000a      </CodeComponent>\u000a      <TextComponent name="feedback_2">\u000a        <Param name="opacity" val="1" valType="code" updates="constant"/>\u000a        <Param name="colorSpace" val="rgb" valType="str" updates="constant"/>\u000a        <Param name="name" val="feedback_2" valType="code" updates="constant"/>\u000a        <Param name="wrapWidth" val="" valType="code" updates="constant"/>\u000a        <Param name="color" val="$[1,1,1]" valType="str" updates="constant"/>\u000a        <Param name="text" val="$message" valType="str" updates="set every repeat"/>\u000a        <Param name="stopVal" val="1.0" valType="code" updates="constant"/>\u000a        <Param name="durationEstim" val="" valType="code" updates="None"/>\u000a        <Param name="pos" val="[0, 0]" valType="code" updates="constant"/>\u000a        <Param name="flip" val="" valType="str" updates="constant"/>\u000a        <Param name="startEstim" val="" valType="code" updates="None"/>\u000a        <Param name="units" val="from exp settings" valType="str" updates="None"/>\u000a        <Param name="startType" val="time (s)" valType="str" updates="None"/>\u000a        <Param name="ori" val="0" valType="code" updates="constant"/>\u000a        <Param name="stopType" val="duration (s)" valType="str" updates="None"/>\u000a        <Param name="startVal" val="0.0" valType="code" updates="None"/>\u000a        <Param name="font" val="Arial" valType="str" updates="constant"/>\u000a        <Param name="letterHeight" val="0.1" valType="code" updates="constant"/>\u000a      </TextComponent>\u000a    </Routine>\u000a    <Routine name="instrPractice">\u000a      <TextComponent name="instruct1">\u000a        <Param name="opacity" val="1" valType="code" updates="constant"/>\u000a        <Param name="colorSpace" val="rgb" valType="str" updates="constant"/>\u000a        <Param name="name" val="instruct1" valType="code" updates="constant"/>\u000a        <Param name="wrapWidth" val="" valType="code" updates="constant"/>\u000a        <Param name="color" val="white" valType="str" updates="constant"/>\u000a        <Param name="text" val="A shape stimulus will appear on every trial. &#10;&#10;If it appears in the upper right quadrant, PRESS Y&#10;&#10;If it appears in the lower right quadrant, PRESS H&#10;&#10;If it appears in the lower left quadrant, PRESS G&#10;&#10;If it appears in the upper left quadrant, PRESS T&#10;&#10;Press any key when you are ready to proceed. " valType="str" updates="constant"/>\u000a        <Param name="stopVal" val="" valType="code" updates="constant"/>\u000a        <Param name="durationEstim" val="" valType="code" updates="None"/>\u000a        <Param name="pos" val="[0, 0]" valType="code" updates="constant"/>\u000a        <Param name="flip" val="" valType="str" updates="constant"/>\u000a        <Param name="startEstim" val="" valType="code" updates="None"/>\u000a        <Param name="units" val="from exp settings" valType="str" updates="None"/>\u000a        <Param name="startType" val="time (s)" valType="str" updates="None"/>\u000a        <Param name="ori" val="0" valType="code" updates="constant"/>\u000a        <Param name="stopType" val="duration (s)" valType="str" updates="None"/>\u000a        <Param name="startVal" val="0.0" valType="code" updates="None"/>\u000a        <Param name="font" val="Arial" valType="str" updates="constant"/>\u000a        <Param name="letterHeight" val="0.07" valType="code" updates="constant"/>\u000a      </TextComponent>\u000a      <KeyboardComponent name="ok1">\u000a        <Param name="correctAns" val="" valType="str" updates="constant"/>\u000a        <Param name="storeCorrect" val="False" valType="bool" updates="constant"/>\u000a        <Param name="name" val="ok1" valType="code" updates="None"/>\u000a        <Param name="stopVal" val="" valType="code" updates="constant"/>\u000a        <Param name="durationEstim" val="" valType="code" updates="None"/>\u000a        <Param name="forceEndRoutine" val="True" valType="bool" updates="constant"/>\u000a        <Param name="startEstim" val="" valType="code" updates="None"/>\u000a        <Param name="discard previous" val="True" valType="bool" updates="constant"/>\u000a        <Param name="startType" val="time (s)" valType="str" updates="None"/>\u000a        <Param name="allowedKeys" val="" valType="code" updates="constant"/>\u000a        <Param name="stopType" val="duration (s)" valType="str" updates="None"/>\u000a        <Param name="startVal" val="0.0" valType="code" updates="None"/>\u000a        <Param name="store" val="last key" valType="str" updates="constant"/>\u000a      </KeyboardComponent>\u000a    </Routine>\u000a  </Routines>\u000a  <Flow>\u000a    <Routine name="StimSetup"/>\u000a    <Routine name="instrPractice"/>\u000a    <LoopInitiator loopType="TrialHandler" name="practiceTrials">\u000a      <Param name="conditionsFile" val="Trialtypes5.xlsx" valType="str" updates="None"/>\u000a      <Param name="name" val="practiceTrials" valType="code" updates="None"/>\u000a      <Param name="isTrials" val="True" valType="bool" updates="None"/>\u000a      <Param name="random seed" val="" valType="code" updates="None"/>\u000a      <Param name="loopType" val="random" valType="str" updates="None"/>\u000a      <Param name="nReps" val="1" valType="num" updates="None"/>\u000a      <Param name="endPoints" val="[1, 2]" valType="num" updates="None"/>\u000a      <Param name="conditions" val="[{u'xPos': 200, u'corrAns': u'y', u'yPos': 200}, {u'xPos': -200, u'corrAns': u't', u'yPos': 200}, {u'xPos': 200, u'corrAns': u'h', u'yPos': -200}, {u'xPos': -200, u'corrAns': u'g', u'yPos': -200}]" valType="str" updates="None"/>\u000a      <Param name="Selected rows" val="" valType="str" updates="None"/>\u000a    </LoopInitiator>\u000a    <LoopInitiator loopType="TrialHandler" name="ReDoLoop">\u000a      <Param name="conditionsFile" val="" valType="str" updates="None"/>\u000a      <Param name="name" val="ReDoLoop" valType="code" updates="None"/>\u000a      <Param name="isTrials" val="True" valType="bool" updates="None"/>\u000a      <Param name="random seed" val="" valType="code" updates="None"/>\u000a      <Param name="loopType" val="random" valType="str" updates="None"/>\u000a      <Param name="nReps" val="$Redo" valType="code" updates="None"/>\u000a      <Param name="endPoints" val="[0, 1]" valType="num" updates="None"/>\u000a      <Param name="conditions" val="None" valType="str" updates="None"/>\u000a      <Param name="Selected rows" val="" valType="code" updates="None"/>\u000a    </LoopInitiator>\u000a    <Routine name="trial"/>\u000a    <Routine name="feedback"/>\u000a    <LoopTerminator name="ReDoLoop"/>\u000a    <LoopTerminator name="practiceTrials"/>\u000a    <Routine name="instrMain"/>\u000a    <LoopInitiator loopType="TrialHandler" name="trials">\u000a      <Param name="conditionsFile" val="Trialtypes5.xlsx" valType="str" updates="None"/>\u000a      <Param name="name" val="trials" valType="code" updates="None"/>\u000a      <Param name="isTrials" val="True" valType="bool" updates="None"/>\u000a      <Param name="random seed" val="" valType="code" updates="None"/>\u000a      <Param name="loopType" val="random" valType="str" updates="None"/>\u000a      <Param name="nReps" val="10" valType="num" updates="None"/>\u000a      <Param name="endPoints" val="[0, 1]" valType="num" updates="None"/>\u000a      <Param name="conditions" val="[{u'xPos': 200, u'corrAns': u'y', u'yPos': 200}, {u'xPos': -200, u'corrAns': u't', u'yPos': 200}, {u'xPos': 200, u'corrAns': u'h', u'yPos': -200}, {u'xPos': -200, u'corrAns': u'g', u'yPos': -200}]" valType="str" updates="None"/>\u000a      <Param name="Selected rows" val="" valType="str" updates="None"/>\u000a    </LoopInitiator>\u000a    <Routine name="trial"/>\u000a    <Routine name="feedback"/>\u000a    <LoopTerminator name="trials"/>\u000a  </Flow>\u000a</PsychoPy2experiment>\u000a
p480
sg43
(lp481
sg51
I235079088
sg11
S'ReDoLoop'
p482
sg6
g7
sg53
I1
sg20
I01
sg21
g22
sg54
g1
(g55
g45
(dp483
g57
g58
(g59
g60
g61
S'b'
tRp484
(I1
(I1
I1
tg63
I00
S'\x00\x00\x80?'
S'\x00'
Ntbsg17
g64
(g60
(I0
tS'b'
tRp485
(I1
(I1
I1
tg66
I00
(lp486
S'h'
atbsg18
g58
(g59
g60
g61
S'b'
tRp487
(I1
(I1
I1
tg63
I00
S'\x00\x00\x00\x00'
S'\x00'
Ntbsg72
g58
(g59
g60
g61
S'b'
tRp488
(I1
(I1
I1
tg63
I00
S'\x00\x00\x00\x00'
S'\x00'
Ntbsg19
g58
(g59
g60
g61
S'b'
tRp489
(I1
(I1
I1
tg63
I00
S'\xe0\xbb\xd5>'
S'\x00'
NtbstRp490
(dp491
g77
(dp492
g57
I01
sg17
I00
sg19
I01
sg72
I01
sg18
I01
ssg52
g478
sg79
(lp493
g57
ag72
ag17
ag18
ag19
asg81
(lp494
I1
aI1
asbsg83
g84
sg85
g64
(g60
(I0
tS'b'
tRp495
(I1
(I1
I1
tg87
I00
S'\x00\x00\x00\x00'
tbsg88
I01
sg89
I1
sg90
I-1
sg91
(lp496
Nasg99
Nsg100
g122
sg102
I1
sg103
I0
sg104
I1
sg105
I01
sbag1
(g38
g3
NtRp497
(dp498
g41
V<PsychoPy2experiment version="1.82.01" encoding="utf-8">\u000a  <Settings>\u000a    <Param name="Show mouse" val="False" valType="bool" updates="None"/>\u000a    <Param name="Data filename" val="u'data' + os.sep + '%s_%s' %(expInfo['participant'], expInfo['date'])" valType="code" updates="None"/>\u000a    <Param name="Monitor" val="testMonitor" valType="str" updates="None"/>\u000a    <Param name="Enable Escape" val="True" valType="bool" updates="None"/>\u000a    <Param name="color" val="black" valType="str" updates="None"/>\u000a    <Param name="Window size (pixels)" val="[1680, 1050]" valType="code" updates="None"/>\u000a    <Param name="Full-screen window" val="True" valType="bool" updates="None"/>\u000a    <Param name="colorSpace" val="rgb" valType="str" updates="None"/>\u000a    <Param name="Experiment info" val="{'participant':'', 'gender (m/f)':'', 'age':'', 'session':03}" valType="code" updates="None"/>\u000a    <Param name="Save csv file" val="False" valType="bool" updates="None"/>\u000a    <Param name="Show info dlg" val="True" valType="bool" updates="None"/>\u000a    <Param name="Save wide csv file" val="True" valType="bool" updates="None"/>\u000a    <Param name="Save psydat file" val="True" valType="bool" updates="None"/>\u000a    <Param name="expName" val="LearningTask" valType="str" updates="None"/>\u000a    <Param name="logging level" val="warning" valType="code" updates="None"/>\u000a    <Param name="blendMode" val="avg" valType="str" updates="None"/>\u000a    <Param name="Save excel file" val="True" valType="bool" updates="None"/>\u000a    <Param name="Units" val="use prefs" valType="str" updates="None"/>\u000a    <Param name="Save log file" val="True" valType="bool" updates="None"/>\u000a    <Param name="Screen" val="1" valType="num" updates="None"/>\u000a  </Settings>\u000a  <Routines>\u000a    <Routine name="trial">\u000a      <CodeComponent name="code_2">\u000a        <Param name="Begin Experiment" val="" valType="extendedCode" updates="constant"/>\u000a        <Param name="name" val="code_2" valType="code" updates="None"/>\u000a        <Param name="Begin Routine" val="import random&#10;&#10;Integers = [1, 2, 3, 4, 5, 6, 7, 8]&#10;&#10;if Redo == 1:&#10;    ConditionChoice = random.choice(Integers)&#10;    if ConditionChoice == 1:&#10;        CurrentStimulus = ConditionOne['fileName']&#10;    elif ConditionChoice == 2:&#10;        CurrentStimulus = ConditionTwo['fileName']&#10;    elif ConditionChoice == 3:&#10;        CurrentStimulus = ConditionThree['fileName']&#10;    elif ConditionChoice == 4:&#10;        CurrentStimulus = ConditionFour['fileName']&#10;    elif ConditionChoice == 5:&#10;        CurrentStimulus = ConditionFive['fileName']&#10;    elif ConditionChoice == 6:&#10;        CurrentStimulus = ConditionSix['fileName']&#10;    elif ConditionChoice == 7:&#10;        CurrentStimulus = ConditionSeven['fileName']&#10;    elif ConditionChoice == 8:&#10;        CurrentStimulus = ConditionEight['fileName']" valType="extendedCode" updates="constant"/>\u000a        <Param name="End Routine" val="" valType="extendedCode" updates="constant"/>\u000a        <Param name="End Experiment" val="" valType="extendedCode" updates="constant"/>\u000a        <Param name="Each Frame" val="" valType="extendedCode" updates="constant"/>\u000a      </CodeComponent>\u000a      <KeyboardComponent name="resp">\u000a        <Param name="correctAns" val="$corrAns" valType="str" updates="constant"/>\u000a        <Param name="storeCorrect" val="True" valType="bool" updates="constant"/>\u000a        <Param name="name" val="resp" valType="code" updates="None"/>\u000a        <Param name="stopVal" val="1" valType="code" updates="constant"/>\u000a        <Param name="durationEstim" val="" valType="code" updates="None"/>\u000a        <Param name="forceEndRoutine" val="True" valType="bool" updates="constant"/>\u000a        <Param name="startEstim" val="" valType="code" updates="None"/>\u000a        <Param name="discard previous" val="True" valType="bool" updates="constant"/>\u000a        <Param name="startType" val="time (s)" valType="str" updates="None"/>\u000a        <Param name="allowedKeys" val="'t', 'y', 'g', 'h'" valType="code" updates="constant"/>\u000a        <Param name="stopType" val="duration (s)" valType="str" updates="None"/>\u000a        <Param name="startVal" val=".5" valType="code" updates="None"/>\u000a        <Param name="store" val="last key" valType="str" updates="constant"/>\u000a      </KeyboardComponent>\u000a      <TextComponent name="text">\u000a        <Param name="opacity" val="1" valType="code" updates="constant"/>\u000a        <Param name="colorSpace" val="rgb" valType="str" updates="constant"/>\u000a        <Param name="name" val="text" valType="code" updates="None"/>\u000a        <Param name="wrapWidth" val="" valType="code" updates="constant"/>\u000a        <Param name="color" val="white" valType="str" updates="constant"/>\u000a        <Param name="text" val="+" valType="str" updates="constant"/>\u000a        <Param name="stopVal" val="1.5" valType="code" updates="constant"/>\u000a        <Param name="durationEstim" val="" valType="code" updates="None"/>\u000a        <Param name="pos" val="[0, 0]" valType="code" updates="constant"/>\u000a        <Param name="flip" val="" valType="str" updates="constant"/>\u000a        <Param name="startEstim" val="" valType="code" updates="None"/>\u000a        <Param name="units" val="from exp settings" valType="str" updates="None"/>\u000a        <Param name="startType" val="time (s)" valType="str" updates="None"/>\u000a        <Param name="ori" val="0" valType="code" updates="constant"/>\u000a        <Param name="stopType" val="duration (s)" valType="str" updates="None"/>\u000a        <Param name="startVal" val="0.0" valType="code" updates="None"/>\u000a        <Param name="font" val="Arial" valType="str" updates="constant"/>\u000a        <Param name="letterHeight" val="1" valType="code" updates="constant"/>\u000a      </TextComponent>\u000a      <ImageComponent name="image_2">\u000a        <Param name="opacity" val="1" valType="code" updates="constant"/>\u000a        <Param name="flipVert" val="False" valType="bool" updates="constant"/>\u000a        <Param name="colorSpace" val="rgb" valType="str" updates="constant"/>\u000a        <Param name="name" val="image_2" valType="code" updates="None"/>\u000a        <Param name="color" val="$[1,1,1]" valType="str" updates="constant"/>\u000a        <Param name="stopVal" val="1.0" valType="code" updates="constant"/>\u000a        <Param name="durationEstim" val="" valType="code" updates="None"/>\u000a        <Param name="mask" val="None" valType="str" updates="constant"/>\u000a        <Param name="pos" val="$[xPos, yPos]" valType="code" updates="set every repeat"/>\u000a        <Param name="interpolate" val="linear" valType="str" updates="constant"/>\u000a        <Param name="startEstim" val="" valType="code" updates="None"/>\u000a        <Param name="units" val="pix" valType="str" updates="None"/>\u000a        <Param name="texture resolution" val="128" valType="code" updates="constant"/>\u000a        <Param name="startType" val="time (s)" valType="str" updates="None"/>\u000a        <Param name="ori" val="0" valType="code" updates="constant"/>\u000a        <Param name="stopType" val="duration (s)" valType="str" updates="None"/>\u000a        <Param name="startVal" val=".5" valType="code" updates="None"/>\u000a        <Param name="flipHoriz" val="False" valType="bool" updates="constant"/>\u000a        <Param name="image" val="$CurrentStimulus" valType="str" updates="set every repeat"/>\u000a        <Param name="size" val="[101, 101]" valType="code" updates="constant"/>\u000a      </ImageComponent>\u000a    </Routine>\u000a    <Routine name="StimSetup">\u000a      <CodeComponent name="code">\u000a        <Param name="Begin Experiment" val="import random&#10;Redo = 1&#10;colors = ['yellow', 'white', 'orange', 'magenta', 'green', 'gray', 'cyan', 'blue']&#10;shapes = ['triangle', 'square', 'line', 'invertedtriangle', 'hexagon', 'diamond', 'cross', 'circle']&#10;rewards = [0.5, 1, 2, 4] * 2&#10;conditions = ['go', 'go', 'go', 'go', 'stop', 'stop', 'stop', 'stop']&#10;trialDetailsList = []&#10;&#10;shuffle(colors)&#10;shuffle(shapes)&#10;&#10;for i, color in enumerate(colors): # cycle through each color and keep track of an index number&#10;    trialDetails = {} # a dictionary of key-value pairs&#10;    trialDetails['fileName'] = shapes[i] + color + '.gif'&#10;    trialDetails['reward'] = rewards[i]&#10;    trialDetails['condition'] = conditions[i]&#10;    trialDetailsList.append(trialDetails)&#10;&#10;shuffle(trialDetailsList) # do this now to ensure that order of presentation of rewards and conditions is also shuffled&#10;&#10;ConditionOne = trialDetailsList[0]&#10;ConditionTwo = trialDetailsList[1]&#10;ConditionThree = trialDetailsList[2]&#10;ConditionFour = trialDetailsList[3]&#10;ConditionFive = trialDetailsList[4]&#10;ConditionSix = trialDetailsList[5]&#10;ConditionSeven = trialDetailsList[6]&#10;ConditionEight = trialDetailsList[7]" valType="extendedCode" updates="constant"/>\u000a        <Param name="name" val="code" valType="code" updates="None"/>\u000a        <Param name="Begin Routine" val="" valType="extendedCode" updates="constant"/>\u000a        <Param name="End Routine" val="" valType="extendedCode" updates="constant"/>\u000a        <Param name="End Experiment" val="" valType="extendedCode" updates="constant"/>\u000a        <Param name="Each Frame" val="" valType="extendedCode" updates="constant"/>\u000a      </CodeComponent>\u000a    </Routine>\u000a    <Routine name="instrMain">\u000a      <TextComponent name="instr2">\u000a        <Param name="opacity" val="1" valType="code" updates="constant"/>\u000a        <Param name="colorSpace" val="rgb" valType="str" updates="constant"/>\u000a        <Param name="name" val="instr2" valType="code" updates="constant"/>\u000a        <Param name="wrapWidth" val="" valType="code" updates="constant"/>\u000a        <Param name="color" val="white" valType="str" updates="constant"/>\u000a        <Param name="text" val="OK, ready to start the main experiment?&#10;&#10;Remember, press;&#10; - 'S' if the SMALL letters are S&#10; - 'H' if the SMALL letters are H&#10;&#10;Try to respond as quickly and as accurately as possible.&#10;&#10;When you are ready to proceed press any key." valType="str" updates="constant"/>\u000a        <Param name="stopVal" val="" valType="code" updates="constant"/>\u000a        <Param name="durationEstim" val="" valType="code" updates="None"/>\u000a        <Param name="pos" val="[0, 0]" valType="code" updates="constant"/>\u000a        <Param name="flip" val="" valType="str" updates="constant"/>\u000a        <Param name="startEstim" val="" valType="code" updates="None"/>\u000a        <Param name="units" val="from exp settings" valType="str" updates="None"/>\u000a        <Param name="startType" val="time (s)" valType="str" updates="None"/>\u000a        <Param name="ori" val="0" valType="code" updates="constant"/>\u000a        <Param name="stopType" val="duration (s)" valType="str" updates="None"/>\u000a        <Param name="startVal" val="0.0" valType="code" updates="None"/>\u000a        <Param name="font" val="Arial" valType="str" updates="constant"/>\u000a        <Param name="letterHeight" val="0.075" valType="code" updates="constant"/>\u000a      </TextComponent>\u000a      <KeyboardComponent name="ok2">\u000a        <Param name="correctAns" val="" valType="str" updates="constant"/>\u000a        <Param name="storeCorrect" val="False" valType="bool" updates="constant"/>\u000a        <Param name="name" val="ok2" valType="code" updates="None"/>\u000a        <Param name="stopVal" val="" valType="code" updates="constant"/>\u000a        <Param name="durationEstim" val="" valType="code" updates="None"/>\u000a        <Param name="forceEndRoutine" val="True" valType="bool" updates="constant"/>\u000a        <Param name="startEstim" val="" valType="code" updates="None"/>\u000a        <Param name="discard previous" val="True" valType="bool" updates="constant"/>\u000a        <Param name="startType" val="time (s)" valType="str" updates="None"/>\u000a        <Param name="allowedKeys" val="" valType="code" updates="constant"/>\u000a        <Param name="stopType" val="duration (s)" valType="str" updates="None"/>\u000a        <Param name="startVal" val="0.0" valType="code" updates="None"/>\u000a        <Param name="store" val="nothing" valType="str" updates="constant"/>\u000a      </KeyboardComponent>\u000a    </Routine>\u000a    <Routine name="feedback">\u000a      <CodeComponent name="message">\u000a        <Param name="Begin Experiment" val="#message variable just needs some value at start&#10;message=0" valType="extendedCode" updates="constant"/>\u000a        <Param name="name" val="message" valType="code" updates="None"/>\u000a        <Param name="Begin Routine" val="DisplayReward = random.randrange(1, 6)&#10;&#10;if resp.corr:#stored on last run routine&#10;    if DisplayReward == 1:&#10;            message = 0;&#10;    else:&#10;        if ConditionChoice == 1:&#10;            CurrentReward = ConditionOne['reward']&#10;            message = CurrentReward + (random.randrange(-25, 26)*.01)&#10;        elif ConditionChoice == 2:&#10;            CurrentReward = ConditionTwo['reward']&#10;            message = CurrentReward + (random.randrange(-25, 26)*.01)&#10;        elif ConditionChoice == 3:&#10;            CurrentReward = ConditionThree['reward']&#10;            message = CurrentReward + (random.randrange(-25, 26)*.01)&#10;        elif ConditionChoice == 4:&#10;            CurrentReward = ConditionFour['reward']&#10;            message = CurrentReward + (random.randrange(-25, 26)*.01)&#10;        elif ConditionChoice == 5:&#10;            CurrentReward = ConditionFive['reward']&#10;            message = CurrentReward + (random.randrange(-25, 26)*.01)&#10;        elif ConditionChoice == 6:&#10;            CurrentReward = ConditionSix['reward']&#10;            message = CurrentReward + (random.randrange(-25, 26)*.01)&#10;        elif ConditionChoice == 7:&#10;            CurrentReward = ConditionSeven['reward']&#10;            message = CurrentReward + (random.randrange(-25, 26)*.01)&#10;        elif ConditionChoice == 8:&#10;            CurrentReward = ConditionEight['reward']&#10;            message = CurrentReward + (random.randrange(-25, 26)*.01)&#10;elif resp.keys is None: #or len(key_resp.keys)&lt;1:&#10;#elif resp.rt == 0:&#10;    message =&quot;Too Slow&quot;&#10;else:&#10;  message=&quot;Wrong&quot;&#10;&#10;if resp.corr:#stored on last run routine&#10;    Redo = 1; &#10;else:&#10;    Redo = Redo + 1;&#10;&#10;#if DisplayReward == 1:&#10;#    message = 0;&#10;#else:&#10;#    message = CurrentReward + (random.randrange(-25, 26)*.01)&#10;&#10;#  message=&quot;Correct! RT=%.3f&quot; %(resp.rt)" valType="extendedCode" updates="constant"/>\u000a        <Param name="End Routine" val="" valType="extendedCode" updates="constant"/>\u000a        <Param name="End Experiment" val="" valType="extendedCode" updates="constant"/>\u000a        <Param name="Each Frame" val="" valType="extendedCode" updates="constant"/>\u000a      </CodeComponent>\u000a      <TextComponent name="feedback_2">\u000a        <Param name="opacity" val="1" valType="code" updates="constant"/>\u000a        <Param name="colorSpace" val="rgb" valType="str" updates="constant"/>\u000a        <Param name="name" val="feedback_2" valType="code" updates="constant"/>\u000a        <Param name="wrapWidth" val="" valType="code" updates="constant"/>\u000a        <Param name="color" val="$[1,1,1]" valType="str" updates="constant"/>\u000a        <Param name="text" val="$message" valType="str" updates="set every repeat"/>\u000a        <Param name="stopVal" val="1.0" valType="code" updates="constant"/>\u000a        <Param name="durationEstim" val="" valType="code" updates="None"/>\u000a        <Param name="pos" val="[0, 0]" valType="code" updates="constant"/>\u000a        <Param name="flip" val="" valType="str" updates="constant"/>\u000a        <Param name="startEstim" val="" valType="code" updates="None"/>\u000a        <Param name="units" val="from exp settings" valType="str" updates="None"/>\u000a        <Param name="startType" val="time (s)" valType="str" updates="None"/>\u000a        <Param name="ori" val="0" valType="code" updates="constant"/>\u000a        <Param name="stopType" val="duration (s)" valType="str" updates="None"/>\u000a        <Param name="startVal" val="0.0" valType="code" updates="None"/>\u000a        <Param name="font" val="Arial" valType="str" updates="constant"/>\u000a        <Param name="letterHeight" val="0.1" valType="code" updates="constant"/>\u000a      </TextComponent>\u000a    </Routine>\u000a    <Routine name="instrPractice">\u000a      <TextComponent name="instruct1">\u000a        <Param name="opacity" val="1" valType="code" updates="constant"/>\u000a        <Param name="colorSpace" val="rgb" valType="str" updates="constant"/>\u000a        <Param name="name" val="instruct1" valType="code" updates="constant"/>\u000a        <Param name="wrapWidth" val="" valType="code" updates="constant"/>\u000a        <Param name="color" val="white" valType="str" updates="constant"/>\u000a        <Param name="text" val="A shape stimulus will appear on every trial. &#10;&#10;If it appears in the upper right quadrant, PRESS Y&#10;&#10;If it appears in the lower right quadrant, PRESS H&#10;&#10;If it appears in the lower left quadrant, PRESS G&#10;&#10;If it appears in the upper left quadrant, PRESS T&#10;&#10;Press any key when you are ready to proceed. " valType="str" updates="constant"/>\u000a        <Param name="stopVal" val="" valType="code" updates="constant"/>\u000a        <Param name="durationEstim" val="" valType="code" updates="None"/>\u000a        <Param name="pos" val="[0, 0]" valType="code" updates="constant"/>\u000a        <Param name="flip" val="" valType="str" updates="constant"/>\u000a        <Param name="startEstim" val="" valType="code" updates="None"/>\u000a        <Param name="units" val="from exp settings" valType="str" updates="None"/>\u000a        <Param name="startType" val="time (s)" valType="str" updates="None"/>\u000a        <Param name="ori" val="0" valType="code" updates="constant"/>\u000a        <Param name="stopType" val="duration (s)" valType="str" updates="None"/>\u000a        <Param name="startVal" val="0.0" valType="code" updates="None"/>\u000a        <Param name="font" val="Arial" valType="str" updates="constant"/>\u000a        <Param name="letterHeight" val="0.07" valType="code" updates="constant"/>\u000a      </TextComponent>\u000a      <KeyboardComponent name="ok1">\u000a        <Param name="correctAns" val="" valType="str" updates="constant"/>\u000a        <Param name="storeCorrect" val="False" valType="bool" updates="constant"/>\u000a        <Param name="name" val="ok1" valType="code" updates="None"/>\u000a        <Param name="stopVal" val="" valType="code" updates="constant"/>\u000a        <Param name="durationEstim" val="" valType="code" updates="None"/>\u000a        <Param name="forceEndRoutine" val="True" valType="bool" updates="constant"/>\u000a        <Param name="startEstim" val="" valType="code" updates="None"/>\u000a        <Param name="discard previous" val="True" valType="bool" updates="constant"/>\u000a        <Param name="startType" val="time (s)" valType="str" updates="None"/>\u000a        <Param name="allowedKeys" val="" valType="code" updates="constant"/>\u000a        <Param name="stopType" val="duration (s)" valType="str" updates="None"/>\u000a        <Param name="startVal" val="0.0" valType="code" updates="None"/>\u000a        <Param name="store" val="last key" valType="str" updates="constant"/>\u000a      </KeyboardComponent>\u000a    </Routine>\u000a  </Routines>\u000a  <Flow>\u000a    <Routine name="StimSetup"/>\u000a    <Routine name="instrPractice"/>\u000a    <LoopInitiator loopType="TrialHandler" name="practiceTrials">\u000a      <Param name="conditionsFile" val="Trialtypes5.xlsx" valType="str" updates="None"/>\u000a      <Param name="name" val="practiceTrials" valType="code" updates="None"/>\u000a      <Param name="isTrials" val="True" valType="bool" updates="None"/>\u000a      <Param name="random seed" val="" valType="code" updates="None"/>\u000a      <Param name="loopType" val="random" valType="str" updates="None"/>\u000a      <Param name="nReps" val="1" valType="num" updates="None"/>\u000a      <Param name="endPoints" val="[1, 2]" valType="num" updates="None"/>\u000a      <Param name="conditions" val="[{u'xPos': 200, u'corrAns': u'y', u'yPos': 200}, {u'xPos': -200, u'corrAns': u't', u'yPos': 200}, {u'xPos': 200, u'corrAns': u'h', u'yPos': -200}, {u'xPos': -200, u'corrAns': u'g', u'yPos': -200}]" valType="str" updates="None"/>\u000a      <Param name="Selected rows" val="" valType="str" updates="None"/>\u000a    </LoopInitiator>\u000a    <LoopInitiator loopType="TrialHandler" name="ReDoLoop">\u000a      <Param name="conditionsFile" val="" valType="str" updates="None"/>\u000a      <Param name="name" val="ReDoLoop" valType="code" updates="None"/>\u000a      <Param name="isTrials" val="True" valType="bool" updates="None"/>\u000a      <Param name="random seed" val="" valType="code" updates="None"/>\u000a      <Param name="loopType" val="random" valType="str" updates="None"/>\u000a      <Param name="nReps" val="$Redo" valType="code" updates="None"/>\u000a      <Param name="endPoints" val="[0, 1]" valType="num" updates="None"/>\u000a      <Param name="conditions" val="None" valType="str" updates="None"/>\u000a      <Param name="Selected rows" val="" valType="code" updates="None"/>\u000a    </LoopInitiator>\u000a    <Routine name="trial"/>\u000a    <Routine name="feedback"/>\u000a    <LoopTerminator name="ReDoLoop"/>\u000a    <LoopTerminator name="practiceTrials"/>\u000a    <Routine name="instrMain"/>\u000a    <LoopInitiator loopType="TrialHandler" name="trials">\u000a      <Param name="conditionsFile" val="Trialtypes5.xlsx" valType="str" updates="None"/>\u000a      <Param name="name" val="trials" valType="code" updates="None"/>\u000a      <Param name="isTrials" val="True" valType="bool" updates="None"/>\u000a      <Param name="random seed" val="" valType="code" updates="None"/>\u000a      <Param name="loopType" val="random" valType="str" updates="None"/>\u000a      <Param name="nReps" val="10" valType="num" updates="None"/>\u000a      <Param name="endPoints" val="[0, 1]" valType="num" updates="None"/>\u000a      <Param name="conditions" val="[{u'xPos': 200, u'corrAns': u'y', u'yPos': 200}, {u'xPos': -200, u'corrAns': u't', u'yPos': 200}, {u'xPos': 200, u'corrAns': u'h', u'yPos': -200}, {u'xPos': -200, u'corrAns': u'g', u'yPos': -200}]" valType="str" updates="None"/>\u000a      <Param name="Selected rows" val="" valType="str" updates="None"/>\u000a    </LoopInitiator>\u000a    <Routine name="trial"/>\u000a    <Routine name="feedback"/>\u000a    <LoopTerminator name="trials"/>\u000a  </Flow>\u000a</PsychoPy2experiment>\u000a
p499
sg43
(lp500
sg51
I235079088
sg11
g482
sg6
g7
sg53
I2
sg20
I01
sg21
g22
sg54
g1
(g55
g45
(dp501
g57
g58
(g59
g60
g61
S'b'
tRp502
(I1
(I1
I2
tg63
I00
S'\x00\x00\x80?\x00\x00\x80?'
S'\x00\x00'
Ntbsg17
g64
(g60
(I0
tS'b'
tRp503
(I1
(I1
I2
tg66
I00
(lp504
S'g'
aS'g'
atbsg18
g58
(g59
g60
g61
S'b'
tRp505
(I1
(I1
I2
tg63
I00
S'\x00\x00\x00\x00\x00\x00\x00\x00'
S'\x00\x00'
Ntbsg72
g58
(g59
g60
g61
S'b'
tRp506
(I1
(I1
I2
tg63
I00
S'\x00\x00\x00\x00\x00\x00\x80?'
S'\x00\x00'
Ntbsg19
g58
(g59
g60
g61
S'b'
tRp507
(I1
(I1
I2
tg63
I00
S'\xcc7/?\x8c^\x11?'
S'\x00\x00'
NtbstRp508
(dp509
g77
(dp510
g57
I01
sg17
I00
sg19
I01
sg72
I01
sg18
I01
ssg52
g497
sg79
(lp511
g57
ag72
ag17
ag18
ag19
asg81
(lp512
I1
aI2
asbsg83
g84
sg85
g64
(g60
(I0
tS'b'
tRp513
(I1
(I1
I2
tg87
I01
S'\x00\x00\x00\x00\x00\x00\x00\x00'
tbsg88
I01
sg89
I2
sg90
I-1
sg91
(lp514
Nasg99
Nsg100
g151
sg102
I2
sg103
I0
sg104
I2
sg105
I01
sbag1
(g38
g3
NtRp515
(dp516
g41
V<PsychoPy2experiment version="1.82.01" encoding="utf-8">\u000a  <Settings>\u000a    <Param name="Show mouse" val="False" valType="bool" updates="None"/>\u000a    <Param name="Data filename" val="u'data' + os.sep + '%s_%s' %(expInfo['participant'], expInfo['date'])" valType="code" updates="None"/>\u000a    <Param name="Monitor" val="testMonitor" valType="str" updates="None"/>\u000a    <Param name="Enable Escape" val="True" valType="bool" updates="None"/>\u000a    <Param name="color" val="black" valType="str" updates="None"/>\u000a    <Param name="Window size (pixels)" val="[1680, 1050]" valType="code" updates="None"/>\u000a    <Param name="Full-screen window" val="True" valType="bool" updates="None"/>\u000a    <Param name="colorSpace" val="rgb" valType="str" updates="None"/>\u000a    <Param name="Experiment info" val="{'participant':'', 'gender (m/f)':'', 'age':'', 'session':03}" valType="code" updates="None"/>\u000a    <Param name="Save csv file" val="False" valType="bool" updates="None"/>\u000a    <Param name="Show info dlg" val="True" valType="bool" updates="None"/>\u000a    <Param name="Save wide csv file" val="True" valType="bool" updates="None"/>\u000a    <Param name="Save psydat file" val="True" valType="bool" updates="None"/>\u000a    <Param name="expName" val="LearningTask" valType="str" updates="None"/>\u000a    <Param name="logging level" val="warning" valType="code" updates="None"/>\u000a    <Param name="blendMode" val="avg" valType="str" updates="None"/>\u000a    <Param name="Save excel file" val="True" valType="bool" updates="None"/>\u000a    <Param name="Units" val="use prefs" valType="str" updates="None"/>\u000a    <Param name="Save log file" val="True" valType="bool" updates="None"/>\u000a    <Param name="Screen" val="1" valType="num" updates="None"/>\u000a  </Settings>\u000a  <Routines>\u000a    <Routine name="trial">\u000a      <CodeComponent name="code_2">\u000a        <Param name="Begin Experiment" val="" valType="extendedCode" updates="constant"/>\u000a        <Param name="name" val="code_2" valType="code" updates="None"/>\u000a        <Param name="Begin Routine" val="import random&#10;&#10;Integers = [1, 2, 3, 4, 5, 6, 7, 8]&#10;&#10;if Redo == 1:&#10;    ConditionChoice = random.choice(Integers)&#10;    if ConditionChoice == 1:&#10;        CurrentStimulus = ConditionOne['fileName']&#10;    elif ConditionChoice == 2:&#10;        CurrentStimulus = ConditionTwo['fileName']&#10;    elif ConditionChoice == 3:&#10;        CurrentStimulus = ConditionThree['fileName']&#10;    elif ConditionChoice == 4:&#10;        CurrentStimulus = ConditionFour['fileName']&#10;    elif ConditionChoice == 5:&#10;        CurrentStimulus = ConditionFive['fileName']&#10;    elif ConditionChoice == 6:&#10;        CurrentStimulus = ConditionSix['fileName']&#10;    elif ConditionChoice == 7:&#10;        CurrentStimulus = ConditionSeven['fileName']&#10;    elif ConditionChoice == 8:&#10;        CurrentStimulus = ConditionEight['fileName']" valType="extendedCode" updates="constant"/>\u000a        <Param name="End Routine" val="" valType="extendedCode" updates="constant"/>\u000a        <Param name="End Experiment" val="" valType="extendedCode" updates="constant"/>\u000a        <Param name="Each Frame" val="" valType="extendedCode" updates="constant"/>\u000a      </CodeComponent>\u000a      <KeyboardComponent name="resp">\u000a        <Param name="correctAns" val="$corrAns" valType="str" updates="constant"/>\u000a        <Param name="storeCorrect" val="True" valType="bool" updates="constant"/>\u000a        <Param name="name" val="resp" valType="code" updates="None"/>\u000a        <Param name="stopVal" val="1" valType="code" updates="constant"/>\u000a        <Param name="durationEstim" val="" valType="code" updates="None"/>\u000a        <Param name="forceEndRoutine" val="True" valType="bool" updates="constant"/>\u000a        <Param name="startEstim" val="" valType="code" updates="None"/>\u000a        <Param name="discard previous" val="True" valType="bool" updates="constant"/>\u000a        <Param name="startType" val="time (s)" valType="str" updates="None"/>\u000a        <Param name="allowedKeys" val="'t', 'y', 'g', 'h'" valType="code" updates="constant"/>\u000a        <Param name="stopType" val="duration (s)" valType="str" updates="None"/>\u000a        <Param name="startVal" val=".5" valType="code" updates="None"/>\u000a        <Param name="store" val="last key" valType="str" updates="constant"/>\u000a      </KeyboardComponent>\u000a      <TextComponent name="text">\u000a        <Param name="opacity" val="1" valType="code" updates="constant"/>\u000a        <Param name="colorSpace" val="rgb" valType="str" updates="constant"/>\u000a        <Param name="name" val="text" valType="code" updates="None"/>\u000a        <Param name="wrapWidth" val="" valType="code" updates="constant"/>\u000a        <Param name="color" val="white" valType="str" updates="constant"/>\u000a        <Param name="text" val="+" valType="str" updates="constant"/>\u000a        <Param name="stopVal" val="1.5" valType="code" updates="constant"/>\u000a        <Param name="durationEstim" val="" valType="code" updates="None"/>\u000a        <Param name="pos" val="[0, 0]" valType="code" updates="constant"/>\u000a        <Param name="flip" val="" valType="str" updates="constant"/>\u000a        <Param name="startEstim" val="" valType="code" updates="None"/>\u000a        <Param name="units" val="from exp settings" valType="str" updates="None"/>\u000a        <Param name="startType" val="time (s)" valType="str" updates="None"/>\u000a        <Param name="ori" val="0" valType="code" updates="constant"/>\u000a        <Param name="stopType" val="duration (s)" valType="str" updates="None"/>\u000a        <Param name="startVal" val="0.0" valType="code" updates="None"/>\u000a        <Param name="font" val="Arial" valType="str" updates="constant"/>\u000a        <Param name="letterHeight" val="1" valType="code" updates="constant"/>\u000a      </TextComponent>\u000a      <ImageComponent name="image_2">\u000a        <Param name="opacity" val="1" valType="code" updates="constant"/>\u000a        <Param name="flipVert" val="False" valType="bool" updates="constant"/>\u000a        <Param name="colorSpace" val="rgb" valType="str" updates="constant"/>\u000a        <Param name="name" val="image_2" valType="code" updates="None"/>\u000a        <Param name="color" val="$[1,1,1]" valType="str" updates="constant"/>\u000a        <Param name="stopVal" val="1.0" valType="code" updates="constant"/>\u000a        <Param name="durationEstim" val="" valType="code" updates="None"/>\u000a        <Param name="mask" val="None" valType="str" updates="constant"/>\u000a        <Param name="pos" val="$[xPos, yPos]" valType="code" updates="set every repeat"/>\u000a        <Param name="interpolate" val="linear" valType="str" updates="constant"/>\u000a        <Param name="startEstim" val="" valType="code" updates="None"/>\u000a        <Param name="units" val="pix" valType="str" updates="None"/>\u000a        <Param name="texture resolution" val="128" valType="code" updates="constant"/>\u000a        <Param name="startType" val="time (s)" valType="str" updates="None"/>\u000a        <Param name="ori" val="0" valType="code" updates="constant"/>\u000a        <Param name="stopType" val="duration (s)" valType="str" updates="None"/>\u000a        <Param name="startVal" val=".5" valType="code" updates="None"/>\u000a        <Param name="flipHoriz" val="False" valType="bool" updates="constant"/>\u000a        <Param name="image" val="$CurrentStimulus" valType="str" updates="set every repeat"/>\u000a        <Param name="size" val="[101, 101]" valType="code" updates="constant"/>\u000a      </ImageComponent>\u000a    </Routine>\u000a    <Routine name="StimSetup">\u000a      <CodeComponent name="code">\u000a        <Param name="Begin Experiment" val="import random&#10;Redo = 1&#10;colors = ['yellow', 'white', 'orange', 'magenta', 'green', 'gray', 'cyan', 'blue']&#10;shapes = ['triangle', 'square', 'line', 'invertedtriangle', 'hexagon', 'diamond', 'cross', 'circle']&#10;rewards = [0.5, 1, 2, 4] * 2&#10;conditions = ['go', 'go', 'go', 'go', 'stop', 'stop', 'stop', 'stop']&#10;trialDetailsList = []&#10;&#10;shuffle(colors)&#10;shuffle(shapes)&#10;&#10;for i, color in enumerate(colors): # cycle through each color and keep track of an index number&#10;    trialDetails = {} # a dictionary of key-value pairs&#10;    trialDetails['fileName'] = shapes[i] + color + '.gif'&#10;    trialDetails['reward'] = rewards[i]&#10;    trialDetails['condition'] = conditions[i]&#10;    trialDetailsList.append(trialDetails)&#10;&#10;shuffle(trialDetailsList) # do this now to ensure that order of presentation of rewards and conditions is also shuffled&#10;&#10;ConditionOne = trialDetailsList[0]&#10;ConditionTwo = trialDetailsList[1]&#10;ConditionThree = trialDetailsList[2]&#10;ConditionFour = trialDetailsList[3]&#10;ConditionFive = trialDetailsList[4]&#10;ConditionSix = trialDetailsList[5]&#10;ConditionSeven = trialDetailsList[6]&#10;ConditionEight = trialDetailsList[7]" valType="extendedCode" updates="constant"/>\u000a        <Param name="name" val="code" valType="code" updates="None"/>\u000a        <Param name="Begin Routine" val="" valType="extendedCode" updates="constant"/>\u000a        <Param name="End Routine" val="" valType="extendedCode" updates="constant"/>\u000a        <Param name="End Experiment" val="" valType="extendedCode" updates="constant"/>\u000a        <Param name="Each Frame" val="" valType="extendedCode" updates="constant"/>\u000a      </CodeComponent>\u000a    </Routine>\u000a    <Routine name="instrMain">\u000a      <TextComponent name="instr2">\u000a        <Param name="opacity" val="1" valType="code" updates="constant"/>\u000a        <Param name="colorSpace" val="rgb" valType="str" updates="constant"/>\u000a        <Param name="name" val="instr2" valType="code" updates="constant"/>\u000a        <Param name="wrapWidth" val="" valType="code" updates="constant"/>\u000a        <Param name="color" val="white" valType="str" updates="constant"/>\u000a        <Param name="text" val="OK, ready to start the main experiment?&#10;&#10;Remember, press;&#10; - 'S' if the SMALL letters are S&#10; - 'H' if the SMALL letters are H&#10;&#10;Try to respond as quickly and as accurately as possible.&#10;&#10;When you are ready to proceed press any key." valType="str" updates="constant"/>\u000a        <Param name="stopVal" val="" valType="code" updates="constant"/>\u000a        <Param name="durationEstim" val="" valType="code" updates="None"/>\u000a        <Param name="pos" val="[0, 0]" valType="code" updates="constant"/>\u000a        <Param name="flip" val="" valType="str" updates="constant"/>\u000a        <Param name="startEstim" val="" valType="code" updates="None"/>\u000a        <Param name="units" val="from exp settings" valType="str" updates="None"/>\u000a        <Param name="startType" val="time (s)" valType="str" updates="None"/>\u000a        <Param name="ori" val="0" valType="code" updates="constant"/>\u000a        <Param name="stopType" val="duration (s)" valType="str" updates="None"/>\u000a        <Param name="startVal" val="0.0" valType="code" updates="None"/>\u000a        <Param name="font" val="Arial" valType="str" updates="constant"/>\u000a        <Param name="letterHeight" val="0.075" valType="code" updates="constant"/>\u000a      </TextComponent>\u000a      <KeyboardComponent name="ok2">\u000a        <Param name="correctAns" val="" valType="str" updates="constant"/>\u000a        <Param name="storeCorrect" val="False" valType="bool" updates="constant"/>\u000a        <Param name="name" val="ok2" valType="code" updates="None"/>\u000a        <Param name="stopVal" val="" valType="code" updates="constant"/>\u000a        <Param name="durationEstim" val="" valType="code" updates="None"/>\u000a        <Param name="forceEndRoutine" val="True" valType="bool" updates="constant"/>\u000a        <Param name="startEstim" val="" valType="code" updates="None"/>\u000a        <Param name="discard previous" val="True" valType="bool" updates="constant"/>\u000a        <Param name="startType" val="time (s)" valType="str" updates="None"/>\u000a        <Param name="allowedKeys" val="" valType="code" updates="constant"/>\u000a        <Param name="stopType" val="duration (s)" valType="str" updates="None"/>\u000a        <Param name="startVal" val="0.0" valType="code" updates="None"/>\u000a        <Param name="store" val="nothing" valType="str" updates="constant"/>\u000a      </KeyboardComponent>\u000a    </Routine>\u000a    <Routine name="feedback">\u000a      <CodeComponent name="message">\u000a        <Param name="Begin Experiment" val="#message variable just needs some value at start&#10;message=0" valType="extendedCode" updates="constant"/>\u000a        <Param name="name" val="message" valType="code" updates="None"/>\u000a        <Param name="Begin Routine" val="DisplayReward = random.randrange(1, 6)&#10;&#10;if resp.corr:#stored on last run routine&#10;    if DisplayReward == 1:&#10;            message = 0;&#10;    else:&#10;        if ConditionChoice == 1:&#10;            CurrentReward = ConditionOne['reward']&#10;            message = CurrentReward + (random.randrange(-25, 26)*.01)&#10;        elif ConditionChoice == 2:&#10;            CurrentReward = ConditionTwo['reward']&#10;            message = CurrentReward + (random.randrange(-25, 26)*.01)&#10;        elif ConditionChoice == 3:&#10;            CurrentReward = ConditionThree['reward']&#10;            message = CurrentReward + (random.randrange(-25, 26)*.01)&#10;        elif ConditionChoice == 4:&#10;            CurrentReward = ConditionFour['reward']&#10;            message = CurrentReward + (random.randrange(-25, 26)*.01)&#10;        elif ConditionChoice == 5:&#10;            CurrentReward = ConditionFive['reward']&#10;            message = CurrentReward + (random.randrange(-25, 26)*.01)&#10;        elif ConditionChoice == 6:&#10;            CurrentReward = ConditionSix['reward']&#10;            message = CurrentReward + (random.randrange(-25, 26)*.01)&#10;        elif ConditionChoice == 7:&#10;            CurrentReward = ConditionSeven['reward']&#10;            message = CurrentReward + (random.randrange(-25, 26)*.01)&#10;        elif ConditionChoice == 8:&#10;            CurrentReward = ConditionEight['reward']&#10;            message = CurrentReward + (random.randrange(-25, 26)*.01)&#10;elif resp.keys is None: #or len(key_resp.keys)&lt;1:&#10;#elif resp.rt == 0:&#10;    message =&quot;Too Slow&quot;&#10;else:&#10;  message=&quot;Wrong&quot;&#10;&#10;if resp.corr:#stored on last run routine&#10;    Redo = 1; &#10;else:&#10;    Redo = Redo + 1;&#10;&#10;#if DisplayReward == 1:&#10;#    message = 0;&#10;#else:&#10;#    message = CurrentReward + (random.randrange(-25, 26)*.01)&#10;&#10;#  message=&quot;Correct! RT=%.3f&quot; %(resp.rt)" valType="extendedCode" updates="constant"/>\u000a        <Param name="End Routine" val="" valType="extendedCode" updates="constant"/>\u000a        <Param name="End Experiment" val="" valType="extendedCode" updates="constant"/>\u000a        <Param name="Each Frame" val="" valType="extendedCode" updates="constant"/>\u000a      </CodeComponent>\u000a      <TextComponent name="feedback_2">\u000a        <Param name="opacity" val="1" valType="code" updates="constant"/>\u000a        <Param name="colorSpace" val="rgb" valType="str" updates="constant"/>\u000a        <Param name="name" val="feedback_2" valType="code" updates="constant"/>\u000a        <Param name="wrapWidth" val="" valType="code" updates="constant"/>\u000a        <Param name="color" val="$[1,1,1]" valType="str" updates="constant"/>\u000a        <Param name="text" val="$message" valType="str" updates="set every repeat"/>\u000a        <Param name="stopVal" val="1.0" valType="code" updates="constant"/>\u000a        <Param name="durationEstim" val="" valType="code" updates="None"/>\u000a        <Param name="pos" val="[0, 0]" valType="code" updates="constant"/>\u000a        <Param name="flip" val="" valType="str" updates="constant"/>\u000a        <Param name="startEstim" val="" valType="code" updates="None"/>\u000a        <Param name="units" val="from exp settings" valType="str" updates="None"/>\u000a        <Param name="startType" val="time (s)" valType="str" updates="None"/>\u000a        <Param name="ori" val="0" valType="code" updates="constant"/>\u000a        <Param name="stopType" val="duration (s)" valType="str" updates="None"/>\u000a        <Param name="startVal" val="0.0" valType="code" updates="None"/>\u000a        <Param name="font" val="Arial" valType="str" updates="constant"/>\u000a        <Param name="letterHeight" val="0.1" valType="code" updates="constant"/>\u000a      </TextComponent>\u000a    </Routine>\u000a    <Routine name="instrPractice">\u000a      <TextComponent name="instruct1">\u000a        <Param name="opacity" val="1" valType="code" updates="constant"/>\u000a        <Param name="colorSpace" val="rgb" valType="str" updates="constant"/>\u000a        <Param name="name" val="instruct1" valType="code" updates="constant"/>\u000a        <Param name="wrapWidth" val="" valType="code" updates="constant"/>\u000a        <Param name="color" val="white" valType="str" updates="constant"/>\u000a        <Param name="text" val="A shape stimulus will appear on every trial. &#10;&#10;If it appears in the upper right quadrant, PRESS Y&#10;&#10;If it appears in the lower right quadrant, PRESS H&#10;&#10;If it appears in the lower left quadrant, PRESS G&#10;&#10;If it appears in the upper left quadrant, PRESS T&#10;&#10;Press any key when you are ready to proceed. " valType="str" updates="constant"/>\u000a        <Param name="stopVal" val="" valType="code" updates="constant"/>\u000a        <Param name="durationEstim" val="" valType="code" updates="None"/>\u000a        <Param name="pos" val="[0, 0]" valType="code" updates="constant"/>\u000a        <Param name="flip" val="" valType="str" updates="constant"/>\u000a        <Param name="startEstim" val="" valType="code" updates="None"/>\u000a        <Param name="units" val="from exp settings" valType="str" updates="None"/>\u000a        <Param name="startType" val="time (s)" valType="str" updates="None"/>\u000a        <Param name="ori" val="0" valType="code" updates="constant"/>\u000a        <Param name="stopType" val="duration (s)" valType="str" updates="None"/>\u000a        <Param name="startVal" val="0.0" valType="code" updates="None"/>\u000a        <Param name="font" val="Arial" valType="str" updates="constant"/>\u000a        <Param name="letterHeight" val="0.07" valType="code" updates="constant"/>\u000a      </TextComponent>\u000a      <KeyboardComponent name="ok1">\u000a        <Param name="correctAns" val="" valType="str" updates="constant"/>\u000a        <Param name="storeCorrect" val="False" valType="bool" updates="constant"/>\u000a        <Param name="name" val="ok1" valType="code" updates="None"/>\u000a        <Param name="stopVal" val="" valType="code" updates="constant"/>\u000a        <Param name="durationEstim" val="" valType="code" updates="None"/>\u000a        <Param name="forceEndRoutine" val="True" valType="bool" updates="constant"/>\u000a        <Param name="startEstim" val="" valType="code" updates="None"/>\u000a        <Param name="discard previous" val="True" valType="bool" updates="constant"/>\u000a        <Param name="startType" val="time (s)" valType="str" updates="None"/>\u000a        <Param name="allowedKeys" val="" valType="code" updates="constant"/>\u000a        <Param name="stopType" val="duration (s)" valType="str" updates="None"/>\u000a        <Param name="startVal" val="0.0" valType="code" updates="None"/>\u000a        <Param name="store" val="last key" valType="str" updates="constant"/>\u000a      </KeyboardComponent>\u000a    </Routine>\u000a  </Routines>\u000a  <Flow>\u000a    <Routine name="StimSetup"/>\u000a    <Routine name="instrPractice"/>\u000a    <LoopInitiator loopType="TrialHandler" name="practiceTrials">\u000a      <Param name="conditionsFile" val="Trialtypes5.xlsx" valType="str" updates="None"/>\u000a      <Param name="name" val="practiceTrials" valType="code" updates="None"/>\u000a      <Param name="isTrials" val="True" valType="bool" updates="None"/>\u000a      <Param name="random seed" val="" valType="code" updates="None"/>\u000a      <Param name="loopType" val="random" valType="str" updates="None"/>\u000a      <Param name="nReps" val="1" valType="num" updates="None"/>\u000a      <Param name="endPoints" val="[1, 2]" valType="num" updates="None"/>\u000a      <Param name="conditions" val="[{u'xPos': 200, u'corrAns': u'y', u'yPos': 200}, {u'xPos': -200, u'corrAns': u't', u'yPos': 200}, {u'xPos': 200, u'corrAns': u'h', u'yPos': -200}, {u'xPos': -200, u'corrAns': u'g', u'yPos': -200}]" valType="str" updates="None"/>\u000a      <Param name="Selected rows" val="" valType="str" updates="None"/>\u000a    </LoopInitiator>\u000a    <LoopInitiator loopType="TrialHandler" name="ReDoLoop">\u000a      <Param name="conditionsFile" val="" valType="str" updates="None"/>\u000a      <Param name="name" val="ReDoLoop" valType="code" updates="None"/>\u000a      <Param name="isTrials" val="True" valType="bool" updates="None"/>\u000a      <Param name="random seed" val="" valType="code" updates="None"/>\u000a      <Param name="loopType" val="random" valType="str" updates="None"/>\u000a      <Param name="nReps" val="$Redo" valType="code" updates="None"/>\u000a      <Param name="endPoints" val="[0, 1]" valType="num" updates="None"/>\u000a      <Param name="conditions" val="None" valType="str" updates="None"/>\u000a      <Param name="Selected rows" val="" valType="code" updates="None"/>\u000a    </LoopInitiator>\u000a    <Routine name="trial"/>\u000a    <Routine name="feedback"/>\u000a    <LoopTerminator name="ReDoLoop"/>\u000a    <LoopTerminator name="practiceTrials"/>\u000a    <Routine name="instrMain"/>\u000a    <LoopInitiator loopType="TrialHandler" name="trials">\u000a      <Param name="conditionsFile" val="Trialtypes5.xlsx" valType="str" updates="None"/>\u000a      <Param name="name" val="trials" valType="code" updates="None"/>\u000a      <Param name="isTrials" val="True" valType="bool" updates="None"/>\u000a      <Param name="random seed" val="" valType="code" updates="None"/>\u000a      <Param name="loopType" val="random" valType="str" updates="None"/>\u000a      <Param name="nReps" val="10" valType="num" updates="None"/>\u000a      <Param name="endPoints" val="[0, 1]" valType="num" updates="None"/>\u000a      <Param name="conditions" val="[{u'xPos': 200, u'corrAns': u'y', u'yPos': 200}, {u'xPos': -200, u'corrAns': u't', u'yPos': 200}, {u'xPos': 200, u'corrAns': u'h', u'yPos': -200}, {u'xPos': -200, u'corrAns': u'g', u'yPos': -200}]" valType="str" updates="None"/>\u000a      <Param name="Selected rows" val="" valType="str" updates="None"/>\u000a    </LoopInitiator>\u000a    <Routine name="trial"/>\u000a    <Routine name="feedback"/>\u000a    <LoopTerminator name="trials"/>\u000a  </Flow>\u000a</PsychoPy2experiment>\u000a
p517
sg43
(lp518
sg51
I235079088
sg11
g482
sg6
g7
sg53
I4
sg20
I01
sg21
g22
sg54
g1
(g55
g45
(dp519
g57
g58
(g59
g60
g61
S'b'
tRp520
(I1
(I1
I4
tg63
I00
S'\x00\x00\x80?\x00\x00\x80?\x00\x00\x80?\x00\x00\x80?'
S'\x00\x00\x00\x00'
Ntbsg17
g64
(g60
(I0
tS'b'
tRp521
(I1
(I1
I4
tg66
I00
(lp522
S'h'
aS'h'
aS'h'
aS'h'
atbsg18
g58
(g59
g60
g61
S'b'
tRp523
(I1
(I1
I4
tg63
I00
S'\x00\x00\x80?\x00\x00\x80?\x00\x00\x80?\x00\x00\x80?'
S'\x00\x00\x00\x00'
Ntbsg72
g58
(g59
g60
g61
S'b'
tRp524
(I1
(I1
I4
tg63
I00
S'\x00\x00\x00\x00\x00\x00\x80?\x00\x00\x00@\x00\x00@@'
S'\x00\x00\x00\x00'
Ntbsg19
g58
(g59
g60
g61
S'b'
tRp525
(I1
(I1
I4
tg63
I00
S'\xd8}\xde>H\xbe&?\xbc\xc4\x08?\x08\xfb*?'
S'\x00\x00\x00\x00'
NtbstRp526
(dp527
g77
(dp528
g57
I01
sg17
I00
sg19
I01
sg72
I01
sg18
I01
ssg52
g515
sg79
(lp529
g57
ag72
ag17
ag18
ag19
asg81
(lp530
I1
aI4
asbsg83
g84
sg85
g64
(g60
(I0
tS'b'
tRp531
(I1
(I1
I4
tg87
I01
S'\x00\x00\x00\x00\x00\x00\x00\x00\x00\x00\x00\x00\x00\x00\x00\x00'
tbsg88
I01
sg89
I4
sg90
I-1
sg91
(lp532
Nasg99
Nsg100
g201
sg102
I4
sg103
I0
sg104
I4
sg105
I01
sbag1
(g38
g3
NtRp533
(dp534
g41
V<PsychoPy2experiment version="1.82.01" encoding="utf-8">\u000a  <Settings>\u000a    <Param name="Show mouse" val="False" valType="bool" updates="None"/>\u000a    <Param name="Data filename" val="u'data' + os.sep + '%s_%s' %(expInfo['participant'], expInfo['date'])" valType="code" updates="None"/>\u000a    <Param name="Monitor" val="testMonitor" valType="str" updates="None"/>\u000a    <Param name="Enable Escape" val="True" valType="bool" updates="None"/>\u000a    <Param name="color" val="black" valType="str" updates="None"/>\u000a    <Param name="Window size (pixels)" val="[1680, 1050]" valType="code" updates="None"/>\u000a    <Param name="Full-screen window" val="True" valType="bool" updates="None"/>\u000a    <Param name="colorSpace" val="rgb" valType="str" updates="None"/>\u000a    <Param name="Experiment info" val="{'participant':'', 'gender (m/f)':'', 'age':'', 'session':03}" valType="code" updates="None"/>\u000a    <Param name="Save csv file" val="False" valType="bool" updates="None"/>\u000a    <Param name="Show info dlg" val="True" valType="bool" updates="None"/>\u000a    <Param name="Save wide csv file" val="True" valType="bool" updates="None"/>\u000a    <Param name="Save psydat file" val="True" valType="bool" updates="None"/>\u000a    <Param name="expName" val="LearningTask" valType="str" updates="None"/>\u000a    <Param name="logging level" val="warning" valType="code" updates="None"/>\u000a    <Param name="blendMode" val="avg" valType="str" updates="None"/>\u000a    <Param name="Save excel file" val="True" valType="bool" updates="None"/>\u000a    <Param name="Units" val="use prefs" valType="str" updates="None"/>\u000a    <Param name="Save log file" val="True" valType="bool" updates="None"/>\u000a    <Param name="Screen" val="1" valType="num" updates="None"/>\u000a  </Settings>\u000a  <Routines>\u000a    <Routine name="trial">\u000a      <CodeComponent name="code_2">\u000a        <Param name="Begin Experiment" val="" valType="extendedCode" updates="constant"/>\u000a        <Param name="name" val="code_2" valType="code" updates="None"/>\u000a        <Param name="Begin Routine" val="import random&#10;&#10;Integers = [1, 2, 3, 4, 5, 6, 7, 8]&#10;&#10;if Redo == 1:&#10;    ConditionChoice = random.choice(Integers)&#10;    if ConditionChoice == 1:&#10;        CurrentStimulus = ConditionOne['fileName']&#10;    elif ConditionChoice == 2:&#10;        CurrentStimulus = ConditionTwo['fileName']&#10;    elif ConditionChoice == 3:&#10;        CurrentStimulus = ConditionThree['fileName']&#10;    elif ConditionChoice == 4:&#10;        CurrentStimulus = ConditionFour['fileName']&#10;    elif ConditionChoice == 5:&#10;        CurrentStimulus = ConditionFive['fileName']&#10;    elif ConditionChoice == 6:&#10;        CurrentStimulus = ConditionSix['fileName']&#10;    elif ConditionChoice == 7:&#10;        CurrentStimulus = ConditionSeven['fileName']&#10;    elif ConditionChoice == 8:&#10;        CurrentStimulus = ConditionEight['fileName']" valType="extendedCode" updates="constant"/>\u000a        <Param name="End Routine" val="" valType="extendedCode" updates="constant"/>\u000a        <Param name="End Experiment" val="" valType="extendedCode" updates="constant"/>\u000a        <Param name="Each Frame" val="" valType="extendedCode" updates="constant"/>\u000a      </CodeComponent>\u000a      <KeyboardComponent name="resp">\u000a        <Param name="correctAns" val="$corrAns" valType="str" updates="constant"/>\u000a        <Param name="storeCorrect" val="True" valType="bool" updates="constant"/>\u000a        <Param name="name" val="resp" valType="code" updates="None"/>\u000a        <Param name="stopVal" val="1" valType="code" updates="constant"/>\u000a        <Param name="durationEstim" val="" valType="code" updates="None"/>\u000a        <Param name="forceEndRoutine" val="True" valType="bool" updates="constant"/>\u000a        <Param name="startEstim" val="" valType="code" updates="None"/>\u000a        <Param name="discard previous" val="True" valType="bool" updates="constant"/>\u000a        <Param name="startType" val="time (s)" valType="str" updates="None"/>\u000a        <Param name="allowedKeys" val="'t', 'y', 'g', 'h'" valType="code" updates="constant"/>\u000a        <Param name="stopType" val="duration (s)" valType="str" updates="None"/>\u000a        <Param name="startVal" val=".5" valType="code" updates="None"/>\u000a        <Param name="store" val="last key" valType="str" updates="constant"/>\u000a      </KeyboardComponent>\u000a      <TextComponent name="text">\u000a        <Param name="opacity" val="1" valType="code" updates="constant"/>\u000a        <Param name="colorSpace" val="rgb" valType="str" updates="constant"/>\u000a        <Param name="name" val="text" valType="code" updates="None"/>\u000a        <Param name="wrapWidth" val="" valType="code" updates="constant"/>\u000a        <Param name="color" val="white" valType="str" updates="constant"/>\u000a        <Param name="text" val="+" valType="str" updates="constant"/>\u000a        <Param name="stopVal" val="1.5" valType="code" updates="constant"/>\u000a        <Param name="durationEstim" val="" valType="code" updates="None"/>\u000a        <Param name="pos" val="[0, 0]" valType="code" updates="constant"/>\u000a        <Param name="flip" val="" valType="str" updates="constant"/>\u000a        <Param name="startEstim" val="" valType="code" updates="None"/>\u000a        <Param name="units" val="from exp settings" valType="str" updates="None"/>\u000a        <Param name="startType" val="time (s)" valType="str" updates="None"/>\u000a        <Param name="ori" val="0" valType="code" updates="constant"/>\u000a        <Param name="stopType" val="duration (s)" valType="str" updates="None"/>\u000a        <Param name="startVal" val="0.0" valType="code" updates="None"/>\u000a        <Param name="font" val="Arial" valType="str" updates="constant"/>\u000a        <Param name="letterHeight" val="1" valType="code" updates="constant"/>\u000a      </TextComponent>\u000a      <ImageComponent name="image_2">\u000a        <Param name="opacity" val="1" valType="code" updates="constant"/>\u000a        <Param name="flipVert" val="False" valType="bool" updates="constant"/>\u000a        <Param name="colorSpace" val="rgb" valType="str" updates="constant"/>\u000a        <Param name="name" val="image_2" valType="code" updates="None"/>\u000a        <Param name="color" val="$[1,1,1]" valType="str" updates="constant"/>\u000a        <Param name="stopVal" val="1.0" valType="code" updates="constant"/>\u000a        <Param name="durationEstim" val="" valType="code" updates="None"/>\u000a        <Param name="mask" val="None" valType="str" updates="constant"/>\u000a        <Param name="pos" val="$[xPos, yPos]" valType="code" updates="set every repeat"/>\u000a        <Param name="interpolate" val="linear" valType="str" updates="constant"/>\u000a        <Param name="startEstim" val="" valType="code" updates="None"/>\u000a        <Param name="units" val="pix" valType="str" updates="None"/>\u000a        <Param name="texture resolution" val="128" valType="code" updates="constant"/>\u000a        <Param name="startType" val="time (s)" valType="str" updates="None"/>\u000a        <Param name="ori" val="0" valType="code" updates="constant"/>\u000a        <Param name="stopType" val="duration (s)" valType="str" updates="None"/>\u000a        <Param name="startVal" val=".5" valType="code" updates="None"/>\u000a        <Param name="flipHoriz" val="False" valType="bool" updates="constant"/>\u000a        <Param name="image" val="$CurrentStimulus" valType="str" updates="set every repeat"/>\u000a        <Param name="size" val="[101, 101]" valType="code" updates="constant"/>\u000a      </ImageComponent>\u000a    </Routine>\u000a    <Routine name="StimSetup">\u000a      <CodeComponent name="code">\u000a        <Param name="Begin Experiment" val="import random&#10;Redo = 1&#10;colors = ['yellow', 'white', 'orange', 'magenta', 'green', 'gray', 'cyan', 'blue']&#10;shapes = ['triangle', 'square', 'line', 'invertedtriangle', 'hexagon', 'diamond', 'cross', 'circle']&#10;rewards = [0.5, 1, 2, 4] * 2&#10;conditions = ['go', 'go', 'go', 'go', 'stop', 'stop', 'stop', 'stop']&#10;trialDetailsList = []&#10;&#10;shuffle(colors)&#10;shuffle(shapes)&#10;&#10;for i, color in enumerate(colors): # cycle through each color and keep track of an index number&#10;    trialDetails = {} # a dictionary of key-value pairs&#10;    trialDetails['fileName'] = shapes[i] + color + '.gif'&#10;    trialDetails['reward'] = rewards[i]&#10;    trialDetails['condition'] = conditions[i]&#10;    trialDetailsList.append(trialDetails)&#10;&#10;shuffle(trialDetailsList) # do this now to ensure that order of presentation of rewards and conditions is also shuffled&#10;&#10;ConditionOne = trialDetailsList[0]&#10;ConditionTwo = trialDetailsList[1]&#10;ConditionThree = trialDetailsList[2]&#10;ConditionFour = trialDetailsList[3]&#10;ConditionFive = trialDetailsList[4]&#10;ConditionSix = trialDetailsList[5]&#10;ConditionSeven = trialDetailsList[6]&#10;ConditionEight = trialDetailsList[7]" valType="extendedCode" updates="constant"/>\u000a        <Param name="name" val="code" valType="code" updates="None"/>\u000a        <Param name="Begin Routine" val="" valType="extendedCode" updates="constant"/>\u000a        <Param name="End Routine" val="" valType="extendedCode" updates="constant"/>\u000a        <Param name="End Experiment" val="" valType="extendedCode" updates="constant"/>\u000a        <Param name="Each Frame" val="" valType="extendedCode" updates="constant"/>\u000a      </CodeComponent>\u000a    </Routine>\u000a    <Routine name="instrMain">\u000a      <TextComponent name="instr2">\u000a        <Param name="opacity" val="1" valType="code" updates="constant"/>\u000a        <Param name="colorSpace" val="rgb" valType="str" updates="constant"/>\u000a        <Param name="name" val="instr2" valType="code" updates="constant"/>\u000a        <Param name="wrapWidth" val="" valType="code" updates="constant"/>\u000a        <Param name="color" val="white" valType="str" updates="constant"/>\u000a        <Param name="text" val="OK, ready to start the main experiment?&#10;&#10;Remember, press;&#10; - 'S' if the SMALL letters are S&#10; - 'H' if the SMALL letters are H&#10;&#10;Try to respond as quickly and as accurately as possible.&#10;&#10;When you are ready to proceed press any key." valType="str" updates="constant"/>\u000a        <Param name="stopVal" val="" valType="code" updates="constant"/>\u000a        <Param name="durationEstim" val="" valType="code" updates="None"/>\u000a        <Param name="pos" val="[0, 0]" valType="code" updates="constant"/>\u000a        <Param name="flip" val="" valType="str" updates="constant"/>\u000a        <Param name="startEstim" val="" valType="code" updates="None"/>\u000a        <Param name="units" val="from exp settings" valType="str" updates="None"/>\u000a        <Param name="startType" val="time (s)" valType="str" updates="None"/>\u000a        <Param name="ori" val="0" valType="code" updates="constant"/>\u000a        <Param name="stopType" val="duration (s)" valType="str" updates="None"/>\u000a        <Param name="startVal" val="0.0" valType="code" updates="None"/>\u000a        <Param name="font" val="Arial" valType="str" updates="constant"/>\u000a        <Param name="letterHeight" val="0.075" valType="code" updates="constant"/>\u000a      </TextComponent>\u000a      <KeyboardComponent name="ok2">\u000a        <Param name="correctAns" val="" valType="str" updates="constant"/>\u000a        <Param name="storeCorrect" val="False" valType="bool" updates="constant"/>\u000a        <Param name="name" val="ok2" valType="code" updates="None"/>\u000a        <Param name="stopVal" val="" valType="code" updates="constant"/>\u000a        <Param name="durationEstim" val="" valType="code" updates="None"/>\u000a        <Param name="forceEndRoutine" val="True" valType="bool" updates="constant"/>\u000a        <Param name="startEstim" val="" valType="code" updates="None"/>\u000a        <Param name="discard previous" val="True" valType="bool" updates="constant"/>\u000a        <Param name="startType" val="time (s)" valType="str" updates="None"/>\u000a        <Param name="allowedKeys" val="" valType="code" updates="constant"/>\u000a        <Param name="stopType" val="duration (s)" valType="str" updates="None"/>\u000a        <Param name="startVal" val="0.0" valType="code" updates="None"/>\u000a        <Param name="store" val="nothing" valType="str" updates="constant"/>\u000a      </KeyboardComponent>\u000a    </Routine>\u000a    <Routine name="feedback">\u000a      <CodeComponent name="message">\u000a        <Param name="Begin Experiment" val="#message variable just needs some value at start&#10;message=0" valType="extendedCode" updates="constant"/>\u000a        <Param name="name" val="message" valType="code" updates="None"/>\u000a        <Param name="Begin Routine" val="DisplayReward = random.randrange(1, 6)&#10;&#10;if resp.corr:#stored on last run routine&#10;    if DisplayReward == 1:&#10;            message = 0;&#10;    else:&#10;        if ConditionChoice == 1:&#10;            CurrentReward = ConditionOne['reward']&#10;            message = CurrentReward + (random.randrange(-25, 26)*.01)&#10;        elif ConditionChoice == 2:&#10;            CurrentReward = ConditionTwo['reward']&#10;            message = CurrentReward + (random.randrange(-25, 26)*.01)&#10;        elif ConditionChoice == 3:&#10;            CurrentReward = ConditionThree['reward']&#10;            message = CurrentReward + (random.randrange(-25, 26)*.01)&#10;        elif ConditionChoice == 4:&#10;            CurrentReward = ConditionFour['reward']&#10;            message = CurrentReward + (random.randrange(-25, 26)*.01)&#10;        elif ConditionChoice == 5:&#10;            CurrentReward = ConditionFive['reward']&#10;            message = CurrentReward + (random.randrange(-25, 26)*.01)&#10;        elif ConditionChoice == 6:&#10;            CurrentReward = ConditionSix['reward']&#10;            message = CurrentReward + (random.randrange(-25, 26)*.01)&#10;        elif ConditionChoice == 7:&#10;            CurrentReward = ConditionSeven['reward']&#10;            message = CurrentReward + (random.randrange(-25, 26)*.01)&#10;        elif ConditionChoice == 8:&#10;            CurrentReward = ConditionEight['reward']&#10;            message = CurrentReward + (random.randrange(-25, 26)*.01)&#10;elif resp.keys is None: #or len(key_resp.keys)&lt;1:&#10;#elif resp.rt == 0:&#10;    message =&quot;Too Slow&quot;&#10;else:&#10;  message=&quot;Wrong&quot;&#10;&#10;if resp.corr:#stored on last run routine&#10;    Redo = 1; &#10;else:&#10;    Redo = Redo + 1;&#10;&#10;#if DisplayReward == 1:&#10;#    message = 0;&#10;#else:&#10;#    message = CurrentReward + (random.randrange(-25, 26)*.01)&#10;&#10;#  message=&quot;Correct! RT=%.3f&quot; %(resp.rt)" valType="extendedCode" updates="constant"/>\u000a        <Param name="End Routine" val="" valType="extendedCode" updates="constant"/>\u000a        <Param name="End Experiment" val="" valType="extendedCode" updates="constant"/>\u000a        <Param name="Each Frame" val="" valType="extendedCode" updates="constant"/>\u000a      </CodeComponent>\u000a      <TextComponent name="feedback_2">\u000a        <Param name="opacity" val="1" valType="code" updates="constant"/>\u000a        <Param name="colorSpace" val="rgb" valType="str" updates="constant"/>\u000a        <Param name="name" val="feedback_2" valType="code" updates="constant"/>\u000a        <Param name="wrapWidth" val="" valType="code" updates="constant"/>\u000a        <Param name="color" val="$[1,1,1]" valType="str" updates="constant"/>\u000a        <Param name="text" val="$message" valType="str" updates="set every repeat"/>\u000a        <Param name="stopVal" val="1.0" valType="code" updates="constant"/>\u000a        <Param name="durationEstim" val="" valType="code" updates="None"/>\u000a        <Param name="pos" val="[0, 0]" valType="code" updates="constant"/>\u000a        <Param name="flip" val="" valType="str" updates="constant"/>\u000a        <Param name="startEstim" val="" valType="code" updates="None"/>\u000a        <Param name="units" val="from exp settings" valType="str" updates="None"/>\u000a        <Param name="startType" val="time (s)" valType="str" updates="None"/>\u000a        <Param name="ori" val="0" valType="code" updates="constant"/>\u000a        <Param name="stopType" val="duration (s)" valType="str" updates="None"/>\u000a        <Param name="startVal" val="0.0" valType="code" updates="None"/>\u000a        <Param name="font" val="Arial" valType="str" updates="constant"/>\u000a        <Param name="letterHeight" val="0.1" valType="code" updates="constant"/>\u000a      </TextComponent>\u000a    </Routine>\u000a    <Routine name="instrPractice">\u000a      <TextComponent name="instruct1">\u000a        <Param name="opacity" val="1" valType="code" updates="constant"/>\u000a        <Param name="colorSpace" val="rgb" valType="str" updates="constant"/>\u000a        <Param name="name" val="instruct1" valType="code" updates="constant"/>\u000a        <Param name="wrapWidth" val="" valType="code" updates="constant"/>\u000a        <Param name="color" val="white" valType="str" updates="constant"/>\u000a        <Param name="text" val="A shape stimulus will appear on every trial. &#10;&#10;If it appears in the upper right quadrant, PRESS Y&#10;&#10;If it appears in the lower right quadrant, PRESS H&#10;&#10;If it appears in the lower left quadrant, PRESS G&#10;&#10;If it appears in the upper left quadrant, PRESS T&#10;&#10;Press any key when you are ready to proceed. " valType="str" updates="constant"/>\u000a        <Param name="stopVal" val="" valType="code" updates="constant"/>\u000a        <Param name="durationEstim" val="" valType="code" updates="None"/>\u000a        <Param name="pos" val="[0, 0]" valType="code" updates="constant"/>\u000a        <Param name="flip" val="" valType="str" updates="constant"/>\u000a        <Param name="startEstim" val="" valType="code" updates="None"/>\u000a        <Param name="units" val="from exp settings" valType="str" updates="None"/>\u000a        <Param name="startType" val="time (s)" valType="str" updates="None"/>\u000a        <Param name="ori" val="0" valType="code" updates="constant"/>\u000a        <Param name="stopType" val="duration (s)" valType="str" updates="None"/>\u000a        <Param name="startVal" val="0.0" valType="code" updates="None"/>\u000a        <Param name="font" val="Arial" valType="str" updates="constant"/>\u000a        <Param name="letterHeight" val="0.07" valType="code" updates="constant"/>\u000a      </TextComponent>\u000a      <KeyboardComponent name="ok1">\u000a        <Param name="correctAns" val="" valType="str" updates="constant"/>\u000a        <Param name="storeCorrect" val="False" valType="bool" updates="constant"/>\u000a        <Param name="name" val="ok1" valType="code" updates="None"/>\u000a        <Param name="stopVal" val="" valType="code" updates="constant"/>\u000a        <Param name="durationEstim" val="" valType="code" updates="None"/>\u000a        <Param name="forceEndRoutine" val="True" valType="bool" updates="constant"/>\u000a        <Param name="startEstim" val="" valType="code" updates="None"/>\u000a        <Param name="discard previous" val="True" valType="bool" updates="constant"/>\u000a        <Param name="startType" val="time (s)" valType="str" updates="None"/>\u000a        <Param name="allowedKeys" val="" valType="code" updates="constant"/>\u000a        <Param name="stopType" val="duration (s)" valType="str" updates="None"/>\u000a        <Param name="startVal" val="0.0" valType="code" updates="None"/>\u000a        <Param name="store" val="last key" valType="str" updates="constant"/>\u000a      </KeyboardComponent>\u000a    </Routine>\u000a  </Routines>\u000a  <Flow>\u000a    <Routine name="StimSetup"/>\u000a    <Routine name="instrPractice"/>\u000a    <LoopInitiator loopType="TrialHandler" name="practiceTrials">\u000a      <Param name="conditionsFile" val="Trialtypes5.xlsx" valType="str" updates="None"/>\u000a      <Param name="name" val="practiceTrials" valType="code" updates="None"/>\u000a      <Param name="isTrials" val="True" valType="bool" updates="None"/>\u000a      <Param name="random seed" val="" valType="code" updates="None"/>\u000a      <Param name="loopType" val="random" valType="str" updates="None"/>\u000a      <Param name="nReps" val="1" valType="num" updates="None"/>\u000a      <Param name="endPoints" val="[1, 2]" valType="num" updates="None"/>\u000a      <Param name="conditions" val="[{u'xPos': 200, u'corrAns': u'y', u'yPos': 200}, {u'xPos': -200, u'corrAns': u't', u'yPos': 200}, {u'xPos': 200, u'corrAns': u'h', u'yPos': -200}, {u'xPos': -200, u'corrAns': u'g', u'yPos': -200}]" valType="str" updates="None"/>\u000a      <Param name="Selected rows" val="" valType="str" updates="None"/>\u000a    </LoopInitiator>\u000a    <LoopInitiator loopType="TrialHandler" name="ReDoLoop">\u000a      <Param name="conditionsFile" val="" valType="str" updates="None"/>\u000a      <Param name="name" val="ReDoLoop" valType="code" updates="None"/>\u000a      <Param name="isTrials" val="True" valType="bool" updates="None"/>\u000a      <Param name="random seed" val="" valType="code" updates="None"/>\u000a      <Param name="loopType" val="random" valType="str" updates="None"/>\u000a      <Param name="nReps" val="$Redo" valType="code" updates="None"/>\u000a      <Param name="endPoints" val="[0, 1]" valType="num" updates="None"/>\u000a      <Param name="conditions" val="None" valType="str" updates="None"/>\u000a      <Param name="Selected rows" val="" valType="code" updates="None"/>\u000a    </LoopInitiator>\u000a    <Routine name="trial"/>\u000a    <Routine name="feedback"/>\u000a    <LoopTerminator name="ReDoLoop"/>\u000a    <LoopTerminator name="practiceTrials"/>\u000a    <Routine name="instrMain"/>\u000a    <LoopInitiator loopType="TrialHandler" name="trials">\u000a      <Param name="conditionsFile" val="Trialtypes5.xlsx" valType="str" updates="None"/>\u000a      <Param name="name" val="trials" valType="code" updates="None"/>\u000a      <Param name="isTrials" val="True" valType="bool" updates="None"/>\u000a      <Param name="random seed" val="" valType="code" updates="None"/>\u000a      <Param name="loopType" val="random" valType="str" updates="None"/>\u000a      <Param name="nReps" val="10" valType="num" updates="None"/>\u000a      <Param name="endPoints" val="[0, 1]" valType="num" updates="None"/>\u000a      <Param name="conditions" val="[{u'xPos': 200, u'corrAns': u'y', u'yPos': 200}, {u'xPos': -200, u'corrAns': u't', u'yPos': 200}, {u'xPos': 200, u'corrAns': u'h', u'yPos': -200}, {u'xPos': -200, u'corrAns': u'g', u'yPos': -200}]" valType="str" updates="None"/>\u000a      <Param name="Selected rows" val="" valType="str" updates="None"/>\u000a    </LoopInitiator>\u000a    <Routine name="trial"/>\u000a    <Routine name="feedback"/>\u000a    <LoopTerminator name="trials"/>\u000a  </Flow>\u000a</PsychoPy2experiment>\u000a
p535
sg43
(lp536
sg51
I235079088
sg11
g482
sg6
g7
sg53
I1
sg20
I01
sg21
g22
sg54
g1
(g55
g45
(dp537
g57
g58
(g59
g60
g61
S'b'
tRp538
(I1
(I1
I1
tg63
I00
S'\x00\x00\x80?'
S'\x00'
Ntbsg17
g64
(g60
(I0
tS'b'
tRp539
(I1
(I1
I1
tg66
I00
(lp540
S'g'
atbsg18
g58
(g59
g60
g61
S'b'
tRp541
(I1
(I1
I1
tg63
I00
S'\x00\x00\x80?'
S'\x00'
Ntbsg72
g58
(g59
g60
g61
S'b'
tRp542
(I1
(I1
I1
tg63
I00
S'\x00\x00\x00\x00'
S'\x00'
Ntbsg19
g58
(g59
g60
g61
S'b'
tRp543
(I1
(I1
I1
tg63
I00
S'\xd4\xe5\x19?'
S'\x00'
NtbstRp544
(dp545
g77
(dp546
g57
I01
sg17
I00
sg19
I01
sg72
I01
sg18
I01
ssg52
g533
sg79
(lp547
g57
ag72
ag17
ag18
ag19
asg81
(lp548
I1
aI1
asbsg83
g84
sg85
g64
(g60
(I0
tS'b'
tRp549
(I1
(I1
I1
tg87
I00
S'\x00\x00\x00\x00'
tbsg88
I01
sg89
I1
sg90
I-1
sg91
(lp550
Nasg99
Nsg100
g217
sg102
I1
sg103
I0
sg104
I1
sg105
I01
sbag39
asS'savePickle'
p551
I00
sb.