ccopy_reg
_reconstructor
p1
(cpsychopy.data
ExperimentHandler
p2
c__builtin__
object
p3
NtRp4
(dp5
S'originPath'
p6
V/Users/patrickbissett/OneDrive/Poldrack/TrainedInhibition/PsychoPy/IntegratingDifferentCodeFlexibleStim10.psyexp
p7
sS'dataFileName'
p8
V/Users/patrickbissett/OneDrive/Poldrack/TrainedInhibition/PsychoPy/data/617_2015_Mar_18_1449
p9
sS'runtimeInfo'
p10
NsS'name'
p11
S'LearningTask'
p12
sS'dataNames'
p13
(lp14
S'ok1.keys'
p15
aS'ok1.rt'
p16
aS'resp.keys'
p17
aS'resp.corr'
p18
aS'resp.rt'
p19
asS'autoLog'
p20
I01
sS'extraInfo'
p21
(dp22
S'expName'
p23
g12
sS'gender (m/f)'
p24
V
sS'age'
p25
V
sS'frameRate'
p26
cnumpy.core.multiarray
scalar
p27
(cnumpy
dtype
p28
(S'f8'
I0
I1
tRp29
(I3
S'<'
NNNI-1
I-1
I0
tbS'\x04\xf6\xdb\xc5\x99\x01N@'
tRp30
sS'session'
p31
I3
sS'date'
p32
V2015_Mar_18_1449
p33
sS'participant'
p34
V617
p35
ssS'loopsUnfinished'
p36
(lp37
g1
(cpsychopy.data
TrialHandler
p38
g3
NtRp39
(dp40
S'origin'
p41
V<PsychoPy2experiment version="1.82.01" encoding="utf-8">\u000a  <Settings>\u000a    <Param name="Show mouse" val="False" valType="bool" updates="None"/>\u000a    <Param name="Data filename" val="u'data' + os.sep + '%s_%s' %(expInfo['participant'], expInfo['date'])" valType="code" updates="None"/>\u000a    <Param name="Monitor" val="testMonitor" valType="str" updates="None"/>\u000a    <Param name="Enable Escape" val="True" valType="bool" updates="None"/>\u000a    <Param name="color" val="black" valType="str" updates="None"/>\u000a    <Param name="Window size (pixels)" val="[1680, 1050]" valType="code" updates="None"/>\u000a    <Param name="Full-screen window" val="True" valType="bool" updates="None"/>\u000a    <Param name="colorSpace" val="rgb" valType="str" updates="None"/>\u000a    <Param name="Experiment info" val="{'participant':'', 'gender (m/f)':'', 'age':'', 'session':03}" valType="code" updates="None"/>\u000a    <Param name="Save csv file" val="False" valType="bool" updates="None"/>\u000a    <Param name="Show info dlg" val="True" valType="bool" updates="None"/>\u000a    <Param name="Save wide csv file" val="True" valType="bool" updates="None"/>\u000a    <Param name="Save psydat file" val="True" valType="bool" updates="None"/>\u000a    <Param name="expName" val="LearningTask" valType="str" updates="None"/>\u000a    <Param name="logging level" val="warning" valType="code" updates="None"/>\u000a    <Param name="blendMode" val="avg" valType="str" updates="None"/>\u000a    <Param name="Save excel file" val="True" valType="bool" updates="None"/>\u000a    <Param name="Units" val="use prefs" valType="str" updates="None"/>\u000a    <Param name="Save log file" val="True" valType="bool" updates="None"/>\u000a    <Param name="Screen" val="1" valType="num" updates="None"/>\u000a  </Settings>\u000a  <Routines>\u000a    <Routine name="trial">\u000a      <CodeComponent name="code_2">\u000a        <Param name="Begin Experiment" val="" valType="extendedCode" updates="constant"/>\u000a        <Param name="name" val="code_2" valType="code" updates="None"/>\u000a        <Param name="Begin Routine" val="import random&#10;&#10;Integers = [1, 2, 3, 4, 5, 6, 7, 8]&#10;&#10;if Redo == 1:&#10;    ConditionChoice = random.choice(Integers)&#10;    if ConditionChoice == 1:&#10;        CurrentStimulus = ConditionOne['fileName']&#10;    elif ConditionChoice == 2:&#10;        CurrentStimulus = ConditionTwo['fileName']&#10;    elif ConditionChoice == 3:&#10;        CurrentStimulus = ConditionThree['fileName']&#10;    elif ConditionChoice == 4:&#10;        CurrentStimulus = ConditionFour['fileName']&#10;    elif ConditionChoice == 5:&#10;        CurrentStimulus = ConditionFive['fileName']&#10;    elif ConditionChoice == 6:&#10;        CurrentStimulus = ConditionSix['fileName']&#10;    elif ConditionChoice == 7:&#10;        CurrentStimulus = ConditionSeven['fileName']&#10;    elif ConditionChoice == 8:&#10;        CurrentStimulus = ConditionEight['fileName']" valType="extendedCode" updates="constant"/>\u000a        <Param name="End Routine" val="" valType="extendedCode" updates="constant"/>\u000a        <Param name="End Experiment" val="" valType="extendedCode" updates="constant"/>\u000a        <Param name="Each Frame" val="" valType="extendedCode" updates="constant"/>\u000a      </CodeComponent>\u000a      <KeyboardComponent name="resp">\u000a        <Param name="correctAns" val="$corrAns" valType="str" updates="constant"/>\u000a        <Param name="storeCorrect" val="True" valType="bool" updates="constant"/>\u000a        <Param name="name" val="resp" valType="code" updates="None"/>\u000a        <Param name="stopVal" val="1" valType="code" updates="constant"/>\u000a        <Param name="durationEstim" val="" valType="code" updates="None"/>\u000a        <Param name="forceEndRoutine" val="True" valType="bool" updates="constant"/>\u000a        <Param name="startEstim" val="" valType="code" updates="None"/>\u000a        <Param name="discard previous" val="True" valType="bool" updates="constant"/>\u000a        <Param name="startType" val="time (s)" valType="str" updates="None"/>\u000a        <Param name="allowedKeys" val="'t', 'y', 'g', 'h'" valType="code" updates="constant"/>\u000a        <Param name="stopType" val="duration (s)" valType="str" updates="None"/>\u000a        <Param name="startVal" val=".5" valType="code" updates="None"/>\u000a        <Param name="store" val="last key" valType="str" updates="constant"/>\u000a      </KeyboardComponent>\u000a      <TextComponent name="text">\u000a        <Param name="opacity" val="1" valType="code" updates="constant"/>\u000a        <Param name="colorSpace" val="rgb" valType="str" updates="constant"/>\u000a        <Param name="name" val="text" valType="code" updates="None"/>\u000a        <Param name="wrapWidth" val="" valType="code" updates="constant"/>\u000a        <Param name="color" val="white" valType="str" updates="constant"/>\u000a        <Param name="text" val="+" valType="str" updates="constant"/>\u000a        <Param name="stopVal" val="1.5" valType="code" updates="constant"/>\u000a        <Param name="durationEstim" val="" valType="code" updates="None"/>\u000a        <Param name="pos" val="[0, 0]" valType="code" updates="constant"/>\u000a        <Param name="flip" val="" valType="str" updates="constant"/>\u000a        <Param name="startEstim" val="" valType="code" updates="None"/>\u000a        <Param name="units" val="from exp settings" valType="str" updates="None"/>\u000a        <Param name="startType" val="time (s)" valType="str" updates="None"/>\u000a        <Param name="ori" val="0" valType="code" updates="constant"/>\u000a        <Param name="stopType" val="duration (s)" valType="str" updates="None"/>\u000a        <Param name="startVal" val="0.0" valType="code" updates="None"/>\u000a        <Param name="font" val="Arial" valType="str" updates="constant"/>\u000a        <Param name="letterHeight" val="1" valType="code" updates="constant"/>\u000a      </TextComponent>\u000a      <ImageComponent name="image_2">\u000a        <Param name="opacity" val="1" valType="code" updates="constant"/>\u000a        <Param name="flipVert" val="False" valType="bool" updates="constant"/>\u000a        <Param name="colorSpace" val="rgb" valType="str" updates="constant"/>\u000a        <Param name="name" val="image_2" valType="code" updates="None"/>\u000a        <Param name="color" val="$[1,1,1]" valType="str" updates="constant"/>\u000a        <Param name="stopVal" val="1.0" valType="code" updates="constant"/>\u000a        <Param name="durationEstim" val="" valType="code" updates="None"/>\u000a        <Param name="mask" val="None" valType="str" updates="constant"/>\u000a        <Param name="pos" val="$[xPos, yPos]" valType="code" updates="set every repeat"/>\u000a        <Param name="interpolate" val="linear" valType="str" updates="constant"/>\u000a        <Param name="startEstim" val="" valType="code" updates="None"/>\u000a        <Param name="units" val="pix" valType="str" updates="None"/>\u000a        <Param name="texture resolution" val="128" valType="code" updates="constant"/>\u000a        <Param name="startType" val="time (s)" valType="str" updates="None"/>\u000a        <Param name="ori" val="0" valType="code" updates="constant"/>\u000a        <Param name="stopType" val="duration (s)" valType="str" updates="None"/>\u000a        <Param name="startVal" val=".5" valType="code" updates="None"/>\u000a        <Param name="flipHoriz" val="False" valType="bool" updates="constant"/>\u000a        <Param name="image" val="$CurrentStimulus" valType="str" updates="set every repeat"/>\u000a        <Param name="size" val="[101, 101]" valType="code" updates="constant"/>\u000a      </ImageComponent>\u000a    </Routine>\u000a    <Routine name="StimSetup">\u000a      <CodeComponent name="code">\u000a        <Param name="Begin Experiment" val="import random&#10;Redo = 1&#10;colors = ['yellow', 'white', 'orange', 'magenta', 'green', 'gray', 'cyan', 'blue']&#10;shapes = ['triangle', 'square', 'line', 'invertedtriangle', 'hexagon', 'diamond', 'cross', 'circle']&#10;rewards = [0.5, 1, 2, 4] * 2&#10;conditions = ['go', 'go', 'go', 'go', 'stop', 'stop', 'stop', 'stop']&#10;trialDetailsList = []&#10;&#10;shuffle(colors)&#10;shuffle(shapes)&#10;&#10;for i, color in enumerate(colors): # cycle through each color and keep track of an index number&#10;    trialDetails = {} # a dictionary of key-value pairs&#10;    trialDetails['fileName'] = shapes[i] + color + '.gif'&#10;    trialDetails['reward'] = rewards[i]&#10;    trialDetails['condition'] = conditions[i]&#10;    trialDetailsList.append(trialDetails)&#10;&#10;shuffle(trialDetailsList) # do this now to ensure that order of presentation of rewards and conditions is also shuffled&#10;&#10;ConditionOne = trialDetailsList[0]&#10;ConditionTwo = trialDetailsList[1]&#10;ConditionThree = trialDetailsList[2]&#10;ConditionFour = trialDetailsList[3]&#10;ConditionFive = trialDetailsList[4]&#10;ConditionSix = trialDetailsList[5]&#10;ConditionSeven = trialDetailsList[6]&#10;ConditionEight = trialDetailsList[7]" valType="extendedCode" updates="constant"/>\u000a        <Param name="name" val="code" valType="code" updates="None"/>\u000a        <Param name="Begin Routine" val="" valType="extendedCode" updates="constant"/>\u000a        <Param name="End Routine" val="" valType="extendedCode" updates="constant"/>\u000a        <Param name="End Experiment" val="" valType="extendedCode" updates="constant"/>\u000a        <Param name="Each Frame" val="" valType="extendedCode" updates="constant"/>\u000a      </CodeComponent>\u000a    </Routine>\u000a    <Routine name="instrMain">\u000a      <TextComponent name="instr2">\u000a        <Param name="opacity" val="1" valType="code" updates="constant"/>\u000a        <Param name="colorSpace" val="rgb" valType="str" updates="constant"/>\u000a        <Param name="name" val="instr2" valType="code" updates="constant"/>\u000a        <Param name="wrapWidth" val="" valType="code" updates="constant"/>\u000a        <Param name="color" val="white" valType="str" updates="constant"/>\u000a        <Param name="text" val="OK, ready to start the main experiment?&#10;&#10;Remember, press;&#10; - 'S' if the SMALL letters are S&#10; - 'H' if the SMALL letters are H&#10;&#10;Try to respond as quickly and as accurately as possible.&#10;&#10;When you are ready to proceed press any key." valType="str" updates="constant"/>\u000a        <Param name="stopVal" val="" valType="code" updates="constant"/>\u000a        <Param name="durationEstim" val="" valType="code" updates="None"/>\u000a        <Param name="pos" val="[0, 0]" valType="code" updates="constant"/>\u000a        <Param name="flip" val="" valType="str" updates="constant"/>\u000a        <Param name="startEstim" val="" valType="code" updates="None"/>\u000a        <Param name="units" val="from exp settings" valType="str" updates="None"/>\u000a        <Param name="startType" val="time (s)" valType="str" updates="None"/>\u000a        <Param name="ori" val="0" valType="code" updates="constant"/>\u000a        <Param name="stopType" val="duration (s)" valType="str" updates="None"/>\u000a        <Param name="startVal" val="0.0" valType="code" updates="None"/>\u000a        <Param name="font" val="Arial" valType="str" updates="constant"/>\u000a        <Param name="letterHeight" val="0.075" valType="code" updates="constant"/>\u000a      </TextComponent>\u000a      <KeyboardComponent name="ok2">\u000a        <Param name="correctAns" val="" valType="str" updates="constant"/>\u000a        <Param name="storeCorrect" val="False" valType="bool" updates="constant"/>\u000a        <Param name="name" val="ok2" valType="code" updates="None"/>\u000a        <Param name="stopVal" val="" valType="code" updates="constant"/>\u000a        <Param name="durationEstim" val="" valType="code" updates="None"/>\u000a        <Param name="forceEndRoutine" val="True" valType="bool" updates="constant"/>\u000a        <Param name="startEstim" val="" valType="code" updates="None"/>\u000a        <Param name="discard previous" val="True" valType="bool" updates="constant"/>\u000a        <Param name="startType" val="time (s)" valType="str" updates="None"/>\u000a        <Param name="allowedKeys" val="" valType="code" updates="constant"/>\u000a        <Param name="stopType" val="duration (s)" valType="str" updates="None"/>\u000a        <Param name="startVal" val="0.0" valType="code" updates="None"/>\u000a        <Param name="store" val="nothing" valType="str" updates="constant"/>\u000a      </KeyboardComponent>\u000a    </Routine>\u000a    <Routine name="feedback">\u000a      <CodeComponent name="message">\u000a        <Param name="Begin Experiment" val="#message variable just needs some value at start&#10;message=0" valType="extendedCode" updates="constant"/>\u000a        <Param name="name" val="message" valType="code" updates="None"/>\u000a        <Param name="Begin Routine" val="DisplayReward = random.randrange(1, 6)&#10;&#10;if resp.corr:#stored on last run routine&#10;    if DisplayReward == 1:&#10;            message = 0;&#10;    else:&#10;        if ConditionChoice == 1:&#10;            CurrentReward = ConditionOne['reward']&#10;            message = CurrentReward + (random.randrange(-25, 26)*.01)&#10;        elif ConditionChoice == 2:&#10;            CurrentReward = ConditionTwo['reward']&#10;            message = CurrentReward + (random.randrange(-25, 26)*.01)&#10;        elif ConditionChoice == 3:&#10;            CurrentReward = ConditionThree['reward']&#10;            message = CurrentReward + (random.randrange(-25, 26)*.01)&#10;        elif ConditionChoice == 4:&#10;            CurrentReward = ConditionFour['reward']&#10;            message = CurrentReward + (random.randrange(-25, 26)*.01)&#10;        elif ConditionChoice == 5:&#10;            CurrentReward = ConditionFive['reward']&#10;            message = CurrentReward + (random.randrange(-25, 26)*.01)&#10;        elif ConditionChoice == 6:&#10;            CurrentReward = ConditionSix['reward']&#10;            message = CurrentReward + (random.randrange(-25, 26)*.01)&#10;        elif ConditionChoice == 7:&#10;            CurrentReward = ConditionSeven['reward']&#10;            message = CurrentReward + (random.randrange(-25, 26)*.01)&#10;        elif ConditionChoice == 8:&#10;            CurrentReward = ConditionEight['reward']&#10;            message = CurrentReward + (random.randrange(-25, 26)*.01)&#10;elif resp.keys is None: #or len(key_resp.keys)&lt;1:&#10;#elif resp.rt == 0:&#10;    message =&quot;Too Slow&quot;&#10;else:&#10;  message=&quot;Wrong&quot;&#10;&#10;if resp.corr:#stored on last run routine&#10;    Redo = 1; &#10;else:&#10;    Redo = Redo + 1;&#10;&#10;#if DisplayReward == 1:&#10;#    message = 0;&#10;#else:&#10;#    message = CurrentReward + (random.randrange(-25, 26)*.01)&#10;&#10;#  message=&quot;Correct! RT=%.3f&quot; %(resp.rt)" valType="extendedCode" updates="constant"/>\u000a        <Param name="End Routine" val="" valType="extendedCode" updates="constant"/>\u000a        <Param name="End Experiment" val="" valType="extendedCode" updates="constant"/>\u000a        <Param name="Each Frame" val="" valType="extendedCode" updates="constant"/>\u000a      </CodeComponent>\u000a      <TextComponent name="feedback_2">\u000a        <Param name="opacity" val="1" valType="code" updates="constant"/>\u000a        <Param name="colorSpace" val="rgb" valType="str" updates="constant"/>\u000a        <Param name="name" val="feedback_2" valType="code" updates="constant"/>\u000a        <Param name="wrapWidth" val="" valType="code" updates="constant"/>\u000a        <Param name="color" val="$[1,1,1]" valType="str" updates="constant"/>\u000a        <Param name="text" val="$message" valType="str" updates="set every repeat"/>\u000a        <Param name="stopVal" val="1.0" valType="code" updates="constant"/>\u000a        <Param name="durationEstim" val="" valType="code" updates="None"/>\u000a        <Param name="pos" val="[0, 0]" valType="code" updates="constant"/>\u000a        <Param name="flip" val="" valType="str" updates="constant"/>\u000a        <Param name="startEstim" val="" valType="code" updates="None"/>\u000a        <Param name="units" val="from exp settings" valType="str" updates="None"/>\u000a        <Param name="startType" val="time (s)" valType="str" updates="None"/>\u000a        <Param name="ori" val="0" valType="code" updates="constant"/>\u000a        <Param name="stopType" val="duration (s)" valType="str" updates="None"/>\u000a        <Param name="startVal" val="0.0" valType="code" updates="None"/>\u000a        <Param name="font" val="Arial" valType="str" updates="constant"/>\u000a        <Param name="letterHeight" val="0.1" valType="code" updates="constant"/>\u000a      </TextComponent>\u000a    </Routine>\u000a    <Routine name="instrPractice">\u000a      <TextComponent name="instruct1">\u000a        <Param name="opacity" val="1" valType="code" updates="constant"/>\u000a        <Param name="colorSpace" val="rgb" valType="str" updates="constant"/>\u000a        <Param name="name" val="instruct1" valType="code" updates="constant"/>\u000a        <Param name="wrapWidth" val="" valType="code" updates="constant"/>\u000a        <Param name="color" val="white" valType="str" updates="constant"/>\u000a        <Param name="text" val="A shape stimulus will appear on every trial. &#10;&#10;If it appears in the upper right quadrant, PRESS Y&#10;&#10;If it appears in the lower right quadrant, PRESS H&#10;&#10;If it appears in the lower left quadrant, PRESS G&#10;&#10;If it appears in the upper left quadrant, PRESS T&#10;&#10;Press any key when you are ready to proceed. " valType="str" updates="constant"/>\u000a        <Param name="stopVal" val="" valType="code" updates="constant"/>\u000a        <Param name="durationEstim" val="" valType="code" updates="None"/>\u000a        <Param name="pos" val="[0, 0]" valType="code" updates="constant"/>\u000a        <Param name="flip" val="" valType="str" updates="constant"/>\u000a        <Param name="startEstim" val="" valType="code" updates="None"/>\u000a        <Param name="units" val="from exp settings" valType="str" updates="None"/>\u000a        <Param name="startType" val="time (s)" valType="str" updates="None"/>\u000a        <Param name="ori" val="0" valType="code" updates="constant"/>\u000a        <Param name="stopType" val="duration (s)" valType="str" updates="None"/>\u000a        <Param name="startVal" val="0.0" valType="code" updates="None"/>\u000a        <Param name="font" val="Arial" valType="str" updates="constant"/>\u000a        <Param name="letterHeight" val="0.07" valType="code" updates="constant"/>\u000a      </TextComponent>\u000a      <KeyboardComponent name="ok1">\u000a        <Param name="correctAns" val="" valType="str" updates="constant"/>\u000a        <Param name="storeCorrect" val="False" valType="bool" updates="constant"/>\u000a        <Param name="name" val="ok1" valType="code" updates="None"/>\u000a        <Param name="stopVal" val="" valType="code" updates="constant"/>\u000a        <Param name="durationEstim" val="" valType="code" updates="None"/>\u000a        <Param name="forceEndRoutine" val="True" valType="bool" updates="constant"/>\u000a        <Param name="startEstim" val="" valType="code" updates="None"/>\u000a        <Param name="discard previous" val="True" valType="bool" updates="constant"/>\u000a        <Param name="startType" val="time (s)" valType="str" updates="None"/>\u000a        <Param name="allowedKeys" val="" valType="code" updates="constant"/>\u000a        <Param name="stopType" val="duration (s)" valType="str" updates="None"/>\u000a        <Param name="startVal" val="0.0" valType="code" updates="None"/>\u000a        <Param name="store" val="last key" valType="str" updates="constant"/>\u000a      </KeyboardComponent>\u000a    </Routine>\u000a  </Routines>\u000a  <Flow>\u000a    <Routine name="StimSetup"/>\u000a    <Routine name="instrPractice"/>\u000a    <LoopInitiator loopType="TrialHandler" name="practiceTrials">\u000a      <Param name="conditionsFile" val="Trialtypes5.xlsx" valType="str" updates="None"/>\u000a      <Param name="name" val="practiceTrials" valType="code" updates="None"/>\u000a      <Param name="isTrials" val="True" valType="bool" updates="None"/>\u000a      <Param name="random seed" val="" valType="code" updates="None"/>\u000a      <Param name="loopType" val="random" valType="str" updates="None"/>\u000a      <Param name="nReps" val="1" valType="num" updates="None"/>\u000a      <Param name="endPoints" val="[1, 2]" valType="num" updates="None"/>\u000a      <Param name="conditions" val="[{u'xPos': 200, u'corrAns': u'y', u'yPos': 200}, {u'xPos': -200, u'corrAns': u't', u'yPos': 200}, {u'xPos': 200, u'corrAns': u'h', u'yPos': -200}, {u'xPos': -200, u'corrAns': u'g', u'yPos': -200}]" valType="str" updates="None"/>\u000a      <Param name="Selected rows" val="" valType="str" updates="None"/>\u000a    </LoopInitiator>\u000a    <LoopInitiator loopType="TrialHandler" name="ReDoLoop">\u000a      <Param name="conditionsFile" val="" valType="str" updates="None"/>\u000a      <Param name="name" val="ReDoLoop" valType="code" updates="None"/>\u000a      <Param name="isTrials" val="True" valType="bool" updates="None"/>\u000a      <Param name="random seed" val="" valType="code" updates="None"/>\u000a      <Param name="loopType" val="random" valType="str" updates="None"/>\u000a      <Param name="nReps" val="$Redo" valType="code" updates="None"/>\u000a      <Param name="endPoints" val="[0, 1]" valType="num" updates="None"/>\u000a      <Param name="conditions" val="None" valType="str" updates="None"/>\u000a      <Param name="Selected rows" val="" valType="code" updates="None"/>\u000a    </LoopInitiator>\u000a    <Routine name="trial"/>\u000a    <Routine name="feedback"/>\u000a    <LoopTerminator name="ReDoLoop"/>\u000a    <LoopTerminator name="practiceTrials"/>\u000a    <Routine name="instrMain"/>\u000a    <LoopInitiator loopType="TrialHandler" name="trials">\u000a      <Param name="conditionsFile" val="Trialtypes5.xlsx" valType="str" updates="None"/>\u000a      <Param name="name" val="trials" valType="code" updates="None"/>\u000a      <Param name="isTrials" val="True" valType="bool" updates="None"/>\u000a      <Param name="random seed" val="" valType="code" updates="None"/>\u000a      <Param name="loopType" val="random" valType="str" updates="None"/>\u000a      <Param name="nReps" val="10" valType="num" updates="None"/>\u000a      <Param name="endPoints" val="[0, 1]" valType="num" updates="None"/>\u000a      <Param name="conditions" val="[{u'xPos': 200, u'corrAns': u'y', u'yPos': 200}, {u'xPos': -200, u'corrAns': u't', u'yPos': 200}, {u'xPos': 200, u'corrAns': u'h', u'yPos': -200}, {u'xPos': -200, u'corrAns': u'g', u'yPos': -200}]" valType="str" updates="None"/>\u000a      <Param name="Selected rows" val="" valType="str" updates="None"/>\u000a    </LoopInitiator>\u000a    <Routine name="trial"/>\u000a    <Routine name="feedback"/>\u000a    <LoopTerminator name="trials"/>\u000a  </Flow>\u000a</PsychoPy2experiment>\u000a
p42
sS'thisTrial'
p43
g1
(cpsychopy.data
TrialType
p44
c__builtin__
dict
p45
(dp46
VxPos
p47
I-200
sVcorrAns
p48
Vg
sVyPos
p49
I-200
stRp50
sS'_exp'
p51
I246515120
sg11
S'trials'
p52
sg6
g7
sS'thisRepN'
p53
I0
sg20
I01
sg21
g22
sS'data'
p54
g1
(cpsychopy.data
DataHandler
p55
g45
(dp56
S'ran'
p57
cnumpy.ma.core
_mareconstruct
p58
(cnumpy.ma.core
MaskedArray
p59
cnumpy
ndarray
p60
(I0
tp61
S'b'
tRp62
(I1
(I4
I10
tg28
(S'f4'
I0
I1
tRp63
(I3
S'<'
NNNI-1
I-1
I0
tbI00
S'\x00\x00\x00\x00\x00\x00\x00\x00\x00\x00\x00\x00\x00\x00\x00\x00\x00\x00\x00\x00\x00\x00\x00\x00\x00\x00\x00\x00\x00\x00\x00\x00\x00\x00\x00\x00\x00\x00\x00\x00\x00\x00\x00\x00\x00\x00\x00\x00\x00\x00\x00\x00\x00\x00\x00\x00\x00\x00\x00\x00\x00\x00\x00\x00\x00\x00\x00\x00\x00\x00\x00\x00\x00\x00\x00\x00\x00\x00\x00\x00\x00\x00\x00\x00\x00\x00\x00\x00\x00\x00\x00\x00\x00\x00\x00\x00\x00\x00\x00\x00\x00\x00\x00\x00\x00\x00\x00\x00\x00\x00\x00\x00\x00\x00\x00\x00\x00\x00\x00\x00\x00\x00\x80?\x00\x00\x00\x00\x00\x00\x00\x00\x00\x00\x00\x00\x00\x00\x00\x00\x00\x00\x00\x00\x00\x00\x00\x00\x00\x00\x00\x00\x00\x00\x00\x00\x00\x00\x00\x00'
S'\x00\x00\x00\x00\x00\x00\x00\x00\x00\x00\x00\x00\x00\x00\x00\x00\x00\x00\x00\x00\x00\x00\x00\x00\x00\x00\x00\x00\x00\x00\x00\x00\x00\x00\x00\x00\x00\x00\x00\x00'
NtbsS'order'
p64
g58
(g59
g60
g61
S'b'
tRp65
(I1
(I4
I10
tg63
I00
S'\x00\x00\x00\x00\x00\x00\x00\x00\x00\x00\x00\x00\x00\x00\x00\x00\x00\x00\x00\x00\x00\x00\x00\x00\x00\x00\x00\x00\x00\x00\x00\x00\x00\x00\x00\x00\x00\x00\x00\x00\x00\x00\x00\x00\x00\x00\x00\x00\x00\x00\x00\x00\x00\x00\x00\x00\x00\x00\x00\x00\x00\x00\x00\x00\x00\x00\x00\x00\x00\x00\x00\x00\x00\x00\x00\x00\x00\x00\x00\x00\x00\x00\x00\x00\x00\x00\x00\x00\x00\x00\x00\x00\x00\x00\x00\x00\x00\x00\x00\x00\x00\x00\x00\x00\x00\x00\x00\x00\x00\x00\x00\x00\x00\x00\x00\x00\x00\x00\x00\x00\x00\x00\x00\x00\x00\x00\x00\x00\x00\x00\x00\x00\x00\x00\x00\x00\x00\x00\x00\x00\x00\x00\x00\x00\x00\x00\x00\x00\x00\x00\x00\x00\x00\x00\x00\x00\x00\x00\x00\x00'
S'\x01\x01\x01\x01\x01\x01\x01\x01\x01\x01\x01\x01\x01\x01\x01\x01\x01\x01\x01\x01\x01\x01\x01\x01\x01\x01\x01\x01\x01\x01\x00\x01\x01\x01\x01\x01\x01\x01\x01\x01'
NtbstRp66
(dp67
S'isNumeric'
p68
(dp69
g57
I01
sg64
I01
ssg52
g39
sS'dataTypes'
p70
(lp71
g57
ag64
asS'dataShape'
p72
(lp73
I4
aI10
asbsS'method'
p74
S'random'
p75
sS'sequenceIndices'
p76
cnumpy.core.multiarray
_reconstruct
p77
(g60
(I0
tS'b'
tRp78
(I1
(I4
I10
tg28
(S'i4'
I0
I1
tRp79
(I3
S'<'
NNNI-1
I-1
I0
tbI01
S'\x03\x00\x00\x00\x01\x00\x00\x00\x02\x00\x00\x00\x00\x00\x00\x00\x00\x00\x00\x00\x01\x00\x00\x00\x03\x00\x00\x00\x02\x00\x00\x00\x00\x00\x00\x00\x01\x00\x00\x00\x03\x00\x00\x00\x02\x00\x00\x00\x00\x00\x00\x00\x02\x00\x00\x00\x03\x00\x00\x00\x01\x00\x00\x00\x02\x00\x00\x00\x01\x00\x00\x00\x00\x00\x00\x00\x03\x00\x00\x00\x02\x00\x00\x00\x03\x00\x00\x00\x00\x00\x00\x00\x01\x00\x00\x00\x02\x00\x00\x00\x01\x00\x00\x00\x03\x00\x00\x00\x00\x00\x00\x00\x00\x00\x00\x00\x01\x00\x00\x00\x02\x00\x00\x00\x03\x00\x00\x00\x02\x00\x00\x00\x03\x00\x00\x00\x01\x00\x00\x00\x00\x00\x00\x00\x00\x00\x00\x00\x03\x00\x00\x00\x01\x00\x00\x00\x02\x00\x00\x00'
tbsS'finished'
p80
I00
sS'nReps'
p81
I10
sS'nRemaining'
p82
I39
sS'trialList'
p83
(lp84
g1
(g44
g45
(dp85
g47
I200
sg48
Vy
sg49
I200
stRp86
ag1
(g44
g45
(dp87
g47
I-200
sg48
Vt
sg49
I200
stRp88
ag1
(g44
g45
(dp89
g47
I200
sg48
Vh
sg49
I-200
stRp90
ag50
asS'seed'
p91
NsS'thisIndex'
p92
g27
(g79
S'\x03\x00\x00\x00'
tRp93
sS'thisN'
p94
I0
sS'thisTrialN'
p95
I0
sS'nTotal'
p96
I40
sS'_warnUseOfNext'
p97
I01
sbasS'saveWideText'
p98
I01
sS'thisEntry'
p99
(dp100
sS'version'
p101
S''
sS'_paramNamesSoFar'
p102
(lp103
VxPos
p104
aVcorrAns
p105
aVyPos
p106
asS'entries'
p107
(lp108
(dp109
g31
I3
sg24
V
sg16
F0.47987914085388184
sg25
V
sg26
g30
sg23
g12
sg15
S'n'
sg32
g33
sg34
g35
sa(dp110
g24
V
sg18
I0
sS'ReDoLoop.thisRepN'
p111
I0
sg19
F0.48422908782958984
sS'ReDoLoop.thisIndex'
p112
g27
(g79
S'\x00\x00\x00\x00'
tRp113
sg26
g30
sg32
g33
sS'ReDoLoop.thisTrial'
p114
Nsg31
I3
sg105
Vy
sS'practiceTrials.thisRepN'
p115
I0
sS'ReDoLoop.thisN'
p116
I0
sS'ReDoLoop.thisTrialN'
p117
I0
sg17
S'h'
sg104
I200
sg34
g35
sg25
V
sS'practiceTrials.thisN'
p118
I0
sg106
I200
sg23
g12
sS'practiceTrials.thisTrialN'
p119
I0
sS'practiceTrials.thisIndex'
p120
g27
(g79
S'\x00\x00\x00\x00'
tRp121
sa(dp122
g31
I3
sg104
I200
sg24
V
sg26
g30
sg25
V
sS'practiceTrials.thisN'
p123
I0
sg106
I200
sg32
g33
sg23
g12
sS'practiceTrials.thisTrialN'
p124
I0
sS'practiceTrials.thisIndex'
p125
g121
sS'practiceTrials.thisRepN'
p126
I0
sg34
g35
sg105
Vy
sa(dp127
g24
V
sg18
I1
sS'ReDoLoop.thisRepN'
p128
I0
sg19
F0.95190191268920898
sS'ReDoLoop.thisIndex'
p129
g27
(g79
S'\x00\x00\x00\x00'
tRp130
sg26
g30
sg32
g33
sS'ReDoLoop.thisTrial'
p131
Nsg31
I3
sg105
Vg
sS'practiceTrials.thisRepN'
p132
I0
sS'ReDoLoop.thisN'
p133
I0
sS'ReDoLoop.thisTrialN'
p134
I0
sg17
S'g'
sg104
I-200
sg34
g35
sg25
V
sS'practiceTrials.thisN'
p135
I1
sg106
I-200
sg23
g12
sS'practiceTrials.thisTrialN'
p136
I1
sS'practiceTrials.thisIndex'
p137
g27
(g79
S'\x03\x00\x00\x00'
tRp138
sa(dp139
g24
V
sg18
I0
sS'ReDoLoop.thisRepN'
p140
I1
sg19
F0.51791596412658691
sS'ReDoLoop.thisIndex'
p141
g27
(g79
S'\x00\x00\x00\x00'
tRp142
sg26
g30
sg32
g33
sS'ReDoLoop.thisTrial'
p143
Nsg31
I3
sg105
Vg
sS'practiceTrials.thisRepN'
p144
I0
sS'ReDoLoop.thisN'
p145
I1
sS'ReDoLoop.thisTrialN'
p146
I0
sg17
S't'
sg104
I-200
sg34
g35
sg25
V
sS'practiceTrials.thisN'
p147
I1
sg106
I-200
sg23
g12
sS'practiceTrials.thisTrialN'
p148
I1
sS'practiceTrials.thisIndex'
p149
g138
sa(dp150
g31
I3
sg104
I-200
sg24
V
sg26
g30
sg25
V
sS'practiceTrials.thisN'
p151
I1
sg106
I-200
sg32
g33
sg23
g12
sS'practiceTrials.thisTrialN'
p152
I1
sS'practiceTrials.thisIndex'
p153
g138
sS'practiceTrials.thisRepN'
p154
I0
sg34
g35
sg105
Vg
sa(dp155
g24
V
sg18
I0
sS'ReDoLoop.thisRepN'
p156
I0
sg19
F0.40086102485656738
sS'ReDoLoop.thisIndex'
p157
g27
(g79
S'\x00\x00\x00\x00'
tRp158
sg26
g30
sg32
g33
sS'ReDoLoop.thisTrial'
p159
Nsg31
I3
sg105
Vh
sS'practiceTrials.thisRepN'
p160
I0
sS'ReDoLoop.thisN'
p161
I0
sS'ReDoLoop.thisTrialN'
p162
I0
sg17
S'y'
sg104
I200
sg34
g35
sg25
V
sS'practiceTrials.thisN'
p163
I2
sg106
I-200
sg23
g12
sS'practiceTrials.thisTrialN'
p164
I2
sS'practiceTrials.thisIndex'
p165
g27
(g79
S'\x02\x00\x00\x00'
tRp166
sa(dp167
g24
V
sg18
I0
sS'ReDoLoop.thisRepN'
p168
I1
sg19
F0.41751313209533691
sS'ReDoLoop.thisIndex'
p169
g27
(g79
S'\x00\x00\x00\x00'
tRp170
sg26
g30
sg32
g33
sS'ReDoLoop.thisTrial'
p171
Nsg31
I3
sg105
Vh
sS'practiceTrials.thisRepN'
p172
I0
sS'ReDoLoop.thisN'
p173
I1
sS'ReDoLoop.thisTrialN'
p174
I0
sg17
S'y'
sg104
I200
sg34
g35
sg25
V
sS'practiceTrials.thisN'
p175
I2
sg106
I-200
sg23
g12
sS'practiceTrials.thisTrialN'
p176
I2
sS'practiceTrials.thisIndex'
p177
g166
sa(dp178
g31
I3
sg104
I200
sg24
V
sg26
g30
sg25
V
sS'practiceTrials.thisN'
p179
I2
sg106
I-200
sg32
g33
sg23
g12
sS'practiceTrials.thisTrialN'
p180
I2
sS'practiceTrials.thisIndex'
p181
g166
sS'practiceTrials.thisRepN'
p182
I0
sg34
g35
sg105
Vh
sa(dp183
g24
V
sg18
I0
sS'ReDoLoop.thisRepN'
p184
I0
sg19
F0.63467001914978027
sS'ReDoLoop.thisIndex'
p185
g27
(g79
S'\x00\x00\x00\x00'
tRp186
sg26
g30
sg32
g33
sS'ReDoLoop.thisTrial'
p187
Nsg31
I3
sg105
Vt
sS'practiceTrials.thisRepN'
p188
I0
sS'ReDoLoop.thisN'
p189
I0
sS'ReDoLoop.thisTrialN'
p190
I0
sg17
S'h'
sg104
I-200
sg34
g35
sg25
V
sS'practiceTrials.thisN'
p191
I3
sg106
I200
sg23
g12
sS'practiceTrials.thisTrialN'
p192
I3
sS'practiceTrials.thisIndex'
p193
g27
(g79
S'\x01\x00\x00\x00'
tRp194
sa(dp195
g24
V
sg18
I0
sS'ReDoLoop.thisRepN'
p196
I1
sg19
F0.56775808334350586
sS'ReDoLoop.thisIndex'
p197
g27
(g79
S'\x00\x00\x00\x00'
tRp198
sg26
g30
sg32
g33
sS'ReDoLoop.thisTrial'
p199
Nsg31
I3
sg105
Vt
sS'practiceTrials.thisRepN'
p200
I0
sS'ReDoLoop.thisN'
p201
I1
sS'ReDoLoop.thisTrialN'
p202
I0
sg17
S'h'
sg104
I-200
sg34
g35
sg25
V
sS'practiceTrials.thisN'
p203
I3
sg106
I200
sg23
g12
sS'practiceTrials.thisTrialN'
p204
I3
sS'practiceTrials.thisIndex'
p205
g194
sa(dp206
g31
I3
sg104
I-200
sg24
V
sg26
g30
sg25
V
sS'practiceTrials.thisN'
p207
I3
sg106
I200
sg32
g33
sg23
g12
sS'practiceTrials.thisTrialN'
p208
I3
sS'practiceTrials.thisIndex'
p209
g194
sS'practiceTrials.thisRepN'
p210
I0
sg34
g35
sg105
Vt
sasS'loops'
p211
(lp212
g1
(g38
g3
NtRp213
(dp214
g41
V<PsychoPy2experiment version="1.82.01" encoding="utf-8">\u000a  <Settings>\u000a    <Param name="Show mouse" val="False" valType="bool" updates="None"/>\u000a    <Param name="Data filename" val="u'data' + os.sep + '%s_%s' %(expInfo['participant'], expInfo['date'])" valType="code" updates="None"/>\u000a    <Param name="Monitor" val="testMonitor" valType="str" updates="None"/>\u000a    <Param name="Enable Escape" val="True" valType="bool" updates="None"/>\u000a    <Param name="color" val="black" valType="str" updates="None"/>\u000a    <Param name="Window size (pixels)" val="[1680, 1050]" valType="code" updates="None"/>\u000a    <Param name="Full-screen window" val="True" valType="bool" updates="None"/>\u000a    <Param name="colorSpace" val="rgb" valType="str" updates="None"/>\u000a    <Param name="Experiment info" val="{'participant':'', 'gender (m/f)':'', 'age':'', 'session':03}" valType="code" updates="None"/>\u000a    <Param name="Save csv file" val="False" valType="bool" updates="None"/>\u000a    <Param name="Show info dlg" val="True" valType="bool" updates="None"/>\u000a    <Param name="Save wide csv file" val="True" valType="bool" updates="None"/>\u000a    <Param name="Save psydat file" val="True" valType="bool" updates="None"/>\u000a    <Param name="expName" val="LearningTask" valType="str" updates="None"/>\u000a    <Param name="logging level" val="warning" valType="code" updates="None"/>\u000a    <Param name="blendMode" val="avg" valType="str" updates="None"/>\u000a    <Param name="Save excel file" val="True" valType="bool" updates="None"/>\u000a    <Param name="Units" val="use prefs" valType="str" updates="None"/>\u000a    <Param name="Save log file" val="True" valType="bool" updates="None"/>\u000a    <Param name="Screen" val="1" valType="num" updates="None"/>\u000a  </Settings>\u000a  <Routines>\u000a    <Routine name="trial">\u000a      <CodeComponent name="code_2">\u000a        <Param name="Begin Experiment" val="" valType="extendedCode" updates="constant"/>\u000a        <Param name="name" val="code_2" valType="code" updates="None"/>\u000a        <Param name="Begin Routine" val="import random&#10;&#10;Integers = [1, 2, 3, 4, 5, 6, 7, 8]&#10;&#10;if Redo == 1:&#10;    ConditionChoice = random.choice(Integers)&#10;    if ConditionChoice == 1:&#10;        CurrentStimulus = ConditionOne['fileName']&#10;    elif ConditionChoice == 2:&#10;        CurrentStimulus = ConditionTwo['fileName']&#10;    elif ConditionChoice == 3:&#10;        CurrentStimulus = ConditionThree['fileName']&#10;    elif ConditionChoice == 4:&#10;        CurrentStimulus = ConditionFour['fileName']&#10;    elif ConditionChoice == 5:&#10;        CurrentStimulus = ConditionFive['fileName']&#10;    elif ConditionChoice == 6:&#10;        CurrentStimulus = ConditionSix['fileName']&#10;    elif ConditionChoice == 7:&#10;        CurrentStimulus = ConditionSeven['fileName']&#10;    elif ConditionChoice == 8:&#10;        CurrentStimulus = ConditionEight['fileName']" valType="extendedCode" updates="constant"/>\u000a        <Param name="End Routine" val="" valType="extendedCode" updates="constant"/>\u000a        <Param name="End Experiment" val="" valType="extendedCode" updates="constant"/>\u000a        <Param name="Each Frame" val="" valType="extendedCode" updates="constant"/>\u000a      </CodeComponent>\u000a      <KeyboardComponent name="resp">\u000a        <Param name="correctAns" val="$corrAns" valType="str" updates="constant"/>\u000a        <Param name="storeCorrect" val="True" valType="bool" updates="constant"/>\u000a        <Param name="name" val="resp" valType="code" updates="None"/>\u000a        <Param name="stopVal" val="1" valType="code" updates="constant"/>\u000a        <Param name="durationEstim" val="" valType="code" updates="None"/>\u000a        <Param name="forceEndRoutine" val="True" valType="bool" updates="constant"/>\u000a        <Param name="startEstim" val="" valType="code" updates="None"/>\u000a        <Param name="discard previous" val="True" valType="bool" updates="constant"/>\u000a        <Param name="startType" val="time (s)" valType="str" updates="None"/>\u000a        <Param name="allowedKeys" val="'t', 'y', 'g', 'h'" valType="code" updates="constant"/>\u000a        <Param name="stopType" val="duration (s)" valType="str" updates="None"/>\u000a        <Param name="startVal" val=".5" valType="code" updates="None"/>\u000a        <Param name="store" val="last key" valType="str" updates="constant"/>\u000a      </KeyboardComponent>\u000a      <TextComponent name="text">\u000a        <Param name="opacity" val="1" valType="code" updates="constant"/>\u000a        <Param name="colorSpace" val="rgb" valType="str" updates="constant"/>\u000a        <Param name="name" val="text" valType="code" updates="None"/>\u000a        <Param name="wrapWidth" val="" valType="code" updates="constant"/>\u000a        <Param name="color" val="white" valType="str" updates="constant"/>\u000a        <Param name="text" val="+" valType="str" updates="constant"/>\u000a        <Param name="stopVal" val="1.5" valType="code" updates="constant"/>\u000a        <Param name="durationEstim" val="" valType="code" updates="None"/>\u000a        <Param name="pos" val="[0, 0]" valType="code" updates="constant"/>\u000a        <Param name="flip" val="" valType="str" updates="constant"/>\u000a        <Param name="startEstim" val="" valType="code" updates="None"/>\u000a        <Param name="units" val="from exp settings" valType="str" updates="None"/>\u000a        <Param name="startType" val="time (s)" valType="str" updates="None"/>\u000a        <Param name="ori" val="0" valType="code" updates="constant"/>\u000a        <Param name="stopType" val="duration (s)" valType="str" updates="None"/>\u000a        <Param name="startVal" val="0.0" valType="code" updates="None"/>\u000a        <Param name="font" val="Arial" valType="str" updates="constant"/>\u000a        <Param name="letterHeight" val="1" valType="code" updates="constant"/>\u000a      </TextComponent>\u000a      <ImageComponent name="image_2">\u000a        <Param name="opacity" val="1" valType="code" updates="constant"/>\u000a        <Param name="flipVert" val="False" valType="bool" updates="constant"/>\u000a        <Param name="colorSpace" val="rgb" valType="str" updates="constant"/>\u000a        <Param name="name" val="image_2" valType="code" updates="None"/>\u000a        <Param name="color" val="$[1,1,1]" valType="str" updates="constant"/>\u000a        <Param name="stopVal" val="1.0" valType="code" updates="constant"/>\u000a        <Param name="durationEstim" val="" valType="code" updates="None"/>\u000a        <Param name="mask" val="None" valType="str" updates="constant"/>\u000a        <Param name="pos" val="$[xPos, yPos]" valType="code" updates="set every repeat"/>\u000a        <Param name="interpolate" val="linear" valType="str" updates="constant"/>\u000a        <Param name="startEstim" val="" valType="code" updates="None"/>\u000a        <Param name="units" val="pix" valType="str" updates="None"/>\u000a        <Param name="texture resolution" val="128" valType="code" updates="constant"/>\u000a        <Param name="startType" val="time (s)" valType="str" updates="None"/>\u000a        <Param name="ori" val="0" valType="code" updates="constant"/>\u000a        <Param name="stopType" val="duration (s)" valType="str" updates="None"/>\u000a        <Param name="startVal" val=".5" valType="code" updates="None"/>\u000a        <Param name="flipHoriz" val="False" valType="bool" updates="constant"/>\u000a        <Param name="image" val="$CurrentStimulus" valType="str" updates="set every repeat"/>\u000a        <Param name="size" val="[101, 101]" valType="code" updates="constant"/>\u000a      </ImageComponent>\u000a    </Routine>\u000a    <Routine name="StimSetup">\u000a      <CodeComponent name="code">\u000a        <Param name="Begin Experiment" val="import random&#10;Redo = 1&#10;colors = ['yellow', 'white', 'orange', 'magenta', 'green', 'gray', 'cyan', 'blue']&#10;shapes = ['triangle', 'square', 'line', 'invertedtriangle', 'hexagon', 'diamond', 'cross', 'circle']&#10;rewards = [0.5, 1, 2, 4] * 2&#10;conditions = ['go', 'go', 'go', 'go', 'stop', 'stop', 'stop', 'stop']&#10;trialDetailsList = []&#10;&#10;shuffle(colors)&#10;shuffle(shapes)&#10;&#10;for i, color in enumerate(colors): # cycle through each color and keep track of an index number&#10;    trialDetails = {} # a dictionary of key-value pairs&#10;    trialDetails['fileName'] = shapes[i] + color + '.gif'&#10;    trialDetails['reward'] = rewards[i]&#10;    trialDetails['condition'] = conditions[i]&#10;    trialDetailsList.append(trialDetails)&#10;&#10;shuffle(trialDetailsList) # do this now to ensure that order of presentation of rewards and conditions is also shuffled&#10;&#10;ConditionOne = trialDetailsList[0]&#10;ConditionTwo = trialDetailsList[1]&#10;ConditionThree = trialDetailsList[2]&#10;ConditionFour = trialDetailsList[3]&#10;ConditionFive = trialDetailsList[4]&#10;ConditionSix = trialDetailsList[5]&#10;ConditionSeven = trialDetailsList[6]&#10;ConditionEight = trialDetailsList[7]" valType="extendedCode" updates="constant"/>\u000a        <Param name="name" val="code" valType="code" updates="None"/>\u000a        <Param name="Begin Routine" val="" valType="extendedCode" updates="constant"/>\u000a        <Param name="End Routine" val="" valType="extendedCode" updates="constant"/>\u000a        <Param name="End Experiment" val="" valType="extendedCode" updates="constant"/>\u000a        <Param name="Each Frame" val="" valType="extendedCode" updates="constant"/>\u000a      </CodeComponent>\u000a    </Routine>\u000a    <Routine name="instrMain">\u000a      <TextComponent name="instr2">\u000a        <Param name="opacity" val="1" valType="code" updates="constant"/>\u000a        <Param name="colorSpace" val="rgb" valType="str" updates="constant"/>\u000a        <Param name="name" val="instr2" valType="code" updates="constant"/>\u000a        <Param name="wrapWidth" val="" valType="code" updates="constant"/>\u000a        <Param name="color" val="white" valType="str" updates="constant"/>\u000a        <Param name="text" val="OK, ready to start the main experiment?&#10;&#10;Remember, press;&#10; - 'S' if the SMALL letters are S&#10; - 'H' if the SMALL letters are H&#10;&#10;Try to respond as quickly and as accurately as possible.&#10;&#10;When you are ready to proceed press any key." valType="str" updates="constant"/>\u000a        <Param name="stopVal" val="" valType="code" updates="constant"/>\u000a        <Param name="durationEstim" val="" valType="code" updates="None"/>\u000a        <Param name="pos" val="[0, 0]" valType="code" updates="constant"/>\u000a        <Param name="flip" val="" valType="str" updates="constant"/>\u000a        <Param name="startEstim" val="" valType="code" updates="None"/>\u000a        <Param name="units" val="from exp settings" valType="str" updates="None"/>\u000a        <Param name="startType" val="time (s)" valType="str" updates="None"/>\u000a        <Param name="ori" val="0" valType="code" updates="constant"/>\u000a        <Param name="stopType" val="duration (s)" valType="str" updates="None"/>\u000a        <Param name="startVal" val="0.0" valType="code" updates="None"/>\u000a        <Param name="font" val="Arial" valType="str" updates="constant"/>\u000a        <Param name="letterHeight" val="0.075" valType="code" updates="constant"/>\u000a      </TextComponent>\u000a      <KeyboardComponent name="ok2">\u000a        <Param name="correctAns" val="" valType="str" updates="constant"/>\u000a        <Param name="storeCorrect" val="False" valType="bool" updates="constant"/>\u000a        <Param name="name" val="ok2" valType="code" updates="None"/>\u000a        <Param name="stopVal" val="" valType="code" updates="constant"/>\u000a        <Param name="durationEstim" val="" valType="code" updates="None"/>\u000a        <Param name="forceEndRoutine" val="True" valType="bool" updates="constant"/>\u000a        <Param name="startEstim" val="" valType="code" updates="None"/>\u000a        <Param name="discard previous" val="True" valType="bool" updates="constant"/>\u000a        <Param name="startType" val="time (s)" valType="str" updates="None"/>\u000a        <Param name="allowedKeys" val="" valType="code" updates="constant"/>\u000a        <Param name="stopType" val="duration (s)" valType="str" updates="None"/>\u000a        <Param name="startVal" val="0.0" valType="code" updates="None"/>\u000a        <Param name="store" val="nothing" valType="str" updates="constant"/>\u000a      </KeyboardComponent>\u000a    </Routine>\u000a    <Routine name="feedback">\u000a      <CodeComponent name="message">\u000a        <Param name="Begin Experiment" val="#message variable just needs some value at start&#10;message=0" valType="extendedCode" updates="constant"/>\u000a        <Param name="name" val="message" valType="code" updates="None"/>\u000a        <Param name="Begin Routine" val="DisplayReward = random.randrange(1, 6)&#10;&#10;if resp.corr:#stored on last run routine&#10;    if DisplayReward == 1:&#10;            message = 0;&#10;    else:&#10;        if ConditionChoice == 1:&#10;            CurrentReward = ConditionOne['reward']&#10;            message = CurrentReward + (random.randrange(-25, 26)*.01)&#10;        elif ConditionChoice == 2:&#10;            CurrentReward = ConditionTwo['reward']&#10;            message = CurrentReward + (random.randrange(-25, 26)*.01)&#10;        elif ConditionChoice == 3:&#10;            CurrentReward = ConditionThree['reward']&#10;            message = CurrentReward + (random.randrange(-25, 26)*.01)&#10;        elif ConditionChoice == 4:&#10;            CurrentReward = ConditionFour['reward']&#10;            message = CurrentReward + (random.randrange(-25, 26)*.01)&#10;        elif ConditionChoice == 5:&#10;            CurrentReward = ConditionFive['reward']&#10;            message = CurrentReward + (random.randrange(-25, 26)*.01)&#10;        elif ConditionChoice == 6:&#10;            CurrentReward = ConditionSix['reward']&#10;            message = CurrentReward + (random.randrange(-25, 26)*.01)&#10;        elif ConditionChoice == 7:&#10;            CurrentReward = ConditionSeven['reward']&#10;            message = CurrentReward + (random.randrange(-25, 26)*.01)&#10;        elif ConditionChoice == 8:&#10;            CurrentReward = ConditionEight['reward']&#10;            message = CurrentReward + (random.randrange(-25, 26)*.01)&#10;elif resp.keys is None: #or len(key_resp.keys)&lt;1:&#10;#elif resp.rt == 0:&#10;    message =&quot;Too Slow&quot;&#10;else:&#10;  message=&quot;Wrong&quot;&#10;&#10;if resp.corr:#stored on last run routine&#10;    Redo = 1; &#10;else:&#10;    Redo = Redo + 1;&#10;&#10;#if DisplayReward == 1:&#10;#    message = 0;&#10;#else:&#10;#    message = CurrentReward + (random.randrange(-25, 26)*.01)&#10;&#10;#  message=&quot;Correct! RT=%.3f&quot; %(resp.rt)" valType="extendedCode" updates="constant"/>\u000a        <Param name="End Routine" val="" valType="extendedCode" updates="constant"/>\u000a        <Param name="End Experiment" val="" valType="extendedCode" updates="constant"/>\u000a        <Param name="Each Frame" val="" valType="extendedCode" updates="constant"/>\u000a      </CodeComponent>\u000a      <TextComponent name="feedback_2">\u000a        <Param name="opacity" val="1" valType="code" updates="constant"/>\u000a        <Param name="colorSpace" val="rgb" valType="str" updates="constant"/>\u000a        <Param name="name" val="feedback_2" valType="code" updates="constant"/>\u000a        <Param name="wrapWidth" val="" valType="code" updates="constant"/>\u000a        <Param name="color" val="$[1,1,1]" valType="str" updates="constant"/>\u000a        <Param name="text" val="$message" valType="str" updates="set every repeat"/>\u000a        <Param name="stopVal" val="1.0" valType="code" updates="constant"/>\u000a        <Param name="durationEstim" val="" valType="code" updates="None"/>\u000a        <Param name="pos" val="[0, 0]" valType="code" updates="constant"/>\u000a        <Param name="flip" val="" valType="str" updates="constant"/>\u000a        <Param name="startEstim" val="" valType="code" updates="None"/>\u000a        <Param name="units" val="from exp settings" valType="str" updates="None"/>\u000a        <Param name="startType" val="time (s)" valType="str" updates="None"/>\u000a        <Param name="ori" val="0" valType="code" updates="constant"/>\u000a        <Param name="stopType" val="duration (s)" valType="str" updates="None"/>\u000a        <Param name="startVal" val="0.0" valType="code" updates="None"/>\u000a        <Param name="font" val="Arial" valType="str" updates="constant"/>\u000a        <Param name="letterHeight" val="0.1" valType="code" updates="constant"/>\u000a      </TextComponent>\u000a    </Routine>\u000a    <Routine name="instrPractice">\u000a      <TextComponent name="instruct1">\u000a        <Param name="opacity" val="1" valType="code" updates="constant"/>\u000a        <Param name="colorSpace" val="rgb" valType="str" updates="constant"/>\u000a        <Param name="name" val="instruct1" valType="code" updates="constant"/>\u000a        <Param name="wrapWidth" val="" valType="code" updates="constant"/>\u000a        <Param name="color" val="white" valType="str" updates="constant"/>\u000a        <Param name="text" val="A shape stimulus will appear on every trial. &#10;&#10;If it appears in the upper right quadrant, PRESS Y&#10;&#10;If it appears in the lower right quadrant, PRESS H&#10;&#10;If it appears in the lower left quadrant, PRESS G&#10;&#10;If it appears in the upper left quadrant, PRESS T&#10;&#10;Press any key when you are ready to proceed. " valType="str" updates="constant"/>\u000a        <Param name="stopVal" val="" valType="code" updates="constant"/>\u000a        <Param name="durationEstim" val="" valType="code" updates="None"/>\u000a        <Param name="pos" val="[0, 0]" valType="code" updates="constant"/>\u000a        <Param name="flip" val="" valType="str" updates="constant"/>\u000a        <Param name="startEstim" val="" valType="code" updates="None"/>\u000a        <Param name="units" val="from exp settings" valType="str" updates="None"/>\u000a        <Param name="startType" val="time (s)" valType="str" updates="None"/>\u000a        <Param name="ori" val="0" valType="code" updates="constant"/>\u000a        <Param name="stopType" val="duration (s)" valType="str" updates="None"/>\u000a        <Param name="startVal" val="0.0" valType="code" updates="None"/>\u000a        <Param name="font" val="Arial" valType="str" updates="constant"/>\u000a        <Param name="letterHeight" val="0.07" valType="code" updates="constant"/>\u000a      </TextComponent>\u000a      <KeyboardComponent name="ok1">\u000a        <Param name="correctAns" val="" valType="str" updates="constant"/>\u000a        <Param name="storeCorrect" val="False" valType="bool" updates="constant"/>\u000a        <Param name="name" val="ok1" valType="code" updates="None"/>\u000a        <Param name="stopVal" val="" valType="code" updates="constant"/>\u000a        <Param name="durationEstim" val="" valType="code" updates="None"/>\u000a        <Param name="forceEndRoutine" val="True" valType="bool" updates="constant"/>\u000a        <Param name="startEstim" val="" valType="code" updates="None"/>\u000a        <Param name="discard previous" val="True" valType="bool" updates="constant"/>\u000a        <Param name="startType" val="time (s)" valType="str" updates="None"/>\u000a        <Param name="allowedKeys" val="" valType="code" updates="constant"/>\u000a        <Param name="stopType" val="duration (s)" valType="str" updates="None"/>\u000a        <Param name="startVal" val="0.0" valType="code" updates="None"/>\u000a        <Param name="store" val="last key" valType="str" updates="constant"/>\u000a      </KeyboardComponent>\u000a    </Routine>\u000a  </Routines>\u000a  <Flow>\u000a    <Routine name="StimSetup"/>\u000a    <Routine name="instrPractice"/>\u000a    <LoopInitiator loopType="TrialHandler" name="practiceTrials">\u000a      <Param name="conditionsFile" val="Trialtypes5.xlsx" valType="str" updates="None"/>\u000a      <Param name="name" val="practiceTrials" valType="code" updates="None"/>\u000a      <Param name="isTrials" val="True" valType="bool" updates="None"/>\u000a      <Param name="random seed" val="" valType="code" updates="None"/>\u000a      <Param name="loopType" val="random" valType="str" updates="None"/>\u000a      <Param name="nReps" val="1" valType="num" updates="None"/>\u000a      <Param name="endPoints" val="[1, 2]" valType="num" updates="None"/>\u000a      <Param name="conditions" val="[{u'xPos': 200, u'corrAns': u'y', u'yPos': 200}, {u'xPos': -200, u'corrAns': u't', u'yPos': 200}, {u'xPos': 200, u'corrAns': u'h', u'yPos': -200}, {u'xPos': -200, u'corrAns': u'g', u'yPos': -200}]" valType="str" updates="None"/>\u000a      <Param name="Selected rows" val="" valType="str" updates="None"/>\u000a    </LoopInitiator>\u000a    <LoopInitiator loopType="TrialHandler" name="ReDoLoop">\u000a      <Param name="conditionsFile" val="" valType="str" updates="None"/>\u000a      <Param name="name" val="ReDoLoop" valType="code" updates="None"/>\u000a      <Param name="isTrials" val="True" valType="bool" updates="None"/>\u000a      <Param name="random seed" val="" valType="code" updates="None"/>\u000a      <Param name="loopType" val="random" valType="str" updates="None"/>\u000a      <Param name="nReps" val="$Redo" valType="code" updates="None"/>\u000a      <Param name="endPoints" val="[0, 1]" valType="num" updates="None"/>\u000a      <Param name="conditions" val="None" valType="str" updates="None"/>\u000a      <Param name="Selected rows" val="" valType="code" updates="None"/>\u000a    </LoopInitiator>\u000a    <Routine name="trial"/>\u000a    <Routine name="feedback"/>\u000a    <LoopTerminator name="ReDoLoop"/>\u000a    <LoopTerminator name="practiceTrials"/>\u000a    <Routine name="instrMain"/>\u000a    <LoopInitiator loopType="TrialHandler" name="trials">\u000a      <Param name="conditionsFile" val="Trialtypes5.xlsx" valType="str" updates="None"/>\u000a      <Param name="name" val="trials" valType="code" updates="None"/>\u000a      <Param name="isTrials" val="True" valType="bool" updates="None"/>\u000a      <Param name="random seed" val="" valType="code" updates="None"/>\u000a      <Param name="loopType" val="random" valType="str" updates="None"/>\u000a      <Param name="nReps" val="10" valType="num" updates="None"/>\u000a      <Param name="endPoints" val="[0, 1]" valType="num" updates="None"/>\u000a      <Param name="conditions" val="[{u'xPos': 200, u'corrAns': u'y', u'yPos': 200}, {u'xPos': -200, u'corrAns': u't', u'yPos': 200}, {u'xPos': 200, u'corrAns': u'h', u'yPos': -200}, {u'xPos': -200, u'corrAns': u'g', u'yPos': -200}]" valType="str" updates="None"/>\u000a      <Param name="Selected rows" val="" valType="str" updates="None"/>\u000a    </LoopInitiator>\u000a    <Routine name="trial"/>\u000a    <Routine name="feedback"/>\u000a    <LoopTerminator name="trials"/>\u000a  </Flow>\u000a</PsychoPy2experiment>\u000a
p215
sg43
(lp216
sg51
I246515120
sg11
S'practiceTrials'
p217
sg6
g7
sg53
I1
sg20
I01
sg21
g22
sg54
g1
(g55
g45
(dp218
g57
g58
(g59
g60
g61
S'b'
tRp219
(I1
(I4
I1
tg63
I00
S'\x00\x00\x80?\x00\x00\x80?\x00\x00\x80?\x00\x00\x80?'
S'\x00\x00\x00\x00'
Ntbsg64
g58
(g59
g60
g61
S'b'
tRp220
(I1
(I4
I1
tg63
I00
S'\x00\x00\x00\x00\x00\x00@@\x00\x00\x00@\x00\x00\x80?'
S'\x00\x00\x00\x00'
NtbstRp221
(dp222
g68
(dp223
g57
I01
sg64
I01
ssg52
g213
sg70
(lp224
g57
ag64
asg72
(lp225
I4
aI1
asbsg74
g75
sg76
g77
(g60
(I0
tS'b'
tRp226
(I1
(I4
I1
tg79
I01
S'\x00\x00\x00\x00\x03\x00\x00\x00\x02\x00\x00\x00\x01\x00\x00\x00'
tbsg80
I01
sg81
I1
sg82
I-1
sg83
(lp227
g1
(g44
g45
(dp228
g104
I200
sg105
Vy
sg106
I200
stRp229
ag1
(g44
g45
(dp230
g104
I-200
sg105
Vt
sg106
I200
stRp231
ag1
(g44
g45
(dp232
g104
I200
sg105
Vh
sg106
I-200
stRp233
ag1
(g44
g45
(dp234
g104
I-200
sg105
Vg
sg106
I-200
stRp235
asg91
Nsg92
g194
sg94
I4
sg95
I0
sg96
I4
sg97
I01
sbag1
(g38
g3
NtRp236
(dp237
g41
V<PsychoPy2experiment version="1.82.01" encoding="utf-8">\u000a  <Settings>\u000a    <Param name="Show mouse" val="False" valType="bool" updates="None"/>\u000a    <Param name="Data filename" val="u'data' + os.sep + '%s_%s' %(expInfo['participant'], expInfo['date'])" valType="code" updates="None"/>\u000a    <Param name="Monitor" val="testMonitor" valType="str" updates="None"/>\u000a    <Param name="Enable Escape" val="True" valType="bool" updates="None"/>\u000a    <Param name="color" val="black" valType="str" updates="None"/>\u000a    <Param name="Window size (pixels)" val="[1680, 1050]" valType="code" updates="None"/>\u000a    <Param name="Full-screen window" val="True" valType="bool" updates="None"/>\u000a    <Param name="colorSpace" val="rgb" valType="str" updates="None"/>\u000a    <Param name="Experiment info" val="{'participant':'', 'gender (m/f)':'', 'age':'', 'session':03}" valType="code" updates="None"/>\u000a    <Param name="Save csv file" val="False" valType="bool" updates="None"/>\u000a    <Param name="Show info dlg" val="True" valType="bool" updates="None"/>\u000a    <Param name="Save wide csv file" val="True" valType="bool" updates="None"/>\u000a    <Param name="Save psydat file" val="True" valType="bool" updates="None"/>\u000a    <Param name="expName" val="LearningTask" valType="str" updates="None"/>\u000a    <Param name="logging level" val="warning" valType="code" updates="None"/>\u000a    <Param name="blendMode" val="avg" valType="str" updates="None"/>\u000a    <Param name="Save excel file" val="True" valType="bool" updates="None"/>\u000a    <Param name="Units" val="use prefs" valType="str" updates="None"/>\u000a    <Param name="Save log file" val="True" valType="bool" updates="None"/>\u000a    <Param name="Screen" val="1" valType="num" updates="None"/>\u000a  </Settings>\u000a  <Routines>\u000a    <Routine name="trial">\u000a      <CodeComponent name="code_2">\u000a        <Param name="Begin Experiment" val="" valType="extendedCode" updates="constant"/>\u000a        <Param name="name" val="code_2" valType="code" updates="None"/>\u000a        <Param name="Begin Routine" val="import random&#10;&#10;Integers = [1, 2, 3, 4, 5, 6, 7, 8]&#10;&#10;if Redo == 1:&#10;    ConditionChoice = random.choice(Integers)&#10;    if ConditionChoice == 1:&#10;        CurrentStimulus = ConditionOne['fileName']&#10;    elif ConditionChoice == 2:&#10;        CurrentStimulus = ConditionTwo['fileName']&#10;    elif ConditionChoice == 3:&#10;        CurrentStimulus = ConditionThree['fileName']&#10;    elif ConditionChoice == 4:&#10;        CurrentStimulus = ConditionFour['fileName']&#10;    elif ConditionChoice == 5:&#10;        CurrentStimulus = ConditionFive['fileName']&#10;    elif ConditionChoice == 6:&#10;        CurrentStimulus = ConditionSix['fileName']&#10;    elif ConditionChoice == 7:&#10;        CurrentStimulus = ConditionSeven['fileName']&#10;    elif ConditionChoice == 8:&#10;        CurrentStimulus = ConditionEight['fileName']" valType="extendedCode" updates="constant"/>\u000a        <Param name="End Routine" val="" valType="extendedCode" updates="constant"/>\u000a        <Param name="End Experiment" val="" valType="extendedCode" updates="constant"/>\u000a        <Param name="Each Frame" val="" valType="extendedCode" updates="constant"/>\u000a      </CodeComponent>\u000a      <KeyboardComponent name="resp">\u000a        <Param name="correctAns" val="$corrAns" valType="str" updates="constant"/>\u000a        <Param name="storeCorrect" val="True" valType="bool" updates="constant"/>\u000a        <Param name="name" val="resp" valType="code" updates="None"/>\u000a        <Param name="stopVal" val="1" valType="code" updates="constant"/>\u000a        <Param name="durationEstim" val="" valType="code" updates="None"/>\u000a        <Param name="forceEndRoutine" val="True" valType="bool" updates="constant"/>\u000a        <Param name="startEstim" val="" valType="code" updates="None"/>\u000a        <Param name="discard previous" val="True" valType="bool" updates="constant"/>\u000a        <Param name="startType" val="time (s)" valType="str" updates="None"/>\u000a        <Param name="allowedKeys" val="'t', 'y', 'g', 'h'" valType="code" updates="constant"/>\u000a        <Param name="stopType" val="duration (s)" valType="str" updates="None"/>\u000a        <Param name="startVal" val=".5" valType="code" updates="None"/>\u000a        <Param name="store" val="last key" valType="str" updates="constant"/>\u000a      </KeyboardComponent>\u000a      <TextComponent name="text">\u000a        <Param name="opacity" val="1" valType="code" updates="constant"/>\u000a        <Param name="colorSpace" val="rgb" valType="str" updates="constant"/>\u000a        <Param name="name" val="text" valType="code" updates="None"/>\u000a        <Param name="wrapWidth" val="" valType="code" updates="constant"/>\u000a        <Param name="color" val="white" valType="str" updates="constant"/>\u000a        <Param name="text" val="+" valType="str" updates="constant"/>\u000a        <Param name="stopVal" val="1.5" valType="code" updates="constant"/>\u000a        <Param name="durationEstim" val="" valType="code" updates="None"/>\u000a        <Param name="pos" val="[0, 0]" valType="code" updates="constant"/>\u000a        <Param name="flip" val="" valType="str" updates="constant"/>\u000a        <Param name="startEstim" val="" valType="code" updates="None"/>\u000a        <Param name="units" val="from exp settings" valType="str" updates="None"/>\u000a        <Param name="startType" val="time (s)" valType="str" updates="None"/>\u000a        <Param name="ori" val="0" valType="code" updates="constant"/>\u000a        <Param name="stopType" val="duration (s)" valType="str" updates="None"/>\u000a        <Param name="startVal" val="0.0" valType="code" updates="None"/>\u000a        <Param name="font" val="Arial" valType="str" updates="constant"/>\u000a        <Param name="letterHeight" val="1" valType="code" updates="constant"/>\u000a      </TextComponent>\u000a      <ImageComponent name="image_2">\u000a        <Param name="opacity" val="1" valType="code" updates="constant"/>\u000a        <Param name="flipVert" val="False" valType="bool" updates="constant"/>\u000a        <Param name="colorSpace" val="rgb" valType="str" updates="constant"/>\u000a        <Param name="name" val="image_2" valType="code" updates="None"/>\u000a        <Param name="color" val="$[1,1,1]" valType="str" updates="constant"/>\u000a        <Param name="stopVal" val="1.0" valType="code" updates="constant"/>\u000a        <Param name="durationEstim" val="" valType="code" updates="None"/>\u000a        <Param name="mask" val="None" valType="str" updates="constant"/>\u000a        <Param name="pos" val="$[xPos, yPos]" valType="code" updates="set every repeat"/>\u000a        <Param name="interpolate" val="linear" valType="str" updates="constant"/>\u000a        <Param name="startEstim" val="" valType="code" updates="None"/>\u000a        <Param name="units" val="pix" valType="str" updates="None"/>\u000a        <Param name="texture resolution" val="128" valType="code" updates="constant"/>\u000a        <Param name="startType" val="time (s)" valType="str" updates="None"/>\u000a        <Param name="ori" val="0" valType="code" updates="constant"/>\u000a        <Param name="stopType" val="duration (s)" valType="str" updates="None"/>\u000a        <Param name="startVal" val=".5" valType="code" updates="None"/>\u000a        <Param name="flipHoriz" val="False" valType="bool" updates="constant"/>\u000a        <Param name="image" val="$CurrentStimulus" valType="str" updates="set every repeat"/>\u000a        <Param name="size" val="[101, 101]" valType="code" updates="constant"/>\u000a      </ImageComponent>\u000a    </Routine>\u000a    <Routine name="StimSetup">\u000a      <CodeComponent name="code">\u000a        <Param name="Begin Experiment" val="import random&#10;Redo = 1&#10;colors = ['yellow', 'white', 'orange', 'magenta', 'green', 'gray', 'cyan', 'blue']&#10;shapes = ['triangle', 'square', 'line', 'invertedtriangle', 'hexagon', 'diamond', 'cross', 'circle']&#10;rewards = [0.5, 1, 2, 4] * 2&#10;conditions = ['go', 'go', 'go', 'go', 'stop', 'stop', 'stop', 'stop']&#10;trialDetailsList = []&#10;&#10;shuffle(colors)&#10;shuffle(shapes)&#10;&#10;for i, color in enumerate(colors): # cycle through each color and keep track of an index number&#10;    trialDetails = {} # a dictionary of key-value pairs&#10;    trialDetails['fileName'] = shapes[i] + color + '.gif'&#10;    trialDetails['reward'] = rewards[i]&#10;    trialDetails['condition'] = conditions[i]&#10;    trialDetailsList.append(trialDetails)&#10;&#10;shuffle(trialDetailsList) # do this now to ensure that order of presentation of rewards and conditions is also shuffled&#10;&#10;ConditionOne = trialDetailsList[0]&#10;ConditionTwo = trialDetailsList[1]&#10;ConditionThree = trialDetailsList[2]&#10;ConditionFour = trialDetailsList[3]&#10;ConditionFive = trialDetailsList[4]&#10;ConditionSix = trialDetailsList[5]&#10;ConditionSeven = trialDetailsList[6]&#10;ConditionEight = trialDetailsList[7]" valType="extendedCode" updates="constant"/>\u000a        <Param name="name" val="code" valType="code" updates="None"/>\u000a        <Param name="Begin Routine" val="" valType="extendedCode" updates="constant"/>\u000a        <Param name="End Routine" val="" valType="extendedCode" updates="constant"/>\u000a        <Param name="End Experiment" val="" valType="extendedCode" updates="constant"/>\u000a        <Param name="Each Frame" val="" valType="extendedCode" updates="constant"/>\u000a      </CodeComponent>\u000a    </Routine>\u000a    <Routine name="instrMain">\u000a      <TextComponent name="instr2">\u000a        <Param name="opacity" val="1" valType="code" updates="constant"/>\u000a        <Param name="colorSpace" val="rgb" valType="str" updates="constant"/>\u000a        <Param name="name" val="instr2" valType="code" updates="constant"/>\u000a        <Param name="wrapWidth" val="" valType="code" updates="constant"/>\u000a        <Param name="color" val="white" valType="str" updates="constant"/>\u000a        <Param name="text" val="OK, ready to start the main experiment?&#10;&#10;Remember, press;&#10; - 'S' if the SMALL letters are S&#10; - 'H' if the SMALL letters are H&#10;&#10;Try to respond as quickly and as accurately as possible.&#10;&#10;When you are ready to proceed press any key." valType="str" updates="constant"/>\u000a        <Param name="stopVal" val="" valType="code" updates="constant"/>\u000a        <Param name="durationEstim" val="" valType="code" updates="None"/>\u000a        <Param name="pos" val="[0, 0]" valType="code" updates="constant"/>\u000a        <Param name="flip" val="" valType="str" updates="constant"/>\u000a        <Param name="startEstim" val="" valType="code" updates="None"/>\u000a        <Param name="units" val="from exp settings" valType="str" updates="None"/>\u000a        <Param name="startType" val="time (s)" valType="str" updates="None"/>\u000a        <Param name="ori" val="0" valType="code" updates="constant"/>\u000a        <Param name="stopType" val="duration (s)" valType="str" updates="None"/>\u000a        <Param name="startVal" val="0.0" valType="code" updates="None"/>\u000a        <Param name="font" val="Arial" valType="str" updates="constant"/>\u000a        <Param name="letterHeight" val="0.075" valType="code" updates="constant"/>\u000a      </TextComponent>\u000a      <KeyboardComponent name="ok2">\u000a        <Param name="correctAns" val="" valType="str" updates="constant"/>\u000a        <Param name="storeCorrect" val="False" valType="bool" updates="constant"/>\u000a        <Param name="name" val="ok2" valType="code" updates="None"/>\u000a        <Param name="stopVal" val="" valType="code" updates="constant"/>\u000a        <Param name="durationEstim" val="" valType="code" updates="None"/>\u000a        <Param name="forceEndRoutine" val="True" valType="bool" updates="constant"/>\u000a        <Param name="startEstim" val="" valType="code" updates="None"/>\u000a        <Param name="discard previous" val="True" valType="bool" updates="constant"/>\u000a        <Param name="startType" val="time (s)" valType="str" updates="None"/>\u000a        <Param name="allowedKeys" val="" valType="code" updates="constant"/>\u000a        <Param name="stopType" val="duration (s)" valType="str" updates="None"/>\u000a        <Param name="startVal" val="0.0" valType="code" updates="None"/>\u000a        <Param name="store" val="nothing" valType="str" updates="constant"/>\u000a      </KeyboardComponent>\u000a    </Routine>\u000a    <Routine name="feedback">\u000a      <CodeComponent name="message">\u000a        <Param name="Begin Experiment" val="#message variable just needs some value at start&#10;message=0" valType="extendedCode" updates="constant"/>\u000a        <Param name="name" val="message" valType="code" updates="None"/>\u000a        <Param name="Begin Routine" val="DisplayReward = random.randrange(1, 6)&#10;&#10;if resp.corr:#stored on last run routine&#10;    if DisplayReward == 1:&#10;            message = 0;&#10;    else:&#10;        if ConditionChoice == 1:&#10;            CurrentReward = ConditionOne['reward']&#10;            message = CurrentReward + (random.randrange(-25, 26)*.01)&#10;        elif ConditionChoice == 2:&#10;            CurrentReward = ConditionTwo['reward']&#10;            message = CurrentReward + (random.randrange(-25, 26)*.01)&#10;        elif ConditionChoice == 3:&#10;            CurrentReward = ConditionThree['reward']&#10;            message = CurrentReward + (random.randrange(-25, 26)*.01)&#10;        elif ConditionChoice == 4:&#10;            CurrentReward = ConditionFour['reward']&#10;            message = CurrentReward + (random.randrange(-25, 26)*.01)&#10;        elif ConditionChoice == 5:&#10;            CurrentReward = ConditionFive['reward']&#10;            message = CurrentReward + (random.randrange(-25, 26)*.01)&#10;        elif ConditionChoice == 6:&#10;            CurrentReward = ConditionSix['reward']&#10;            message = CurrentReward + (random.randrange(-25, 26)*.01)&#10;        elif ConditionChoice == 7:&#10;            CurrentReward = ConditionSeven['reward']&#10;            message = CurrentReward + (random.randrange(-25, 26)*.01)&#10;        elif ConditionChoice == 8:&#10;            CurrentReward = ConditionEight['reward']&#10;            message = CurrentReward + (random.randrange(-25, 26)*.01)&#10;elif resp.keys is None: #or len(key_resp.keys)&lt;1:&#10;#elif resp.rt == 0:&#10;    message =&quot;Too Slow&quot;&#10;else:&#10;  message=&quot;Wrong&quot;&#10;&#10;if resp.corr:#stored on last run routine&#10;    Redo = 1; &#10;else:&#10;    Redo = Redo + 1;&#10;&#10;#if DisplayReward == 1:&#10;#    message = 0;&#10;#else:&#10;#    message = CurrentReward + (random.randrange(-25, 26)*.01)&#10;&#10;#  message=&quot;Correct! RT=%.3f&quot; %(resp.rt)" valType="extendedCode" updates="constant"/>\u000a        <Param name="End Routine" val="" valType="extendedCode" updates="constant"/>\u000a        <Param name="End Experiment" val="" valType="extendedCode" updates="constant"/>\u000a        <Param name="Each Frame" val="" valType="extendedCode" updates="constant"/>\u000a      </CodeComponent>\u000a      <TextComponent name="feedback_2">\u000a        <Param name="opacity" val="1" valType="code" updates="constant"/>\u000a        <Param name="colorSpace" val="rgb" valType="str" updates="constant"/>\u000a        <Param name="name" val="feedback_2" valType="code" updates="constant"/>\u000a        <Param name="wrapWidth" val="" valType="code" updates="constant"/>\u000a        <Param name="color" val="$[1,1,1]" valType="str" updates="constant"/>\u000a        <Param name="text" val="$message" valType="str" updates="set every repeat"/>\u000a        <Param name="stopVal" val="1.0" valType="code" updates="constant"/>\u000a        <Param name="durationEstim" val="" valType="code" updates="None"/>\u000a        <Param name="pos" val="[0, 0]" valType="code" updates="constant"/>\u000a        <Param name="flip" val="" valType="str" updates="constant"/>\u000a        <Param name="startEstim" val="" valType="code" updates="None"/>\u000a        <Param name="units" val="from exp settings" valType="str" updates="None"/>\u000a        <Param name="startType" val="time (s)" valType="str" updates="None"/>\u000a        <Param name="ori" val="0" valType="code" updates="constant"/>\u000a        <Param name="stopType" val="duration (s)" valType="str" updates="None"/>\u000a        <Param name="startVal" val="0.0" valType="code" updates="None"/>\u000a        <Param name="font" val="Arial" valType="str" updates="constant"/>\u000a        <Param name="letterHeight" val="0.1" valType="code" updates="constant"/>\u000a      </TextComponent>\u000a    </Routine>\u000a    <Routine name="instrPractice">\u000a      <TextComponent name="instruct1">\u000a        <Param name="opacity" val="1" valType="code" updates="constant"/>\u000a        <Param name="colorSpace" val="rgb" valType="str" updates="constant"/>\u000a        <Param name="name" val="instruct1" valType="code" updates="constant"/>\u000a        <Param name="wrapWidth" val="" valType="code" updates="constant"/>\u000a        <Param name="color" val="white" valType="str" updates="constant"/>\u000a        <Param name="text" val="A shape stimulus will appear on every trial. &#10;&#10;If it appears in the upper right quadrant, PRESS Y&#10;&#10;If it appears in the lower right quadrant, PRESS H&#10;&#10;If it appears in the lower left quadrant, PRESS G&#10;&#10;If it appears in the upper left quadrant, PRESS T&#10;&#10;Press any key when you are ready to proceed. " valType="str" updates="constant"/>\u000a        <Param name="stopVal" val="" valType="code" updates="constant"/>\u000a        <Param name="durationEstim" val="" valType="code" updates="None"/>\u000a        <Param name="pos" val="[0, 0]" valType="code" updates="constant"/>\u000a        <Param name="flip" val="" valType="str" updates="constant"/>\u000a        <Param name="startEstim" val="" valType="code" updates="None"/>\u000a        <Param name="units" val="from exp settings" valType="str" updates="None"/>\u000a        <Param name="startType" val="time (s)" valType="str" updates="None"/>\u000a        <Param name="ori" val="0" valType="code" updates="constant"/>\u000a        <Param name="stopType" val="duration (s)" valType="str" updates="None"/>\u000a        <Param name="startVal" val="0.0" valType="code" updates="None"/>\u000a        <Param name="font" val="Arial" valType="str" updates="constant"/>\u000a        <Param name="letterHeight" val="0.07" valType="code" updates="constant"/>\u000a      </TextComponent>\u000a      <KeyboardComponent name="ok1">\u000a        <Param name="correctAns" val="" valType="str" updates="constant"/>\u000a        <Param name="storeCorrect" val="False" valType="bool" updates="constant"/>\u000a        <Param name="name" val="ok1" valType="code" updates="None"/>\u000a        <Param name="stopVal" val="" valType="code" updates="constant"/>\u000a        <Param name="durationEstim" val="" valType="code" updates="None"/>\u000a        <Param name="forceEndRoutine" val="True" valType="bool" updates="constant"/>\u000a        <Param name="startEstim" val="" valType="code" updates="None"/>\u000a        <Param name="discard previous" val="True" valType="bool" updates="constant"/>\u000a        <Param name="startType" val="time (s)" valType="str" updates="None"/>\u000a        <Param name="allowedKeys" val="" valType="code" updates="constant"/>\u000a        <Param name="stopType" val="duration (s)" valType="str" updates="None"/>\u000a        <Param name="startVal" val="0.0" valType="code" updates="None"/>\u000a        <Param name="store" val="last key" valType="str" updates="constant"/>\u000a      </KeyboardComponent>\u000a    </Routine>\u000a  </Routines>\u000a  <Flow>\u000a    <Routine name="StimSetup"/>\u000a    <Routine name="instrPractice"/>\u000a    <LoopInitiator loopType="TrialHandler" name="practiceTrials">\u000a      <Param name="conditionsFile" val="Trialtypes5.xlsx" valType="str" updates="None"/>\u000a      <Param name="name" val="practiceTrials" valType="code" updates="None"/>\u000a      <Param name="isTrials" val="True" valType="bool" updates="None"/>\u000a      <Param name="random seed" val="" valType="code" updates="None"/>\u000a      <Param name="loopType" val="random" valType="str" updates="None"/>\u000a      <Param name="nReps" val="1" valType="num" updates="None"/>\u000a      <Param name="endPoints" val="[1, 2]" valType="num" updates="None"/>\u000a      <Param name="conditions" val="[{u'xPos': 200, u'corrAns': u'y', u'yPos': 200}, {u'xPos': -200, u'corrAns': u't', u'yPos': 200}, {u'xPos': 200, u'corrAns': u'h', u'yPos': -200}, {u'xPos': -200, u'corrAns': u'g', u'yPos': -200}]" valType="str" updates="None"/>\u000a      <Param name="Selected rows" val="" valType="str" updates="None"/>\u000a    </LoopInitiator>\u000a    <LoopInitiator loopType="TrialHandler" name="ReDoLoop">\u000a      <Param name="conditionsFile" val="" valType="str" updates="None"/>\u000a      <Param name="name" val="ReDoLoop" valType="code" updates="None"/>\u000a      <Param name="isTrials" val="True" valType="bool" updates="None"/>\u000a      <Param name="random seed" val="" valType="code" updates="None"/>\u000a      <Param name="loopType" val="random" valType="str" updates="None"/>\u000a      <Param name="nReps" val="$Redo" valType="code" updates="None"/>\u000a      <Param name="endPoints" val="[0, 1]" valType="num" updates="None"/>\u000a      <Param name="conditions" val="None" valType="str" updates="None"/>\u000a      <Param name="Selected rows" val="" valType="code" updates="None"/>\u000a    </LoopInitiator>\u000a    <Routine name="trial"/>\u000a    <Routine name="feedback"/>\u000a    <LoopTerminator name="ReDoLoop"/>\u000a    <LoopTerminator name="practiceTrials"/>\u000a    <Routine name="instrMain"/>\u000a    <LoopInitiator loopType="TrialHandler" name="trials">\u000a      <Param name="conditionsFile" val="Trialtypes5.xlsx" valType="str" updates="None"/>\u000a      <Param name="name" val="trials" valType="code" updates="None"/>\u000a      <Param name="isTrials" val="True" valType="bool" updates="None"/>\u000a      <Param name="random seed" val="" valType="code" updates="None"/>\u000a      <Param name="loopType" val="random" valType="str" updates="None"/>\u000a      <Param name="nReps" val="10" valType="num" updates="None"/>\u000a      <Param name="endPoints" val="[0, 1]" valType="num" updates="None"/>\u000a      <Param name="conditions" val="[{u'xPos': 200, u'corrAns': u'y', u'yPos': 200}, {u'xPos': -200, u'corrAns': u't', u'yPos': 200}, {u'xPos': 200, u'corrAns': u'h', u'yPos': -200}, {u'xPos': -200, u'corrAns': u'g', u'yPos': -200}]" valType="str" updates="None"/>\u000a      <Param name="Selected rows" val="" valType="str" updates="None"/>\u000a    </LoopInitiator>\u000a    <Routine name="trial"/>\u000a    <Routine name="feedback"/>\u000a    <LoopTerminator name="trials"/>\u000a  </Flow>\u000a</PsychoPy2experiment>\u000a
p238
sg43
(lp239
sg51
I246515120
sg11
S'ReDoLoop'
p240
sg6
g7
sg53
I1
sg20
I01
sg21
g22
sg54
g1
(g55
g45
(dp241
g57
g58
(g59
g60
g61
S'b'
tRp242
(I1
(I1
I1
tg63
I00
S'\x00\x00\x80?'
S'\x00'
Ntbsg17
g77
(g60
(I0
tS'b'
tRp243
(I1
(I1
I1
tg28
(S'O4'
I0
I1
tRp244
(I3
S'|'
NNNI-1
I-1
I63
tbI00
(lp245
S'h'
atbsg18
g58
(g59
g60
g61
S'b'
tRp246
(I1
(I1
I1
tg63
I00
S'\x00\x00\x00\x00'
S'\x00'
Ntbsg64
g58
(g59
g60
g61
S'b'
tRp247
(I1
(I1
I1
tg63
I00
S'\x00\x00\x00\x00'
S'\x00'
Ntbsg19
g58
(g59
g60
g61
S'b'
tRp248
(I1
(I1
I1
tg63
I00
S'\xe0\xec\xf7>'
S'\x00'
NtbstRp249
(dp250
g68
(dp251
g57
I01
sg17
I00
sg19
I01
sg64
I01
sg18
I01
ssg52
g236
sg70
(lp252
g57
ag64
ag17
ag18
ag19
asg72
(lp253
I1
aI1
asbsg74
g75
sg76
g77
(g60
(I0
tS'b'
tRp254
(I1
(I1
I1
tg79
I00
S'\x00\x00\x00\x00'
tbsg80
I01
sg81
I1
sg82
I-1
sg83
(lp255
Nasg91
Nsg92
g113
sg94
I1
sg95
I0
sg96
I1
sg97
I01
sbag1
(g38
g3
NtRp256
(dp257
g41
V<PsychoPy2experiment version="1.82.01" encoding="utf-8">\u000a  <Settings>\u000a    <Param name="Show mouse" val="False" valType="bool" updates="None"/>\u000a    <Param name="Data filename" val="u'data' + os.sep + '%s_%s' %(expInfo['participant'], expInfo['date'])" valType="code" updates="None"/>\u000a    <Param name="Monitor" val="testMonitor" valType="str" updates="None"/>\u000a    <Param name="Enable Escape" val="True" valType="bool" updates="None"/>\u000a    <Param name="color" val="black" valType="str" updates="None"/>\u000a    <Param name="Window size (pixels)" val="[1680, 1050]" valType="code" updates="None"/>\u000a    <Param name="Full-screen window" val="True" valType="bool" updates="None"/>\u000a    <Param name="colorSpace" val="rgb" valType="str" updates="None"/>\u000a    <Param name="Experiment info" val="{'participant':'', 'gender (m/f)':'', 'age':'', 'session':03}" valType="code" updates="None"/>\u000a    <Param name="Save csv file" val="False" valType="bool" updates="None"/>\u000a    <Param name="Show info dlg" val="True" valType="bool" updates="None"/>\u000a    <Param name="Save wide csv file" val="True" valType="bool" updates="None"/>\u000a    <Param name="Save psydat file" val="True" valType="bool" updates="None"/>\u000a    <Param name="expName" val="LearningTask" valType="str" updates="None"/>\u000a    <Param name="logging level" val="warning" valType="code" updates="None"/>\u000a    <Param name="blendMode" val="avg" valType="str" updates="None"/>\u000a    <Param name="Save excel file" val="True" valType="bool" updates="None"/>\u000a    <Param name="Units" val="use prefs" valType="str" updates="None"/>\u000a    <Param name="Save log file" val="True" valType="bool" updates="None"/>\u000a    <Param name="Screen" val="1" valType="num" updates="None"/>\u000a  </Settings>\u000a  <Routines>\u000a    <Routine name="trial">\u000a      <CodeComponent name="code_2">\u000a        <Param name="Begin Experiment" val="" valType="extendedCode" updates="constant"/>\u000a        <Param name="name" val="code_2" valType="code" updates="None"/>\u000a        <Param name="Begin Routine" val="import random&#10;&#10;Integers = [1, 2, 3, 4, 5, 6, 7, 8]&#10;&#10;if Redo == 1:&#10;    ConditionChoice = random.choice(Integers)&#10;    if ConditionChoice == 1:&#10;        CurrentStimulus = ConditionOne['fileName']&#10;    elif ConditionChoice == 2:&#10;        CurrentStimulus = ConditionTwo['fileName']&#10;    elif ConditionChoice == 3:&#10;        CurrentStimulus = ConditionThree['fileName']&#10;    elif ConditionChoice == 4:&#10;        CurrentStimulus = ConditionFour['fileName']&#10;    elif ConditionChoice == 5:&#10;        CurrentStimulus = ConditionFive['fileName']&#10;    elif ConditionChoice == 6:&#10;        CurrentStimulus = ConditionSix['fileName']&#10;    elif ConditionChoice == 7:&#10;        CurrentStimulus = ConditionSeven['fileName']&#10;    elif ConditionChoice == 8:&#10;        CurrentStimulus = ConditionEight['fileName']" valType="extendedCode" updates="constant"/>\u000a        <Param name="End Routine" val="" valType="extendedCode" updates="constant"/>\u000a        <Param name="End Experiment" val="" valType="extendedCode" updates="constant"/>\u000a        <Param name="Each Frame" val="" valType="extendedCode" updates="constant"/>\u000a      </CodeComponent>\u000a      <KeyboardComponent name="resp">\u000a        <Param name="correctAns" val="$corrAns" valType="str" updates="constant"/>\u000a        <Param name="storeCorrect" val="True" valType="bool" updates="constant"/>\u000a        <Param name="name" val="resp" valType="code" updates="None"/>\u000a        <Param name="stopVal" val="1" valType="code" updates="constant"/>\u000a        <Param name="durationEstim" val="" valType="code" updates="None"/>\u000a        <Param name="forceEndRoutine" val="True" valType="bool" updates="constant"/>\u000a        <Param name="startEstim" val="" valType="code" updates="None"/>\u000a        <Param name="discard previous" val="True" valType="bool" updates="constant"/>\u000a        <Param name="startType" val="time (s)" valType="str" updates="None"/>\u000a        <Param name="allowedKeys" val="'t', 'y', 'g', 'h'" valType="code" updates="constant"/>\u000a        <Param name="stopType" val="duration (s)" valType="str" updates="None"/>\u000a        <Param name="startVal" val=".5" valType="code" updates="None"/>\u000a        <Param name="store" val="last key" valType="str" updates="constant"/>\u000a      </KeyboardComponent>\u000a      <TextComponent name="text">\u000a        <Param name="opacity" val="1" valType="code" updates="constant"/>\u000a        <Param name="colorSpace" val="rgb" valType="str" updates="constant"/>\u000a        <Param name="name" val="text" valType="code" updates="None"/>\u000a        <Param name="wrapWidth" val="" valType="code" updates="constant"/>\u000a        <Param name="color" val="white" valType="str" updates="constant"/>\u000a        <Param name="text" val="+" valType="str" updates="constant"/>\u000a        <Param name="stopVal" val="1.5" valType="code" updates="constant"/>\u000a        <Param name="durationEstim" val="" valType="code" updates="None"/>\u000a        <Param name="pos" val="[0, 0]" valType="code" updates="constant"/>\u000a        <Param name="flip" val="" valType="str" updates="constant"/>\u000a        <Param name="startEstim" val="" valType="code" updates="None"/>\u000a        <Param name="units" val="from exp settings" valType="str" updates="None"/>\u000a        <Param name="startType" val="time (s)" valType="str" updates="None"/>\u000a        <Param name="ori" val="0" valType="code" updates="constant"/>\u000a        <Param name="stopType" val="duration (s)" valType="str" updates="None"/>\u000a        <Param name="startVal" val="0.0" valType="code" updates="None"/>\u000a        <Param name="font" val="Arial" valType="str" updates="constant"/>\u000a        <Param name="letterHeight" val="1" valType="code" updates="constant"/>\u000a      </TextComponent>\u000a      <ImageComponent name="image_2">\u000a        <Param name="opacity" val="1" valType="code" updates="constant"/>\u000a        <Param name="flipVert" val="False" valType="bool" updates="constant"/>\u000a        <Param name="colorSpace" val="rgb" valType="str" updates="constant"/>\u000a        <Param name="name" val="image_2" valType="code" updates="None"/>\u000a        <Param name="color" val="$[1,1,1]" valType="str" updates="constant"/>\u000a        <Param name="stopVal" val="1.0" valType="code" updates="constant"/>\u000a        <Param name="durationEstim" val="" valType="code" updates="None"/>\u000a        <Param name="mask" val="None" valType="str" updates="constant"/>\u000a        <Param name="pos" val="$[xPos, yPos]" valType="code" updates="set every repeat"/>\u000a        <Param name="interpolate" val="linear" valType="str" updates="constant"/>\u000a        <Param name="startEstim" val="" valType="code" updates="None"/>\u000a        <Param name="units" val="pix" valType="str" updates="None"/>\u000a        <Param name="texture resolution" val="128" valType="code" updates="constant"/>\u000a        <Param name="startType" val="time (s)" valType="str" updates="None"/>\u000a        <Param name="ori" val="0" valType="code" updates="constant"/>\u000a        <Param name="stopType" val="duration (s)" valType="str" updates="None"/>\u000a        <Param name="startVal" val=".5" valType="code" updates="None"/>\u000a        <Param name="flipHoriz" val="False" valType="bool" updates="constant"/>\u000a        <Param name="image" val="$CurrentStimulus" valType="str" updates="set every repeat"/>\u000a        <Param name="size" val="[101, 101]" valType="code" updates="constant"/>\u000a      </ImageComponent>\u000a    </Routine>\u000a    <Routine name="StimSetup">\u000a      <CodeComponent name="code">\u000a        <Param name="Begin Experiment" val="import random&#10;Redo = 1&#10;colors = ['yellow', 'white', 'orange', 'magenta', 'green', 'gray', 'cyan', 'blue']&#10;shapes = ['triangle', 'square', 'line', 'invertedtriangle', 'hexagon', 'diamond', 'cross', 'circle']&#10;rewards = [0.5, 1, 2, 4] * 2&#10;conditions = ['go', 'go', 'go', 'go', 'stop', 'stop', 'stop', 'stop']&#10;trialDetailsList = []&#10;&#10;shuffle(colors)&#10;shuffle(shapes)&#10;&#10;for i, color in enumerate(colors): # cycle through each color and keep track of an index number&#10;    trialDetails = {} # a dictionary of key-value pairs&#10;    trialDetails['fileName'] = shapes[i] + color + '.gif'&#10;    trialDetails['reward'] = rewards[i]&#10;    trialDetails['condition'] = conditions[i]&#10;    trialDetailsList.append(trialDetails)&#10;&#10;shuffle(trialDetailsList) # do this now to ensure that order of presentation of rewards and conditions is also shuffled&#10;&#10;ConditionOne = trialDetailsList[0]&#10;ConditionTwo = trialDetailsList[1]&#10;ConditionThree = trialDetailsList[2]&#10;ConditionFour = trialDetailsList[3]&#10;ConditionFive = trialDetailsList[4]&#10;ConditionSix = trialDetailsList[5]&#10;ConditionSeven = trialDetailsList[6]&#10;ConditionEight = trialDetailsList[7]" valType="extendedCode" updates="constant"/>\u000a        <Param name="name" val="code" valType="code" updates="None"/>\u000a        <Param name="Begin Routine" val="" valType="extendedCode" updates="constant"/>\u000a        <Param name="End Routine" val="" valType="extendedCode" updates="constant"/>\u000a        <Param name="End Experiment" val="" valType="extendedCode" updates="constant"/>\u000a        <Param name="Each Frame" val="" valType="extendedCode" updates="constant"/>\u000a      </CodeComponent>\u000a    </Routine>\u000a    <Routine name="instrMain">\u000a      <TextComponent name="instr2">\u000a        <Param name="opacity" val="1" valType="code" updates="constant"/>\u000a        <Param name="colorSpace" val="rgb" valType="str" updates="constant"/>\u000a        <Param name="name" val="instr2" valType="code" updates="constant"/>\u000a        <Param name="wrapWidth" val="" valType="code" updates="constant"/>\u000a        <Param name="color" val="white" valType="str" updates="constant"/>\u000a        <Param name="text" val="OK, ready to start the main experiment?&#10;&#10;Remember, press;&#10; - 'S' if the SMALL letters are S&#10; - 'H' if the SMALL letters are H&#10;&#10;Try to respond as quickly and as accurately as possible.&#10;&#10;When you are ready to proceed press any key." valType="str" updates="constant"/>\u000a        <Param name="stopVal" val="" valType="code" updates="constant"/>\u000a        <Param name="durationEstim" val="" valType="code" updates="None"/>\u000a        <Param name="pos" val="[0, 0]" valType="code" updates="constant"/>\u000a        <Param name="flip" val="" valType="str" updates="constant"/>\u000a        <Param name="startEstim" val="" valType="code" updates="None"/>\u000a        <Param name="units" val="from exp settings" valType="str" updates="None"/>\u000a        <Param name="startType" val="time (s)" valType="str" updates="None"/>\u000a        <Param name="ori" val="0" valType="code" updates="constant"/>\u000a        <Param name="stopType" val="duration (s)" valType="str" updates="None"/>\u000a        <Param name="startVal" val="0.0" valType="code" updates="None"/>\u000a        <Param name="font" val="Arial" valType="str" updates="constant"/>\u000a        <Param name="letterHeight" val="0.075" valType="code" updates="constant"/>\u000a      </TextComponent>\u000a      <KeyboardComponent name="ok2">\u000a        <Param name="correctAns" val="" valType="str" updates="constant"/>\u000a        <Param name="storeCorrect" val="False" valType="bool" updates="constant"/>\u000a        <Param name="name" val="ok2" valType="code" updates="None"/>\u000a        <Param name="stopVal" val="" valType="code" updates="constant"/>\u000a        <Param name="durationEstim" val="" valType="code" updates="None"/>\u000a        <Param name="forceEndRoutine" val="True" valType="bool" updates="constant"/>\u000a        <Param name="startEstim" val="" valType="code" updates="None"/>\u000a        <Param name="discard previous" val="True" valType="bool" updates="constant"/>\u000a        <Param name="startType" val="time (s)" valType="str" updates="None"/>\u000a        <Param name="allowedKeys" val="" valType="code" updates="constant"/>\u000a        <Param name="stopType" val="duration (s)" valType="str" updates="None"/>\u000a        <Param name="startVal" val="0.0" valType="code" updates="None"/>\u000a        <Param name="store" val="nothing" valType="str" updates="constant"/>\u000a      </KeyboardComponent>\u000a    </Routine>\u000a    <Routine name="feedback">\u000a      <CodeComponent name="message">\u000a        <Param name="Begin Experiment" val="#message variable just needs some value at start&#10;message=0" valType="extendedCode" updates="constant"/>\u000a        <Param name="name" val="message" valType="code" updates="None"/>\u000a        <Param name="Begin Routine" val="DisplayReward = random.randrange(1, 6)&#10;&#10;if resp.corr:#stored on last run routine&#10;    if DisplayReward == 1:&#10;            message = 0;&#10;    else:&#10;        if ConditionChoice == 1:&#10;            CurrentReward = ConditionOne['reward']&#10;            message = CurrentReward + (random.randrange(-25, 26)*.01)&#10;        elif ConditionChoice == 2:&#10;            CurrentReward = ConditionTwo['reward']&#10;            message = CurrentReward + (random.randrange(-25, 26)*.01)&#10;        elif ConditionChoice == 3:&#10;            CurrentReward = ConditionThree['reward']&#10;            message = CurrentReward + (random.randrange(-25, 26)*.01)&#10;        elif ConditionChoice == 4:&#10;            CurrentReward = ConditionFour['reward']&#10;            message = CurrentReward + (random.randrange(-25, 26)*.01)&#10;        elif ConditionChoice == 5:&#10;            CurrentReward = ConditionFive['reward']&#10;            message = CurrentReward + (random.randrange(-25, 26)*.01)&#10;        elif ConditionChoice == 6:&#10;            CurrentReward = ConditionSix['reward']&#10;            message = CurrentReward + (random.randrange(-25, 26)*.01)&#10;        elif ConditionChoice == 7:&#10;            CurrentReward = ConditionSeven['reward']&#10;            message = CurrentReward + (random.randrange(-25, 26)*.01)&#10;        elif ConditionChoice == 8:&#10;            CurrentReward = ConditionEight['reward']&#10;            message = CurrentReward + (random.randrange(-25, 26)*.01)&#10;elif resp.keys is None: #or len(key_resp.keys)&lt;1:&#10;#elif resp.rt == 0:&#10;    message =&quot;Too Slow&quot;&#10;else:&#10;  message=&quot;Wrong&quot;&#10;&#10;if resp.corr:#stored on last run routine&#10;    Redo = 1; &#10;else:&#10;    Redo = Redo + 1;&#10;&#10;#if DisplayReward == 1:&#10;#    message = 0;&#10;#else:&#10;#    message = CurrentReward + (random.randrange(-25, 26)*.01)&#10;&#10;#  message=&quot;Correct! RT=%.3f&quot; %(resp.rt)" valType="extendedCode" updates="constant"/>\u000a        <Param name="End Routine" val="" valType="extendedCode" updates="constant"/>\u000a        <Param name="End Experiment" val="" valType="extendedCode" updates="constant"/>\u000a        <Param name="Each Frame" val="" valType="extendedCode" updates="constant"/>\u000a      </CodeComponent>\u000a      <TextComponent name="feedback_2">\u000a        <Param name="opacity" val="1" valType="code" updates="constant"/>\u000a        <Param name="colorSpace" val="rgb" valType="str" updates="constant"/>\u000a        <Param name="name" val="feedback_2" valType="code" updates="constant"/>\u000a        <Param name="wrapWidth" val="" valType="code" updates="constant"/>\u000a        <Param name="color" val="$[1,1,1]" valType="str" updates="constant"/>\u000a        <Param name="text" val="$message" valType="str" updates="set every repeat"/>\u000a        <Param name="stopVal" val="1.0" valType="code" updates="constant"/>\u000a        <Param name="durationEstim" val="" valType="code" updates="None"/>\u000a        <Param name="pos" val="[0, 0]" valType="code" updates="constant"/>\u000a        <Param name="flip" val="" valType="str" updates="constant"/>\u000a        <Param name="startEstim" val="" valType="code" updates="None"/>\u000a        <Param name="units" val="from exp settings" valType="str" updates="None"/>\u000a        <Param name="startType" val="time (s)" valType="str" updates="None"/>\u000a        <Param name="ori" val="0" valType="code" updates="constant"/>\u000a        <Param name="stopType" val="duration (s)" valType="str" updates="None"/>\u000a        <Param name="startVal" val="0.0" valType="code" updates="None"/>\u000a        <Param name="font" val="Arial" valType="str" updates="constant"/>\u000a        <Param name="letterHeight" val="0.1" valType="code" updates="constant"/>\u000a      </TextComponent>\u000a    </Routine>\u000a    <Routine name="instrPractice">\u000a      <TextComponent name="instruct1">\u000a        <Param name="opacity" val="1" valType="code" updates="constant"/>\u000a        <Param name="colorSpace" val="rgb" valType="str" updates="constant"/>\u000a        <Param name="name" val="instruct1" valType="code" updates="constant"/>\u000a        <Param name="wrapWidth" val="" valType="code" updates="constant"/>\u000a        <Param name="color" val="white" valType="str" updates="constant"/>\u000a        <Param name="text" val="A shape stimulus will appear on every trial. &#10;&#10;If it appears in the upper right quadrant, PRESS Y&#10;&#10;If it appears in the lower right quadrant, PRESS H&#10;&#10;If it appears in the lower left quadrant, PRESS G&#10;&#10;If it appears in the upper left quadrant, PRESS T&#10;&#10;Press any key when you are ready to proceed. " valType="str" updates="constant"/>\u000a        <Param name="stopVal" val="" valType="code" updates="constant"/>\u000a        <Param name="durationEstim" val="" valType="code" updates="None"/>\u000a        <Param name="pos" val="[0, 0]" valType="code" updates="constant"/>\u000a        <Param name="flip" val="" valType="str" updates="constant"/>\u000a        <Param name="startEstim" val="" valType="code" updates="None"/>\u000a        <Param name="units" val="from exp settings" valType="str" updates="None"/>\u000a        <Param name="startType" val="time (s)" valType="str" updates="None"/>\u000a        <Param name="ori" val="0" valType="code" updates="constant"/>\u000a        <Param name="stopType" val="duration (s)" valType="str" updates="None"/>\u000a        <Param name="startVal" val="0.0" valType="code" updates="None"/>\u000a        <Param name="font" val="Arial" valType="str" updates="constant"/>\u000a        <Param name="letterHeight" val="0.07" valType="code" updates="constant"/>\u000a      </TextComponent>\u000a      <KeyboardComponent name="ok1">\u000a        <Param name="correctAns" val="" valType="str" updates="constant"/>\u000a        <Param name="storeCorrect" val="False" valType="bool" updates="constant"/>\u000a        <Param name="name" val="ok1" valType="code" updates="None"/>\u000a        <Param name="stopVal" val="" valType="code" updates="constant"/>\u000a        <Param name="durationEstim" val="" valType="code" updates="None"/>\u000a        <Param name="forceEndRoutine" val="True" valType="bool" updates="constant"/>\u000a        <Param name="startEstim" val="" valType="code" updates="None"/>\u000a        <Param name="discard previous" val="True" valType="bool" updates="constant"/>\u000a        <Param name="startType" val="time (s)" valType="str" updates="None"/>\u000a        <Param name="allowedKeys" val="" valType="code" updates="constant"/>\u000a        <Param name="stopType" val="duration (s)" valType="str" updates="None"/>\u000a        <Param name="startVal" val="0.0" valType="code" updates="None"/>\u000a        <Param name="store" val="last key" valType="str" updates="constant"/>\u000a      </KeyboardComponent>\u000a    </Routine>\u000a  </Routines>\u000a  <Flow>\u000a    <Routine name="StimSetup"/>\u000a    <Routine name="instrPractice"/>\u000a    <LoopInitiator loopType="TrialHandler" name="practiceTrials">\u000a      <Param name="conditionsFile" val="Trialtypes5.xlsx" valType="str" updates="None"/>\u000a      <Param name="name" val="practiceTrials" valType="code" updates="None"/>\u000a      <Param name="isTrials" val="True" valType="bool" updates="None"/>\u000a      <Param name="random seed" val="" valType="code" updates="None"/>\u000a      <Param name="loopType" val="random" valType="str" updates="None"/>\u000a      <Param name="nReps" val="1" valType="num" updates="None"/>\u000a      <Param name="endPoints" val="[1, 2]" valType="num" updates="None"/>\u000a      <Param name="conditions" val="[{u'xPos': 200, u'corrAns': u'y', u'yPos': 200}, {u'xPos': -200, u'corrAns': u't', u'yPos': 200}, {u'xPos': 200, u'corrAns': u'h', u'yPos': -200}, {u'xPos': -200, u'corrAns': u'g', u'yPos': -200}]" valType="str" updates="None"/>\u000a      <Param name="Selected rows" val="" valType="str" updates="None"/>\u000a    </LoopInitiator>\u000a    <LoopInitiator loopType="TrialHandler" name="ReDoLoop">\u000a      <Param name="conditionsFile" val="" valType="str" updates="None"/>\u000a      <Param name="name" val="ReDoLoop" valType="code" updates="None"/>\u000a      <Param name="isTrials" val="True" valType="bool" updates="None"/>\u000a      <Param name="random seed" val="" valType="code" updates="None"/>\u000a      <Param name="loopType" val="random" valType="str" updates="None"/>\u000a      <Param name="nReps" val="$Redo" valType="code" updates="None"/>\u000a      <Param name="endPoints" val="[0, 1]" valType="num" updates="None"/>\u000a      <Param name="conditions" val="None" valType="str" updates="None"/>\u000a      <Param name="Selected rows" val="" valType="code" updates="None"/>\u000a    </LoopInitiator>\u000a    <Routine name="trial"/>\u000a    <Routine name="feedback"/>\u000a    <LoopTerminator name="ReDoLoop"/>\u000a    <LoopTerminator name="practiceTrials"/>\u000a    <Routine name="instrMain"/>\u000a    <LoopInitiator loopType="TrialHandler" name="trials">\u000a      <Param name="conditionsFile" val="Trialtypes5.xlsx" valType="str" updates="None"/>\u000a      <Param name="name" val="trials" valType="code" updates="None"/>\u000a      <Param name="isTrials" val="True" valType="bool" updates="None"/>\u000a      <Param name="random seed" val="" valType="code" updates="None"/>\u000a      <Param name="loopType" val="random" valType="str" updates="None"/>\u000a      <Param name="nReps" val="10" valType="num" updates="None"/>\u000a      <Param name="endPoints" val="[0, 1]" valType="num" updates="None"/>\u000a      <Param name="conditions" val="[{u'xPos': 200, u'corrAns': u'y', u'yPos': 200}, {u'xPos': -200, u'corrAns': u't', u'yPos': 200}, {u'xPos': 200, u'corrAns': u'h', u'yPos': -200}, {u'xPos': -200, u'corrAns': u'g', u'yPos': -200}]" valType="str" updates="None"/>\u000a      <Param name="Selected rows" val="" valType="str" updates="None"/>\u000a    </LoopInitiator>\u000a    <Routine name="trial"/>\u000a    <Routine name="feedback"/>\u000a    <LoopTerminator name="trials"/>\u000a  </Flow>\u000a</PsychoPy2experiment>\u000a
p258
sg43
(lp259
sg51
I246515120
sg11
g240
sg6
g7
sg53
I2
sg20
I01
sg21
g22
sg54
g1
(g55
g45
(dp260
g57
g58
(g59
g60
g61
S'b'
tRp261
(I1
(I1
I2
tg63
I00
S'\x00\x00\x80?\x00\x00\x80?'
S'\x00\x00'
Ntbsg17
g77
(g60
(I0
tS'b'
tRp262
(I1
(I1
I2
tg244
I00
(lp263
S'g'
aS't'
atbsg18
g58
(g59
g60
g61
S'b'
tRp264
(I1
(I1
I2
tg63
I00
S'\x00\x00\x80?\x00\x00\x00\x00'
S'\x00\x00'
Ntbsg64
g58
(g59
g60
g61
S'b'
tRp265
(I1
(I1
I2
tg63
I00
S'\x00\x00\x00\x00\x00\x00\x80?'
S'\x00\x00'
Ntbsg19
g58
(g59
g60
g61
S'b'
tRp266
(I1
(I1
I2
tg63
I00
S'\xd8\xafs?$\x96\x04?'
S'\x00\x00'
NtbstRp267
(dp268
g68
(dp269
g57
I01
sg17
I00
sg19
I01
sg64
I01
sg18
I01
ssg52
g256
sg70
(lp270
g57
ag64
ag17
ag18
ag19
asg72
(lp271
I1
aI2
asbsg74
g75
sg76
g77
(g60
(I0
tS'b'
tRp272
(I1
(I1
I2
tg79
I01
S'\x00\x00\x00\x00\x00\x00\x00\x00'
tbsg80
I01
sg81
I2
sg82
I-1
sg83
(lp273
Nasg91
Nsg92
g142
sg94
I2
sg95
I0
sg96
I2
sg97
I01
sbag1
(g38
g3
NtRp274
(dp275
g41
V<PsychoPy2experiment version="1.82.01" encoding="utf-8">\u000a  <Settings>\u000a    <Param name="Show mouse" val="False" valType="bool" updates="None"/>\u000a    <Param name="Data filename" val="u'data' + os.sep + '%s_%s' %(expInfo['participant'], expInfo['date'])" valType="code" updates="None"/>\u000a    <Param name="Monitor" val="testMonitor" valType="str" updates="None"/>\u000a    <Param name="Enable Escape" val="True" valType="bool" updates="None"/>\u000a    <Param name="color" val="black" valType="str" updates="None"/>\u000a    <Param name="Window size (pixels)" val="[1680, 1050]" valType="code" updates="None"/>\u000a    <Param name="Full-screen window" val="True" valType="bool" updates="None"/>\u000a    <Param name="colorSpace" val="rgb" valType="str" updates="None"/>\u000a    <Param name="Experiment info" val="{'participant':'', 'gender (m/f)':'', 'age':'', 'session':03}" valType="code" updates="None"/>\u000a    <Param name="Save csv file" val="False" valType="bool" updates="None"/>\u000a    <Param name="Show info dlg" val="True" valType="bool" updates="None"/>\u000a    <Param name="Save wide csv file" val="True" valType="bool" updates="None"/>\u000a    <Param name="Save psydat file" val="True" valType="bool" updates="None"/>\u000a    <Param name="expName" val="LearningTask" valType="str" updates="None"/>\u000a    <Param name="logging level" val="warning" valType="code" updates="None"/>\u000a    <Param name="blendMode" val="avg" valType="str" updates="None"/>\u000a    <Param name="Save excel file" val="True" valType="bool" updates="None"/>\u000a    <Param name="Units" val="use prefs" valType="str" updates="None"/>\u000a    <Param name="Save log file" val="True" valType="bool" updates="None"/>\u000a    <Param name="Screen" val="1" valType="num" updates="None"/>\u000a  </Settings>\u000a  <Routines>\u000a    <Routine name="trial">\u000a      <CodeComponent name="code_2">\u000a        <Param name="Begin Experiment" val="" valType="extendedCode" updates="constant"/>\u000a        <Param name="name" val="code_2" valType="code" updates="None"/>\u000a        <Param name="Begin Routine" val="import random&#10;&#10;Integers = [1, 2, 3, 4, 5, 6, 7, 8]&#10;&#10;if Redo == 1:&#10;    ConditionChoice = random.choice(Integers)&#10;    if ConditionChoice == 1:&#10;        CurrentStimulus = ConditionOne['fileName']&#10;    elif ConditionChoice == 2:&#10;        CurrentStimulus = ConditionTwo['fileName']&#10;    elif ConditionChoice == 3:&#10;        CurrentStimulus = ConditionThree['fileName']&#10;    elif ConditionChoice == 4:&#10;        CurrentStimulus = ConditionFour['fileName']&#10;    elif ConditionChoice == 5:&#10;        CurrentStimulus = ConditionFive['fileName']&#10;    elif ConditionChoice == 6:&#10;        CurrentStimulus = ConditionSix['fileName']&#10;    elif ConditionChoice == 7:&#10;        CurrentStimulus = ConditionSeven['fileName']&#10;    elif ConditionChoice == 8:&#10;        CurrentStimulus = ConditionEight['fileName']" valType="extendedCode" updates="constant"/>\u000a        <Param name="End Routine" val="" valType="extendedCode" updates="constant"/>\u000a        <Param name="End Experiment" val="" valType="extendedCode" updates="constant"/>\u000a        <Param name="Each Frame" val="" valType="extendedCode" updates="constant"/>\u000a      </CodeComponent>\u000a      <KeyboardComponent name="resp">\u000a        <Param name="correctAns" val="$corrAns" valType="str" updates="constant"/>\u000a        <Param name="storeCorrect" val="True" valType="bool" updates="constant"/>\u000a        <Param name="name" val="resp" valType="code" updates="None"/>\u000a        <Param name="stopVal" val="1" valType="code" updates="constant"/>\u000a        <Param name="durationEstim" val="" valType="code" updates="None"/>\u000a        <Param name="forceEndRoutine" val="True" valType="bool" updates="constant"/>\u000a        <Param name="startEstim" val="" valType="code" updates="None"/>\u000a        <Param name="discard previous" val="True" valType="bool" updates="constant"/>\u000a        <Param name="startType" val="time (s)" valType="str" updates="None"/>\u000a        <Param name="allowedKeys" val="'t', 'y', 'g', 'h'" valType="code" updates="constant"/>\u000a        <Param name="stopType" val="duration (s)" valType="str" updates="None"/>\u000a        <Param name="startVal" val=".5" valType="code" updates="None"/>\u000a        <Param name="store" val="last key" valType="str" updates="constant"/>\u000a      </KeyboardComponent>\u000a      <TextComponent name="text">\u000a        <Param name="opacity" val="1" valType="code" updates="constant"/>\u000a        <Param name="colorSpace" val="rgb" valType="str" updates="constant"/>\u000a        <Param name="name" val="text" valType="code" updates="None"/>\u000a        <Param name="wrapWidth" val="" valType="code" updates="constant"/>\u000a        <Param name="color" val="white" valType="str" updates="constant"/>\u000a        <Param name="text" val="+" valType="str" updates="constant"/>\u000a        <Param name="stopVal" val="1.5" valType="code" updates="constant"/>\u000a        <Param name="durationEstim" val="" valType="code" updates="None"/>\u000a        <Param name="pos" val="[0, 0]" valType="code" updates="constant"/>\u000a        <Param name="flip" val="" valType="str" updates="constant"/>\u000a        <Param name="startEstim" val="" valType="code" updates="None"/>\u000a        <Param name="units" val="from exp settings" valType="str" updates="None"/>\u000a        <Param name="startType" val="time (s)" valType="str" updates="None"/>\u000a        <Param name="ori" val="0" valType="code" updates="constant"/>\u000a        <Param name="stopType" val="duration (s)" valType="str" updates="None"/>\u000a        <Param name="startVal" val="0.0" valType="code" updates="None"/>\u000a        <Param name="font" val="Arial" valType="str" updates="constant"/>\u000a        <Param name="letterHeight" val="1" valType="code" updates="constant"/>\u000a      </TextComponent>\u000a      <ImageComponent name="image_2">\u000a        <Param name="opacity" val="1" valType="code" updates="constant"/>\u000a        <Param name="flipVert" val="False" valType="bool" updates="constant"/>\u000a        <Param name="colorSpace" val="rgb" valType="str" updates="constant"/>\u000a        <Param name="name" val="image_2" valType="code" updates="None"/>\u000a        <Param name="color" val="$[1,1,1]" valType="str" updates="constant"/>\u000a        <Param name="stopVal" val="1.0" valType="code" updates="constant"/>\u000a        <Param name="durationEstim" val="" valType="code" updates="None"/>\u000a        <Param name="mask" val="None" valType="str" updates="constant"/>\u000a        <Param name="pos" val="$[xPos, yPos]" valType="code" updates="set every repeat"/>\u000a        <Param name="interpolate" val="linear" valType="str" updates="constant"/>\u000a        <Param name="startEstim" val="" valType="code" updates="None"/>\u000a        <Param name="units" val="pix" valType="str" updates="None"/>\u000a        <Param name="texture resolution" val="128" valType="code" updates="constant"/>\u000a        <Param name="startType" val="time (s)" valType="str" updates="None"/>\u000a        <Param name="ori" val="0" valType="code" updates="constant"/>\u000a        <Param name="stopType" val="duration (s)" valType="str" updates="None"/>\u000a        <Param name="startVal" val=".5" valType="code" updates="None"/>\u000a        <Param name="flipHoriz" val="False" valType="bool" updates="constant"/>\u000a        <Param name="image" val="$CurrentStimulus" valType="str" updates="set every repeat"/>\u000a        <Param name="size" val="[101, 101]" valType="code" updates="constant"/>\u000a      </ImageComponent>\u000a    </Routine>\u000a    <Routine name="StimSetup">\u000a      <CodeComponent name="code">\u000a        <Param name="Begin Experiment" val="import random&#10;Redo = 1&#10;colors = ['yellow', 'white', 'orange', 'magenta', 'green', 'gray', 'cyan', 'blue']&#10;shapes = ['triangle', 'square', 'line', 'invertedtriangle', 'hexagon', 'diamond', 'cross', 'circle']&#10;rewards = [0.5, 1, 2, 4] * 2&#10;conditions = ['go', 'go', 'go', 'go', 'stop', 'stop', 'stop', 'stop']&#10;trialDetailsList = []&#10;&#10;shuffle(colors)&#10;shuffle(shapes)&#10;&#10;for i, color in enumerate(colors): # cycle through each color and keep track of an index number&#10;    trialDetails = {} # a dictionary of key-value pairs&#10;    trialDetails['fileName'] = shapes[i] + color + '.gif'&#10;    trialDetails['reward'] = rewards[i]&#10;    trialDetails['condition'] = conditions[i]&#10;    trialDetailsList.append(trialDetails)&#10;&#10;shuffle(trialDetailsList) # do this now to ensure that order of presentation of rewards and conditions is also shuffled&#10;&#10;ConditionOne = trialDetailsList[0]&#10;ConditionTwo = trialDetailsList[1]&#10;ConditionThree = trialDetailsList[2]&#10;ConditionFour = trialDetailsList[3]&#10;ConditionFive = trialDetailsList[4]&#10;ConditionSix = trialDetailsList[5]&#10;ConditionSeven = trialDetailsList[6]&#10;ConditionEight = trialDetailsList[7]" valType="extendedCode" updates="constant"/>\u000a        <Param name="name" val="code" valType="code" updates="None"/>\u000a        <Param name="Begin Routine" val="" valType="extendedCode" updates="constant"/>\u000a        <Param name="End Routine" val="" valType="extendedCode" updates="constant"/>\u000a        <Param name="End Experiment" val="" valType="extendedCode" updates="constant"/>\u000a        <Param name="Each Frame" val="" valType="extendedCode" updates="constant"/>\u000a      </CodeComponent>\u000a    </Routine>\u000a    <Routine name="instrMain">\u000a      <TextComponent name="instr2">\u000a        <Param name="opacity" val="1" valType="code" updates="constant"/>\u000a        <Param name="colorSpace" val="rgb" valType="str" updates="constant"/>\u000a        <Param name="name" val="instr2" valType="code" updates="constant"/>\u000a        <Param name="wrapWidth" val="" valType="code" updates="constant"/>\u000a        <Param name="color" val="white" valType="str" updates="constant"/>\u000a        <Param name="text" val="OK, ready to start the main experiment?&#10;&#10;Remember, press;&#10; - 'S' if the SMALL letters are S&#10; - 'H' if the SMALL letters are H&#10;&#10;Try to respond as quickly and as accurately as possible.&#10;&#10;When you are ready to proceed press any key." valType="str" updates="constant"/>\u000a        <Param name="stopVal" val="" valType="code" updates="constant"/>\u000a        <Param name="durationEstim" val="" valType="code" updates="None"/>\u000a        <Param name="pos" val="[0, 0]" valType="code" updates="constant"/>\u000a        <Param name="flip" val="" valType="str" updates="constant"/>\u000a        <Param name="startEstim" val="" valType="code" updates="None"/>\u000a        <Param name="units" val="from exp settings" valType="str" updates="None"/>\u000a        <Param name="startType" val="time (s)" valType="str" updates="None"/>\u000a        <Param name="ori" val="0" valType="code" updates="constant"/>\u000a        <Param name="stopType" val="duration (s)" valType="str" updates="None"/>\u000a        <Param name="startVal" val="0.0" valType="code" updates="None"/>\u000a        <Param name="font" val="Arial" valType="str" updates="constant"/>\u000a        <Param name="letterHeight" val="0.075" valType="code" updates="constant"/>\u000a      </TextComponent>\u000a      <KeyboardComponent name="ok2">\u000a        <Param name="correctAns" val="" valType="str" updates="constant"/>\u000a        <Param name="storeCorrect" val="False" valType="bool" updates="constant"/>\u000a        <Param name="name" val="ok2" valType="code" updates="None"/>\u000a        <Param name="stopVal" val="" valType="code" updates="constant"/>\u000a        <Param name="durationEstim" val="" valType="code" updates="None"/>\u000a        <Param name="forceEndRoutine" val="True" valType="bool" updates="constant"/>\u000a        <Param name="startEstim" val="" valType="code" updates="None"/>\u000a        <Param name="discard previous" val="True" valType="bool" updates="constant"/>\u000a        <Param name="startType" val="time (s)" valType="str" updates="None"/>\u000a        <Param name="allowedKeys" val="" valType="code" updates="constant"/>\u000a        <Param name="stopType" val="duration (s)" valType="str" updates="None"/>\u000a        <Param name="startVal" val="0.0" valType="code" updates="None"/>\u000a        <Param name="store" val="nothing" valType="str" updates="constant"/>\u000a      </KeyboardComponent>\u000a    </Routine>\u000a    <Routine name="feedback">\u000a      <CodeComponent name="message">\u000a        <Param name="Begin Experiment" val="#message variable just needs some value at start&#10;message=0" valType="extendedCode" updates="constant"/>\u000a        <Param name="name" val="message" valType="code" updates="None"/>\u000a        <Param name="Begin Routine" val="DisplayReward = random.randrange(1, 6)&#10;&#10;if resp.corr:#stored on last run routine&#10;    if DisplayReward == 1:&#10;            message = 0;&#10;    else:&#10;        if ConditionChoice == 1:&#10;            CurrentReward = ConditionOne['reward']&#10;            message = CurrentReward + (random.randrange(-25, 26)*.01)&#10;        elif ConditionChoice == 2:&#10;            CurrentReward = ConditionTwo['reward']&#10;            message = CurrentReward + (random.randrange(-25, 26)*.01)&#10;        elif ConditionChoice == 3:&#10;            CurrentReward = ConditionThree['reward']&#10;            message = CurrentReward + (random.randrange(-25, 26)*.01)&#10;        elif ConditionChoice == 4:&#10;            CurrentReward = ConditionFour['reward']&#10;            message = CurrentReward + (random.randrange(-25, 26)*.01)&#10;        elif ConditionChoice == 5:&#10;            CurrentReward = ConditionFive['reward']&#10;            message = CurrentReward + (random.randrange(-25, 26)*.01)&#10;        elif ConditionChoice == 6:&#10;            CurrentReward = ConditionSix['reward']&#10;            message = CurrentReward + (random.randrange(-25, 26)*.01)&#10;        elif ConditionChoice == 7:&#10;            CurrentReward = ConditionSeven['reward']&#10;            message = CurrentReward + (random.randrange(-25, 26)*.01)&#10;        elif ConditionChoice == 8:&#10;            CurrentReward = ConditionEight['reward']&#10;            message = CurrentReward + (random.randrange(-25, 26)*.01)&#10;elif resp.keys is None: #or len(key_resp.keys)&lt;1:&#10;#elif resp.rt == 0:&#10;    message =&quot;Too Slow&quot;&#10;else:&#10;  message=&quot;Wrong&quot;&#10;&#10;if resp.corr:#stored on last run routine&#10;    Redo = 1; &#10;else:&#10;    Redo = Redo + 1;&#10;&#10;#if DisplayReward == 1:&#10;#    message = 0;&#10;#else:&#10;#    message = CurrentReward + (random.randrange(-25, 26)*.01)&#10;&#10;#  message=&quot;Correct! RT=%.3f&quot; %(resp.rt)" valType="extendedCode" updates="constant"/>\u000a        <Param name="End Routine" val="" valType="extendedCode" updates="constant"/>\u000a        <Param name="End Experiment" val="" valType="extendedCode" updates="constant"/>\u000a        <Param name="Each Frame" val="" valType="extendedCode" updates="constant"/>\u000a      </CodeComponent>\u000a      <TextComponent name="feedback_2">\u000a        <Param name="opacity" val="1" valType="code" updates="constant"/>\u000a        <Param name="colorSpace" val="rgb" valType="str" updates="constant"/>\u000a        <Param name="name" val="feedback_2" valType="code" updates="constant"/>\u000a        <Param name="wrapWidth" val="" valType="code" updates="constant"/>\u000a        <Param name="color" val="$[1,1,1]" valType="str" updates="constant"/>\u000a        <Param name="text" val="$message" valType="str" updates="set every repeat"/>\u000a        <Param name="stopVal" val="1.0" valType="code" updates="constant"/>\u000a        <Param name="durationEstim" val="" valType="code" updates="None"/>\u000a        <Param name="pos" val="[0, 0]" valType="code" updates="constant"/>\u000a        <Param name="flip" val="" valType="str" updates="constant"/>\u000a        <Param name="startEstim" val="" valType="code" updates="None"/>\u000a        <Param name="units" val="from exp settings" valType="str" updates="None"/>\u000a        <Param name="startType" val="time (s)" valType="str" updates="None"/>\u000a        <Param name="ori" val="0" valType="code" updates="constant"/>\u000a        <Param name="stopType" val="duration (s)" valType="str" updates="None"/>\u000a        <Param name="startVal" val="0.0" valType="code" updates="None"/>\u000a        <Param name="font" val="Arial" valType="str" updates="constant"/>\u000a        <Param name="letterHeight" val="0.1" valType="code" updates="constant"/>\u000a      </TextComponent>\u000a    </Routine>\u000a    <Routine name="instrPractice">\u000a      <TextComponent name="instruct1">\u000a        <Param name="opacity" val="1" valType="code" updates="constant"/>\u000a        <Param name="colorSpace" val="rgb" valType="str" updates="constant"/>\u000a        <Param name="name" val="instruct1" valType="code" updates="constant"/>\u000a        <Param name="wrapWidth" val="" valType="code" updates="constant"/>\u000a        <Param name="color" val="white" valType="str" updates="constant"/>\u000a        <Param name="text" val="A shape stimulus will appear on every trial. &#10;&#10;If it appears in the upper right quadrant, PRESS Y&#10;&#10;If it appears in the lower right quadrant, PRESS H&#10;&#10;If it appears in the lower left quadrant, PRESS G&#10;&#10;If it appears in the upper left quadrant, PRESS T&#10;&#10;Press any key when you are ready to proceed. " valType="str" updates="constant"/>\u000a        <Param name="stopVal" val="" valType="code" updates="constant"/>\u000a        <Param name="durationEstim" val="" valType="code" updates="None"/>\u000a        <Param name="pos" val="[0, 0]" valType="code" updates="constant"/>\u000a        <Param name="flip" val="" valType="str" updates="constant"/>\u000a        <Param name="startEstim" val="" valType="code" updates="None"/>\u000a        <Param name="units" val="from exp settings" valType="str" updates="None"/>\u000a        <Param name="startType" val="time (s)" valType="str" updates="None"/>\u000a        <Param name="ori" val="0" valType="code" updates="constant"/>\u000a        <Param name="stopType" val="duration (s)" valType="str" updates="None"/>\u000a        <Param name="startVal" val="0.0" valType="code" updates="None"/>\u000a        <Param name="font" val="Arial" valType="str" updates="constant"/>\u000a        <Param name="letterHeight" val="0.07" valType="code" updates="constant"/>\u000a      </TextComponent>\u000a      <KeyboardComponent name="ok1">\u000a        <Param name="correctAns" val="" valType="str" updates="constant"/>\u000a        <Param name="storeCorrect" val="False" valType="bool" updates="constant"/>\u000a        <Param name="name" val="ok1" valType="code" updates="None"/>\u000a        <Param name="stopVal" val="" valType="code" updates="constant"/>\u000a        <Param name="durationEstim" val="" valType="code" updates="None"/>\u000a        <Param name="forceEndRoutine" val="True" valType="bool" updates="constant"/>\u000a        <Param name="startEstim" val="" valType="code" updates="None"/>\u000a        <Param name="discard previous" val="True" valType="bool" updates="constant"/>\u000a        <Param name="startType" val="time (s)" valType="str" updates="None"/>\u000a        <Param name="allowedKeys" val="" valType="code" updates="constant"/>\u000a        <Param name="stopType" val="duration (s)" valType="str" updates="None"/>\u000a        <Param name="startVal" val="0.0" valType="code" updates="None"/>\u000a        <Param name="store" val="last key" valType="str" updates="constant"/>\u000a      </KeyboardComponent>\u000a    </Routine>\u000a  </Routines>\u000a  <Flow>\u000a    <Routine name="StimSetup"/>\u000a    <Routine name="instrPractice"/>\u000a    <LoopInitiator loopType="TrialHandler" name="practiceTrials">\u000a      <Param name="conditionsFile" val="Trialtypes5.xlsx" valType="str" updates="None"/>\u000a      <Param name="name" val="practiceTrials" valType="code" updates="None"/>\u000a      <Param name="isTrials" val="True" valType="bool" updates="None"/>\u000a      <Param name="random seed" val="" valType="code" updates="None"/>\u000a      <Param name="loopType" val="random" valType="str" updates="None"/>\u000a      <Param name="nReps" val="1" valType="num" updates="None"/>\u000a      <Param name="endPoints" val="[1, 2]" valType="num" updates="None"/>\u000a      <Param name="conditions" val="[{u'xPos': 200, u'corrAns': u'y', u'yPos': 200}, {u'xPos': -200, u'corrAns': u't', u'yPos': 200}, {u'xPos': 200, u'corrAns': u'h', u'yPos': -200}, {u'xPos': -200, u'corrAns': u'g', u'yPos': -200}]" valType="str" updates="None"/>\u000a      <Param name="Selected rows" val="" valType="str" updates="None"/>\u000a    </LoopInitiator>\u000a    <LoopInitiator loopType="TrialHandler" name="ReDoLoop">\u000a      <Param name="conditionsFile" val="" valType="str" updates="None"/>\u000a      <Param name="name" val="ReDoLoop" valType="code" updates="None"/>\u000a      <Param name="isTrials" val="True" valType="bool" updates="None"/>\u000a      <Param name="random seed" val="" valType="code" updates="None"/>\u000a      <Param name="loopType" val="random" valType="str" updates="None"/>\u000a      <Param name="nReps" val="$Redo" valType="code" updates="None"/>\u000a      <Param name="endPoints" val="[0, 1]" valType="num" updates="None"/>\u000a      <Param name="conditions" val="None" valType="str" updates="None"/>\u000a      <Param name="Selected rows" val="" valType="code" updates="None"/>\u000a    </LoopInitiator>\u000a    <Routine name="trial"/>\u000a    <Routine name="feedback"/>\u000a    <LoopTerminator name="ReDoLoop"/>\u000a    <LoopTerminator name="practiceTrials"/>\u000a    <Routine name="instrMain"/>\u000a    <LoopInitiator loopType="TrialHandler" name="trials">\u000a      <Param name="conditionsFile" val="Trialtypes5.xlsx" valType="str" updates="None"/>\u000a      <Param name="name" val="trials" valType="code" updates="None"/>\u000a      <Param name="isTrials" val="True" valType="bool" updates="None"/>\u000a      <Param name="random seed" val="" valType="code" updates="None"/>\u000a      <Param name="loopType" val="random" valType="str" updates="None"/>\u000a      <Param name="nReps" val="10" valType="num" updates="None"/>\u000a      <Param name="endPoints" val="[0, 1]" valType="num" updates="None"/>\u000a      <Param name="conditions" val="[{u'xPos': 200, u'corrAns': u'y', u'yPos': 200}, {u'xPos': -200, u'corrAns': u't', u'yPos': 200}, {u'xPos': 200, u'corrAns': u'h', u'yPos': -200}, {u'xPos': -200, u'corrAns': u'g', u'yPos': -200}]" valType="str" updates="None"/>\u000a      <Param name="Selected rows" val="" valType="str" updates="None"/>\u000a    </LoopInitiator>\u000a    <Routine name="trial"/>\u000a    <Routine name="feedback"/>\u000a    <LoopTerminator name="trials"/>\u000a  </Flow>\u000a</PsychoPy2experiment>\u000a
p276
sg43
(lp277
sg51
I246515120
sg11
g240
sg6
g7
sg53
I2
sg20
I01
sg21
g22
sg54
g1
(g55
g45
(dp278
g57
g58
(g59
g60
g61
S'b'
tRp279
(I1
(I1
I2
tg63
I00
S'\x00\x00\x80?\x00\x00\x80?'
S'\x00\x00'
Ntbsg17
g77
(g60
(I0
tS'b'
tRp280
(I1
(I1
I2
tg244
I00
(lp281
S'y'
aS'y'
atbsg18
g58
(g59
g60
g61
S'b'
tRp282
(I1
(I1
I2
tg63
I00
S'\x00\x00\x00\x00\x00\x00\x00\x00'
S'\x00\x00'
Ntbsg64
g58
(g59
g60
g61
S'b'
tRp283
(I1
(I1
I2
tg63
I00
S'\x00\x00\x00\x00\x00\x00\x80?'
S'\x00\x00'
Ntbsg19
g58
(g59
g60
g61
S'b'
tRp284
(I1
(I1
I2
tg63
I00
S'\xa8=\xcd>H\xc4\xd5>'
S'\x00\x00'
NtbstRp285
(dp286
g68
(dp287
g57
I01
sg17
I00
sg19
I01
sg64
I01
sg18
I01
ssg52
g274
sg70
(lp288
g57
ag64
ag17
ag18
ag19
asg72
(lp289
I1
aI2
asbsg74
g75
sg76
g77
(g60
(I0
tS'b'
tRp290
(I1
(I1
I2
tg79
I01
S'\x00\x00\x00\x00\x00\x00\x00\x00'
tbsg80
I01
sg81
I2
sg82
I-1
sg83
(lp291
Nasg91
Nsg92
g170
sg94
I2
sg95
I0
sg96
I2
sg97
I01
sbag1
(g38
g3
NtRp292
(dp293
g41
V<PsychoPy2experiment version="1.82.01" encoding="utf-8">\u000a  <Settings>\u000a    <Param name="Show mouse" val="False" valType="bool" updates="None"/>\u000a    <Param name="Data filename" val="u'data' + os.sep + '%s_%s' %(expInfo['participant'], expInfo['date'])" valType="code" updates="None"/>\u000a    <Param name="Monitor" val="testMonitor" valType="str" updates="None"/>\u000a    <Param name="Enable Escape" val="True" valType="bool" updates="None"/>\u000a    <Param name="color" val="black" valType="str" updates="None"/>\u000a    <Param name="Window size (pixels)" val="[1680, 1050]" valType="code" updates="None"/>\u000a    <Param name="Full-screen window" val="True" valType="bool" updates="None"/>\u000a    <Param name="colorSpace" val="rgb" valType="str" updates="None"/>\u000a    <Param name="Experiment info" val="{'participant':'', 'gender (m/f)':'', 'age':'', 'session':03}" valType="code" updates="None"/>\u000a    <Param name="Save csv file" val="False" valType="bool" updates="None"/>\u000a    <Param name="Show info dlg" val="True" valType="bool" updates="None"/>\u000a    <Param name="Save wide csv file" val="True" valType="bool" updates="None"/>\u000a    <Param name="Save psydat file" val="True" valType="bool" updates="None"/>\u000a    <Param name="expName" val="LearningTask" valType="str" updates="None"/>\u000a    <Param name="logging level" val="warning" valType="code" updates="None"/>\u000a    <Param name="blendMode" val="avg" valType="str" updates="None"/>\u000a    <Param name="Save excel file" val="True" valType="bool" updates="None"/>\u000a    <Param name="Units" val="use prefs" valType="str" updates="None"/>\u000a    <Param name="Save log file" val="True" valType="bool" updates="None"/>\u000a    <Param name="Screen" val="1" valType="num" updates="None"/>\u000a  </Settings>\u000a  <Routines>\u000a    <Routine name="trial">\u000a      <CodeComponent name="code_2">\u000a        <Param name="Begin Experiment" val="" valType="extendedCode" updates="constant"/>\u000a        <Param name="name" val="code_2" valType="code" updates="None"/>\u000a        <Param name="Begin Routine" val="import random&#10;&#10;Integers = [1, 2, 3, 4, 5, 6, 7, 8]&#10;&#10;if Redo == 1:&#10;    ConditionChoice = random.choice(Integers)&#10;    if ConditionChoice == 1:&#10;        CurrentStimulus = ConditionOne['fileName']&#10;    elif ConditionChoice == 2:&#10;        CurrentStimulus = ConditionTwo['fileName']&#10;    elif ConditionChoice == 3:&#10;        CurrentStimulus = ConditionThree['fileName']&#10;    elif ConditionChoice == 4:&#10;        CurrentStimulus = ConditionFour['fileName']&#10;    elif ConditionChoice == 5:&#10;        CurrentStimulus = ConditionFive['fileName']&#10;    elif ConditionChoice == 6:&#10;        CurrentStimulus = ConditionSix['fileName']&#10;    elif ConditionChoice == 7:&#10;        CurrentStimulus = ConditionSeven['fileName']&#10;    elif ConditionChoice == 8:&#10;        CurrentStimulus = ConditionEight['fileName']" valType="extendedCode" updates="constant"/>\u000a        <Param name="End Routine" val="" valType="extendedCode" updates="constant"/>\u000a        <Param name="End Experiment" val="" valType="extendedCode" updates="constant"/>\u000a        <Param name="Each Frame" val="" valType="extendedCode" updates="constant"/>\u000a      </CodeComponent>\u000a      <KeyboardComponent name="resp">\u000a        <Param name="correctAns" val="$corrAns" valType="str" updates="constant"/>\u000a        <Param name="storeCorrect" val="True" valType="bool" updates="constant"/>\u000a        <Param name="name" val="resp" valType="code" updates="None"/>\u000a        <Param name="stopVal" val="1" valType="code" updates="constant"/>\u000a        <Param name="durationEstim" val="" valType="code" updates="None"/>\u000a        <Param name="forceEndRoutine" val="True" valType="bool" updates="constant"/>\u000a        <Param name="startEstim" val="" valType="code" updates="None"/>\u000a        <Param name="discard previous" val="True" valType="bool" updates="constant"/>\u000a        <Param name="startType" val="time (s)" valType="str" updates="None"/>\u000a        <Param name="allowedKeys" val="'t', 'y', 'g', 'h'" valType="code" updates="constant"/>\u000a        <Param name="stopType" val="duration (s)" valType="str" updates="None"/>\u000a        <Param name="startVal" val=".5" valType="code" updates="None"/>\u000a        <Param name="store" val="last key" valType="str" updates="constant"/>\u000a      </KeyboardComponent>\u000a      <TextComponent name="text">\u000a        <Param name="opacity" val="1" valType="code" updates="constant"/>\u000a        <Param name="colorSpace" val="rgb" valType="str" updates="constant"/>\u000a        <Param name="name" val="text" valType="code" updates="None"/>\u000a        <Param name="wrapWidth" val="" valType="code" updates="constant"/>\u000a        <Param name="color" val="white" valType="str" updates="constant"/>\u000a        <Param name="text" val="+" valType="str" updates="constant"/>\u000a        <Param name="stopVal" val="1.5" valType="code" updates="constant"/>\u000a        <Param name="durationEstim" val="" valType="code" updates="None"/>\u000a        <Param name="pos" val="[0, 0]" valType="code" updates="constant"/>\u000a        <Param name="flip" val="" valType="str" updates="constant"/>\u000a        <Param name="startEstim" val="" valType="code" updates="None"/>\u000a        <Param name="units" val="from exp settings" valType="str" updates="None"/>\u000a        <Param name="startType" val="time (s)" valType="str" updates="None"/>\u000a        <Param name="ori" val="0" valType="code" updates="constant"/>\u000a        <Param name="stopType" val="duration (s)" valType="str" updates="None"/>\u000a        <Param name="startVal" val="0.0" valType="code" updates="None"/>\u000a        <Param name="font" val="Arial" valType="str" updates="constant"/>\u000a        <Param name="letterHeight" val="1" valType="code" updates="constant"/>\u000a      </TextComponent>\u000a      <ImageComponent name="image_2">\u000a        <Param name="opacity" val="1" valType="code" updates="constant"/>\u000a        <Param name="flipVert" val="False" valType="bool" updates="constant"/>\u000a        <Param name="colorSpace" val="rgb" valType="str" updates="constant"/>\u000a        <Param name="name" val="image_2" valType="code" updates="None"/>\u000a        <Param name="color" val="$[1,1,1]" valType="str" updates="constant"/>\u000a        <Param name="stopVal" val="1.0" valType="code" updates="constant"/>\u000a        <Param name="durationEstim" val="" valType="code" updates="None"/>\u000a        <Param name="mask" val="None" valType="str" updates="constant"/>\u000a        <Param name="pos" val="$[xPos, yPos]" valType="code" updates="set every repeat"/>\u000a        <Param name="interpolate" val="linear" valType="str" updates="constant"/>\u000a        <Param name="startEstim" val="" valType="code" updates="None"/>\u000a        <Param name="units" val="pix" valType="str" updates="None"/>\u000a        <Param name="texture resolution" val="128" valType="code" updates="constant"/>\u000a        <Param name="startType" val="time (s)" valType="str" updates="None"/>\u000a        <Param name="ori" val="0" valType="code" updates="constant"/>\u000a        <Param name="stopType" val="duration (s)" valType="str" updates="None"/>\u000a        <Param name="startVal" val=".5" valType="code" updates="None"/>\u000a        <Param name="flipHoriz" val="False" valType="bool" updates="constant"/>\u000a        <Param name="image" val="$CurrentStimulus" valType="str" updates="set every repeat"/>\u000a        <Param name="size" val="[101, 101]" valType="code" updates="constant"/>\u000a      </ImageComponent>\u000a    </Routine>\u000a    <Routine name="StimSetup">\u000a      <CodeComponent name="code">\u000a        <Param name="Begin Experiment" val="import random&#10;Redo = 1&#10;colors = ['yellow', 'white', 'orange', 'magenta', 'green', 'gray', 'cyan', 'blue']&#10;shapes = ['triangle', 'square', 'line', 'invertedtriangle', 'hexagon', 'diamond', 'cross', 'circle']&#10;rewards = [0.5, 1, 2, 4] * 2&#10;conditions = ['go', 'go', 'go', 'go', 'stop', 'stop', 'stop', 'stop']&#10;trialDetailsList = []&#10;&#10;shuffle(colors)&#10;shuffle(shapes)&#10;&#10;for i, color in enumerate(colors): # cycle through each color and keep track of an index number&#10;    trialDetails = {} # a dictionary of key-value pairs&#10;    trialDetails['fileName'] = shapes[i] + color + '.gif'&#10;    trialDetails['reward'] = rewards[i]&#10;    trialDetails['condition'] = conditions[i]&#10;    trialDetailsList.append(trialDetails)&#10;&#10;shuffle(trialDetailsList) # do this now to ensure that order of presentation of rewards and conditions is also shuffled&#10;&#10;ConditionOne = trialDetailsList[0]&#10;ConditionTwo = trialDetailsList[1]&#10;ConditionThree = trialDetailsList[2]&#10;ConditionFour = trialDetailsList[3]&#10;ConditionFive = trialDetailsList[4]&#10;ConditionSix = trialDetailsList[5]&#10;ConditionSeven = trialDetailsList[6]&#10;ConditionEight = trialDetailsList[7]" valType="extendedCode" updates="constant"/>\u000a        <Param name="name" val="code" valType="code" updates="None"/>\u000a        <Param name="Begin Routine" val="" valType="extendedCode" updates="constant"/>\u000a        <Param name="End Routine" val="" valType="extendedCode" updates="constant"/>\u000a        <Param name="End Experiment" val="" valType="extendedCode" updates="constant"/>\u000a        <Param name="Each Frame" val="" valType="extendedCode" updates="constant"/>\u000a      </CodeComponent>\u000a    </Routine>\u000a    <Routine name="instrMain">\u000a      <TextComponent name="instr2">\u000a        <Param name="opacity" val="1" valType="code" updates="constant"/>\u000a        <Param name="colorSpace" val="rgb" valType="str" updates="constant"/>\u000a        <Param name="name" val="instr2" valType="code" updates="constant"/>\u000a        <Param name="wrapWidth" val="" valType="code" updates="constant"/>\u000a        <Param name="color" val="white" valType="str" updates="constant"/>\u000a        <Param name="text" val="OK, ready to start the main experiment?&#10;&#10;Remember, press;&#10; - 'S' if the SMALL letters are S&#10; - 'H' if the SMALL letters are H&#10;&#10;Try to respond as quickly and as accurately as possible.&#10;&#10;When you are ready to proceed press any key." valType="str" updates="constant"/>\u000a        <Param name="stopVal" val="" valType="code" updates="constant"/>\u000a        <Param name="durationEstim" val="" valType="code" updates="None"/>\u000a        <Param name="pos" val="[0, 0]" valType="code" updates="constant"/>\u000a        <Param name="flip" val="" valType="str" updates="constant"/>\u000a        <Param name="startEstim" val="" valType="code" updates="None"/>\u000a        <Param name="units" val="from exp settings" valType="str" updates="None"/>\u000a        <Param name="startType" val="time (s)" valType="str" updates="None"/>\u000a        <Param name="ori" val="0" valType="code" updates="constant"/>\u000a        <Param name="stopType" val="duration (s)" valType="str" updates="None"/>\u000a        <Param name="startVal" val="0.0" valType="code" updates="None"/>\u000a        <Param name="font" val="Arial" valType="str" updates="constant"/>\u000a        <Param name="letterHeight" val="0.075" valType="code" updates="constant"/>\u000a      </TextComponent>\u000a      <KeyboardComponent name="ok2">\u000a        <Param name="correctAns" val="" valType="str" updates="constant"/>\u000a        <Param name="storeCorrect" val="False" valType="bool" updates="constant"/>\u000a        <Param name="name" val="ok2" valType="code" updates="None"/>\u000a        <Param name="stopVal" val="" valType="code" updates="constant"/>\u000a        <Param name="durationEstim" val="" valType="code" updates="None"/>\u000a        <Param name="forceEndRoutine" val="True" valType="bool" updates="constant"/>\u000a        <Param name="startEstim" val="" valType="code" updates="None"/>\u000a        <Param name="discard previous" val="True" valType="bool" updates="constant"/>\u000a        <Param name="startType" val="time (s)" valType="str" updates="None"/>\u000a        <Param name="allowedKeys" val="" valType="code" updates="constant"/>\u000a        <Param name="stopType" val="duration (s)" valType="str" updates="None"/>\u000a        <Param name="startVal" val="0.0" valType="code" updates="None"/>\u000a        <Param name="store" val="nothing" valType="str" updates="constant"/>\u000a      </KeyboardComponent>\u000a    </Routine>\u000a    <Routine name="feedback">\u000a      <CodeComponent name="message">\u000a        <Param name="Begin Experiment" val="#message variable just needs some value at start&#10;message=0" valType="extendedCode" updates="constant"/>\u000a        <Param name="name" val="message" valType="code" updates="None"/>\u000a        <Param name="Begin Routine" val="DisplayReward = random.randrange(1, 6)&#10;&#10;if resp.corr:#stored on last run routine&#10;    if DisplayReward == 1:&#10;            message = 0;&#10;    else:&#10;        if ConditionChoice == 1:&#10;            CurrentReward = ConditionOne['reward']&#10;            message = CurrentReward + (random.randrange(-25, 26)*.01)&#10;        elif ConditionChoice == 2:&#10;            CurrentReward = ConditionTwo['reward']&#10;            message = CurrentReward + (random.randrange(-25, 26)*.01)&#10;        elif ConditionChoice == 3:&#10;            CurrentReward = ConditionThree['reward']&#10;            message = CurrentReward + (random.randrange(-25, 26)*.01)&#10;        elif ConditionChoice == 4:&#10;            CurrentReward = ConditionFour['reward']&#10;            message = CurrentReward + (random.randrange(-25, 26)*.01)&#10;        elif ConditionChoice == 5:&#10;            CurrentReward = ConditionFive['reward']&#10;            message = CurrentReward + (random.randrange(-25, 26)*.01)&#10;        elif ConditionChoice == 6:&#10;            CurrentReward = ConditionSix['reward']&#10;            message = CurrentReward + (random.randrange(-25, 26)*.01)&#10;        elif ConditionChoice == 7:&#10;            CurrentReward = ConditionSeven['reward']&#10;            message = CurrentReward + (random.randrange(-25, 26)*.01)&#10;        elif ConditionChoice == 8:&#10;            CurrentReward = ConditionEight['reward']&#10;            message = CurrentReward + (random.randrange(-25, 26)*.01)&#10;elif resp.keys is None: #or len(key_resp.keys)&lt;1:&#10;#elif resp.rt == 0:&#10;    message =&quot;Too Slow&quot;&#10;else:&#10;  message=&quot;Wrong&quot;&#10;&#10;if resp.corr:#stored on last run routine&#10;    Redo = 1; &#10;else:&#10;    Redo = Redo + 1;&#10;&#10;#if DisplayReward == 1:&#10;#    message = 0;&#10;#else:&#10;#    message = CurrentReward + (random.randrange(-25, 26)*.01)&#10;&#10;#  message=&quot;Correct! RT=%.3f&quot; %(resp.rt)" valType="extendedCode" updates="constant"/>\u000a        <Param name="End Routine" val="" valType="extendedCode" updates="constant"/>\u000a        <Param name="End Experiment" val="" valType="extendedCode" updates="constant"/>\u000a        <Param name="Each Frame" val="" valType="extendedCode" updates="constant"/>\u000a      </CodeComponent>\u000a      <TextComponent name="feedback_2">\u000a        <Param name="opacity" val="1" valType="code" updates="constant"/>\u000a        <Param name="colorSpace" val="rgb" valType="str" updates="constant"/>\u000a        <Param name="name" val="feedback_2" valType="code" updates="constant"/>\u000a        <Param name="wrapWidth" val="" valType="code" updates="constant"/>\u000a        <Param name="color" val="$[1,1,1]" valType="str" updates="constant"/>\u000a        <Param name="text" val="$message" valType="str" updates="set every repeat"/>\u000a        <Param name="stopVal" val="1.0" valType="code" updates="constant"/>\u000a        <Param name="durationEstim" val="" valType="code" updates="None"/>\u000a        <Param name="pos" val="[0, 0]" valType="code" updates="constant"/>\u000a        <Param name="flip" val="" valType="str" updates="constant"/>\u000a        <Param name="startEstim" val="" valType="code" updates="None"/>\u000a        <Param name="units" val="from exp settings" valType="str" updates="None"/>\u000a        <Param name="startType" val="time (s)" valType="str" updates="None"/>\u000a        <Param name="ori" val="0" valType="code" updates="constant"/>\u000a        <Param name="stopType" val="duration (s)" valType="str" updates="None"/>\u000a        <Param name="startVal" val="0.0" valType="code" updates="None"/>\u000a        <Param name="font" val="Arial" valType="str" updates="constant"/>\u000a        <Param name="letterHeight" val="0.1" valType="code" updates="constant"/>\u000a      </TextComponent>\u000a    </Routine>\u000a    <Routine name="instrPractice">\u000a      <TextComponent name="instruct1">\u000a        <Param name="opacity" val="1" valType="code" updates="constant"/>\u000a        <Param name="colorSpace" val="rgb" valType="str" updates="constant"/>\u000a        <Param name="name" val="instruct1" valType="code" updates="constant"/>\u000a        <Param name="wrapWidth" val="" valType="code" updates="constant"/>\u000a        <Param name="color" val="white" valType="str" updates="constant"/>\u000a        <Param name="text" val="A shape stimulus will appear on every trial. &#10;&#10;If it appears in the upper right quadrant, PRESS Y&#10;&#10;If it appears in the lower right quadrant, PRESS H&#10;&#10;If it appears in the lower left quadrant, PRESS G&#10;&#10;If it appears in the upper left quadrant, PRESS T&#10;&#10;Press any key when you are ready to proceed. " valType="str" updates="constant"/>\u000a        <Param name="stopVal" val="" valType="code" updates="constant"/>\u000a        <Param name="durationEstim" val="" valType="code" updates="None"/>\u000a        <Param name="pos" val="[0, 0]" valType="code" updates="constant"/>\u000a        <Param name="flip" val="" valType="str" updates="constant"/>\u000a        <Param name="startEstim" val="" valType="code" updates="None"/>\u000a        <Param name="units" val="from exp settings" valType="str" updates="None"/>\u000a        <Param name="startType" val="time (s)" valType="str" updates="None"/>\u000a        <Param name="ori" val="0" valType="code" updates="constant"/>\u000a        <Param name="stopType" val="duration (s)" valType="str" updates="None"/>\u000a        <Param name="startVal" val="0.0" valType="code" updates="None"/>\u000a        <Param name="font" val="Arial" valType="str" updates="constant"/>\u000a        <Param name="letterHeight" val="0.07" valType="code" updates="constant"/>\u000a      </TextComponent>\u000a      <KeyboardComponent name="ok1">\u000a        <Param name="correctAns" val="" valType="str" updates="constant"/>\u000a        <Param name="storeCorrect" val="False" valType="bool" updates="constant"/>\u000a        <Param name="name" val="ok1" valType="code" updates="None"/>\u000a        <Param name="stopVal" val="" valType="code" updates="constant"/>\u000a        <Param name="durationEstim" val="" valType="code" updates="None"/>\u000a        <Param name="forceEndRoutine" val="True" valType="bool" updates="constant"/>\u000a        <Param name="startEstim" val="" valType="code" updates="None"/>\u000a        <Param name="discard previous" val="True" valType="bool" updates="constant"/>\u000a        <Param name="startType" val="time (s)" valType="str" updates="None"/>\u000a        <Param name="allowedKeys" val="" valType="code" updates="constant"/>\u000a        <Param name="stopType" val="duration (s)" valType="str" updates="None"/>\u000a        <Param name="startVal" val="0.0" valType="code" updates="None"/>\u000a        <Param name="store" val="last key" valType="str" updates="constant"/>\u000a      </KeyboardComponent>\u000a    </Routine>\u000a  </Routines>\u000a  <Flow>\u000a    <Routine name="StimSetup"/>\u000a    <Routine name="instrPractice"/>\u000a    <LoopInitiator loopType="TrialHandler" name="practiceTrials">\u000a      <Param name="conditionsFile" val="Trialtypes5.xlsx" valType="str" updates="None"/>\u000a      <Param name="name" val="practiceTrials" valType="code" updates="None"/>\u000a      <Param name="isTrials" val="True" valType="bool" updates="None"/>\u000a      <Param name="random seed" val="" valType="code" updates="None"/>\u000a      <Param name="loopType" val="random" valType="str" updates="None"/>\u000a      <Param name="nReps" val="1" valType="num" updates="None"/>\u000a      <Param name="endPoints" val="[1, 2]" valType="num" updates="None"/>\u000a      <Param name="conditions" val="[{u'xPos': 200, u'corrAns': u'y', u'yPos': 200}, {u'xPos': -200, u'corrAns': u't', u'yPos': 200}, {u'xPos': 200, u'corrAns': u'h', u'yPos': -200}, {u'xPos': -200, u'corrAns': u'g', u'yPos': -200}]" valType="str" updates="None"/>\u000a      <Param name="Selected rows" val="" valType="str" updates="None"/>\u000a    </LoopInitiator>\u000a    <LoopInitiator loopType="TrialHandler" name="ReDoLoop">\u000a      <Param name="conditionsFile" val="" valType="str" updates="None"/>\u000a      <Param name="name" val="ReDoLoop" valType="code" updates="None"/>\u000a      <Param name="isTrials" val="True" valType="bool" updates="None"/>\u000a      <Param name="random seed" val="" valType="code" updates="None"/>\u000a      <Param name="loopType" val="random" valType="str" updates="None"/>\u000a      <Param name="nReps" val="$Redo" valType="code" updates="None"/>\u000a      <Param name="endPoints" val="[0, 1]" valType="num" updates="None"/>\u000a      <Param name="conditions" val="None" valType="str" updates="None"/>\u000a      <Param name="Selected rows" val="" valType="code" updates="None"/>\u000a    </LoopInitiator>\u000a    <Routine name="trial"/>\u000a    <Routine name="feedback"/>\u000a    <LoopTerminator name="ReDoLoop"/>\u000a    <LoopTerminator name="practiceTrials"/>\u000a    <Routine name="instrMain"/>\u000a    <LoopInitiator loopType="TrialHandler" name="trials">\u000a      <Param name="conditionsFile" val="Trialtypes5.xlsx" valType="str" updates="None"/>\u000a      <Param name="name" val="trials" valType="code" updates="None"/>\u000a      <Param name="isTrials" val="True" valType="bool" updates="None"/>\u000a      <Param name="random seed" val="" valType="code" updates="None"/>\u000a      <Param name="loopType" val="random" valType="str" updates="None"/>\u000a      <Param name="nReps" val="10" valType="num" updates="None"/>\u000a      <Param name="endPoints" val="[0, 1]" valType="num" updates="None"/>\u000a      <Param name="conditions" val="[{u'xPos': 200, u'corrAns': u'y', u'yPos': 200}, {u'xPos': -200, u'corrAns': u't', u'yPos': 200}, {u'xPos': 200, u'corrAns': u'h', u'yPos': -200}, {u'xPos': -200, u'corrAns': u'g', u'yPos': -200}]" valType="str" updates="None"/>\u000a      <Param name="Selected rows" val="" valType="str" updates="None"/>\u000a    </LoopInitiator>\u000a    <Routine name="trial"/>\u000a    <Routine name="feedback"/>\u000a    <LoopTerminator name="trials"/>\u000a  </Flow>\u000a</PsychoPy2experiment>\u000a
p294
sg43
(lp295
sg51
I246515120
sg11
g240
sg6
g7
sg53
I2
sg20
I01
sg21
g22
sg54
g1
(g55
g45
(dp296
g57
g58
(g59
g60
g61
S'b'
tRp297
(I1
(I1
I2
tg63
I00
S'\x00\x00\x80?\x00\x00\x80?'
S'\x00\x00'
Ntbsg17
g77
(g60
(I0
tS'b'
tRp298
(I1
(I1
I2
tg244
I00
(lp299
S'h'
aS'h'
atbsg18
g58
(g59
g60
g61
S'b'
tRp300
(I1
(I1
I2
tg63
I00
S'\x00\x00\x00\x00\x00\x00\x00\x00'
S'\x00\x00'
Ntbsg64
g58
(g59
g60
g61
S'b'
tRp301
(I1
(I1
I2
tg63
I00
S'\x00\x00\x00\x00\x00\x00\x80?'
S'\x00\x00'
Ntbsg19
g58
(g59
g60
g61
S'b'
tRp302
(I1
(I1
I2
tg63
I00
S'\xbcy"?\x98X\x11?'
S'\x00\x00'
NtbstRp303
(dp304
g68
(dp305
g57
I01
sg17
I00
sg19
I01
sg64
I01
sg18
I01
ssg52
g292
sg70
(lp306
g57
ag64
ag17
ag18
ag19
asg72
(lp307
I1
aI2
asbsg74
g75
sg76
g77
(g60
(I0
tS'b'
tRp308
(I1
(I1
I2
tg79
I01
S'\x00\x00\x00\x00\x00\x00\x00\x00'
tbsg80
I01
sg81
I2
sg82
I-1
sg83
(lp309
Nasg91
Nsg92
g198
sg94
I2
sg95
I0
sg96
I2
sg97
I01
sbag39
asS'savePickle'
p310
I00
sb.