ccopy_reg
_reconstructor
p1
(cpsychopy.data
ExperimentHandler
p2
c__builtin__
object
p3
NtRp4
(dp5
S'originPath'
p6
V/Users/patrickbissett/OneDrive/Poldrack/TrainedInhibition/PsychoPy/IntegratingDifferentCodeFlexibleStim12.psyexp
p7
sS'dataFileName'
p8
V/Users/patrickbissett/OneDrive/Poldrack/TrainedInhibition/PsychoPy/data/620_2015_Mar_18_1458
p9
sS'runtimeInfo'
p10
NsS'name'
p11
S'LearningTask'
p12
sS'dataNames'
p13
(lp14
S'ok1.keys'
p15
aS'ok1.rt'
p16
aS'resp.keys'
p17
aS'resp.corr'
p18
aS'resp.rt'
p19
asS'autoLog'
p20
I01
sS'extraInfo'
p21
(dp22
S'expName'
p23
g12
sS'gender (m/f)'
p24
V
sS'age'
p25
V
sS'frameRate'
p26
cnumpy.core.multiarray
scalar
p27
(cnumpy
dtype
p28
(S'f8'
I0
I1
tRp29
(I3
S'<'
NNNI-1
I-1
I0
tbS'\xac\xd3\x8c\xf6s\xf5M@'
tRp30
sS'session'
p31
I3
sS'date'
p32
V2015_Mar_18_1458
p33
sS'participant'
p34
V620
p35
ssS'loopsUnfinished'
p36
(lp37
g1
(cpsychopy.data
TrialHandler
p38
g3
NtRp39
(dp40
S'origin'
p41
V<PsychoPy2experiment version="1.82.01" encoding="utf-8">\u000a  <Settings>\u000a    <Param name="Show mouse" val="False" valType="bool" updates="None"/>\u000a    <Param name="Data filename" val="u'data' + os.sep + '%s_%s' %(expInfo['participant'], expInfo['date'])" valType="code" updates="None"/>\u000a    <Param name="Monitor" val="testMonitor" valType="str" updates="None"/>\u000a    <Param name="Enable Escape" val="True" valType="bool" updates="None"/>\u000a    <Param name="color" val="black" valType="str" updates="None"/>\u000a    <Param name="Window size (pixels)" val="[1680, 1050]" valType="code" updates="None"/>\u000a    <Param name="Full-screen window" val="True" valType="bool" updates="None"/>\u000a    <Param name="colorSpace" val="rgb" valType="str" updates="None"/>\u000a    <Param name="Experiment info" val="{'participant':'', 'gender (m/f)':'', 'age':'', 'session':03}" valType="code" updates="None"/>\u000a    <Param name="Save csv file" val="False" valType="bool" updates="None"/>\u000a    <Param name="Show info dlg" val="True" valType="bool" updates="None"/>\u000a    <Param name="Save wide csv file" val="True" valType="bool" updates="None"/>\u000a    <Param name="Save psydat file" val="True" valType="bool" updates="None"/>\u000a    <Param name="expName" val="LearningTask" valType="str" updates="None"/>\u000a    <Param name="logging level" val="warning" valType="code" updates="None"/>\u000a    <Param name="blendMode" val="avg" valType="str" updates="None"/>\u000a    <Param name="Save excel file" val="True" valType="bool" updates="None"/>\u000a    <Param name="Units" val="use prefs" valType="str" updates="None"/>\u000a    <Param name="Save log file" val="True" valType="bool" updates="None"/>\u000a    <Param name="Screen" val="1" valType="num" updates="None"/>\u000a  </Settings>\u000a  <Routines>\u000a    <Routine name="trial">\u000a      <CodeComponent name="code_2">\u000a        <Param name="Begin Experiment" val="" valType="extendedCode" updates="constant"/>\u000a        <Param name="name" val="code_2" valType="code" updates="None"/>\u000a        <Param name="Begin Routine" val="#Redo = 1&#10;&#10;import random&#10;&#10;Integers = [1, 2, 3, 4, 5, 6, 7, 8]&#10;&#10;if Redo == 1:&#10;    ConditionChoice = random.choice(Integers)&#10;    if ConditionChoice == 1:&#10;        CurrentStimulus = ConditionOne['fileName']&#10;    elif ConditionChoice == 2:&#10;        CurrentStimulus = ConditionTwo['fileName']&#10;    elif ConditionChoice == 3:&#10;        CurrentStimulus = ConditionThree['fileName']&#10;    elif ConditionChoice == 4:&#10;        CurrentStimulus = ConditionFour['fileName']&#10;    elif ConditionChoice == 5:&#10;        CurrentStimulus = ConditionFive['fileName']&#10;    elif ConditionChoice == 6:&#10;        CurrentStimulus = ConditionSix['fileName']&#10;    elif ConditionChoice == 7:&#10;        CurrentStimulus = ConditionSeven['fileName']&#10;    elif ConditionChoice == 8:&#10;        CurrentStimulus = ConditionEight['fileName']" valType="extendedCode" updates="constant"/>\u000a        <Param name="End Routine" val="" valType="extendedCode" updates="constant"/>\u000a        <Param name="End Experiment" val="" valType="extendedCode" updates="constant"/>\u000a        <Param name="Each Frame" val="" valType="extendedCode" updates="constant"/>\u000a      </CodeComponent>\u000a      <KeyboardComponent name="resp">\u000a        <Param name="correctAns" val="$corrAns" valType="str" updates="constant"/>\u000a        <Param name="storeCorrect" val="True" valType="bool" updates="constant"/>\u000a        <Param name="name" val="resp" valType="code" updates="None"/>\u000a        <Param name="stopVal" val="1" valType="code" updates="constant"/>\u000a        <Param name="durationEstim" val="" valType="code" updates="None"/>\u000a        <Param name="forceEndRoutine" val="True" valType="bool" updates="constant"/>\u000a        <Param name="startEstim" val="" valType="code" updates="None"/>\u000a        <Param name="discard previous" val="True" valType="bool" updates="constant"/>\u000a        <Param name="startType" val="time (s)" valType="str" updates="None"/>\u000a        <Param name="allowedKeys" val="'t', 'y', 'g', 'h'" valType="code" updates="constant"/>\u000a        <Param name="stopType" val="duration (s)" valType="str" updates="None"/>\u000a        <Param name="startVal" val=".5" valType="code" updates="None"/>\u000a        <Param name="store" val="last key" valType="str" updates="constant"/>\u000a      </KeyboardComponent>\u000a      <TextComponent name="text">\u000a        <Param name="opacity" val="1" valType="code" updates="constant"/>\u000a        <Param name="colorSpace" val="rgb" valType="str" updates="constant"/>\u000a        <Param name="name" val="text" valType="code" updates="None"/>\u000a        <Param name="wrapWidth" val="" valType="code" updates="constant"/>\u000a        <Param name="color" val="white" valType="str" updates="constant"/>\u000a        <Param name="text" val="+" valType="str" updates="constant"/>\u000a        <Param name="stopVal" val="1.5" valType="code" updates="constant"/>\u000a        <Param name="durationEstim" val="" valType="code" updates="None"/>\u000a        <Param name="pos" val="[0, 0]" valType="code" updates="constant"/>\u000a        <Param name="flip" val="" valType="str" updates="constant"/>\u000a        <Param name="startEstim" val="" valType="code" updates="None"/>\u000a        <Param name="units" val="from exp settings" valType="str" updates="None"/>\u000a        <Param name="startType" val="time (s)" valType="str" updates="None"/>\u000a        <Param name="ori" val="0" valType="code" updates="constant"/>\u000a        <Param name="stopType" val="duration (s)" valType="str" updates="None"/>\u000a        <Param name="startVal" val="0.0" valType="code" updates="None"/>\u000a        <Param name="font" val="Arial" valType="str" updates="constant"/>\u000a        <Param name="letterHeight" val="1" valType="code" updates="constant"/>\u000a      </TextComponent>\u000a      <ImageComponent name="image_2">\u000a        <Param name="opacity" val="1" valType="code" updates="constant"/>\u000a        <Param name="flipVert" val="False" valType="bool" updates="constant"/>\u000a        <Param name="colorSpace" val="rgb" valType="str" updates="constant"/>\u000a        <Param name="name" val="image_2" valType="code" updates="None"/>\u000a        <Param name="color" val="$[1,1,1]" valType="str" updates="constant"/>\u000a        <Param name="stopVal" val="1.0" valType="code" updates="constant"/>\u000a        <Param name="durationEstim" val="" valType="code" updates="None"/>\u000a        <Param name="mask" val="None" valType="str" updates="constant"/>\u000a        <Param name="pos" val="$[xPos, yPos]" valType="code" updates="set every repeat"/>\u000a        <Param name="interpolate" val="linear" valType="str" updates="constant"/>\u000a        <Param name="startEstim" val="" valType="code" updates="None"/>\u000a        <Param name="units" val="pix" valType="str" updates="None"/>\u000a        <Param name="texture resolution" val="128" valType="code" updates="constant"/>\u000a        <Param name="startType" val="time (s)" valType="str" updates="None"/>\u000a        <Param name="ori" val="0" valType="code" updates="constant"/>\u000a        <Param name="stopType" val="duration (s)" valType="str" updates="None"/>\u000a        <Param name="startVal" val=".5" valType="code" updates="None"/>\u000a        <Param name="flipHoriz" val="False" valType="bool" updates="constant"/>\u000a        <Param name="image" val="$CurrentStimulus" valType="str" updates="set every repeat"/>\u000a        <Param name="size" val="[101, 101]" valType="code" updates="constant"/>\u000a      </ImageComponent>\u000a    </Routine>\u000a    <Routine name="StimSetup">\u000a      <CodeComponent name="code">\u000a        <Param name="Begin Experiment" val="import random&#10;Redo = 1&#10;colors = ['yellow', 'white', 'orange', 'magenta', 'green', 'gray', 'cyan', 'blue']&#10;shapes = ['triangle', 'square', 'line', 'invertedtriangle', 'hexagon', 'diamond', 'cross', 'circle']&#10;rewards = [0.5, 1, 2, 4] * 2&#10;conditions = ['go', 'go', 'go', 'go', 'stop', 'stop', 'stop', 'stop']&#10;trialDetailsList = []&#10;&#10;shuffle(colors)&#10;shuffle(shapes)&#10;&#10;for i, color in enumerate(colors): # cycle through each color and keep track of an index number&#10;    trialDetails = {} # a dictionary of key-value pairs&#10;    trialDetails['fileName'] = shapes[i] + color + '.gif'&#10;    trialDetails['reward'] = rewards[i]&#10;    trialDetails['condition'] = conditions[i]&#10;    trialDetailsList.append(trialDetails)&#10;&#10;shuffle(trialDetailsList) # do this now to ensure that order of presentation of rewards and conditions is also shuffled&#10;&#10;ConditionOne = trialDetailsList[0]&#10;ConditionTwo = trialDetailsList[1]&#10;ConditionThree = trialDetailsList[2]&#10;ConditionFour = trialDetailsList[3]&#10;ConditionFive = trialDetailsList[4]&#10;ConditionSix = trialDetailsList[5]&#10;ConditionSeven = trialDetailsList[6]&#10;ConditionEight = trialDetailsList[7]" valType="extendedCode" updates="constant"/>\u000a        <Param name="name" val="code" valType="code" updates="None"/>\u000a        <Param name="Begin Routine" val="" valType="extendedCode" updates="constant"/>\u000a        <Param name="End Routine" val="" valType="extendedCode" updates="constant"/>\u000a        <Param name="End Experiment" val="" valType="extendedCode" updates="constant"/>\u000a        <Param name="Each Frame" val="" valType="extendedCode" updates="constant"/>\u000a      </CodeComponent>\u000a    </Routine>\u000a    <Routine name="instrMain">\u000a      <TextComponent name="instr2">\u000a        <Param name="opacity" val="1" valType="code" updates="constant"/>\u000a        <Param name="colorSpace" val="rgb" valType="str" updates="constant"/>\u000a        <Param name="name" val="instr2" valType="code" updates="constant"/>\u000a        <Param name="wrapWidth" val="" valType="code" updates="constant"/>\u000a        <Param name="color" val="white" valType="str" updates="constant"/>\u000a        <Param name="text" val="OK, ready to start the main experiment?&#10;&#10;Remember, press;&#10; - 'S' if the SMALL letters are S&#10; - 'H' if the SMALL letters are H&#10;&#10;Try to respond as quickly and as accurately as possible.&#10;&#10;When you are ready to proceed press any key." valType="str" updates="constant"/>\u000a        <Param name="stopVal" val="" valType="code" updates="constant"/>\u000a        <Param name="durationEstim" val="" valType="code" updates="None"/>\u000a        <Param name="pos" val="[0, 0]" valType="code" updates="constant"/>\u000a        <Param name="flip" val="" valType="str" updates="constant"/>\u000a        <Param name="startEstim" val="" valType="code" updates="None"/>\u000a        <Param name="units" val="from exp settings" valType="str" updates="None"/>\u000a        <Param name="startType" val="time (s)" valType="str" updates="None"/>\u000a        <Param name="ori" val="0" valType="code" updates="constant"/>\u000a        <Param name="stopType" val="duration (s)" valType="str" updates="None"/>\u000a        <Param name="startVal" val="0.0" valType="code" updates="None"/>\u000a        <Param name="font" val="Arial" valType="str" updates="constant"/>\u000a        <Param name="letterHeight" val="0.075" valType="code" updates="constant"/>\u000a      </TextComponent>\u000a      <KeyboardComponent name="ok2">\u000a        <Param name="correctAns" val="" valType="str" updates="constant"/>\u000a        <Param name="storeCorrect" val="False" valType="bool" updates="constant"/>\u000a        <Param name="name" val="ok2" valType="code" updates="None"/>\u000a        <Param name="stopVal" val="" valType="code" updates="constant"/>\u000a        <Param name="durationEstim" val="" valType="code" updates="None"/>\u000a        <Param name="forceEndRoutine" val="True" valType="bool" updates="constant"/>\u000a        <Param name="startEstim" val="" valType="code" updates="None"/>\u000a        <Param name="discard previous" val="True" valType="bool" updates="constant"/>\u000a        <Param name="startType" val="time (s)" valType="str" updates="None"/>\u000a        <Param name="allowedKeys" val="" valType="code" updates="constant"/>\u000a        <Param name="stopType" val="duration (s)" valType="str" updates="None"/>\u000a        <Param name="startVal" val="0.0" valType="code" updates="None"/>\u000a        <Param name="store" val="nothing" valType="str" updates="constant"/>\u000a      </KeyboardComponent>\u000a    </Routine>\u000a    <Routine name="feedback">\u000a      <CodeComponent name="message">\u000a        <Param name="Begin Experiment" val="#message variable just needs some value at start&#10;message=0" valType="extendedCode" updates="constant"/>\u000a        <Param name="name" val="message" valType="code" updates="None"/>\u000a        <Param name="Begin Routine" val="DisplayReward = random.randrange(1, 6)&#10;&#10;if resp.corr:#stored on last run routine&#10;    if DisplayReward == 1:&#10;            message = 0;&#10;    else:&#10;        if ConditionChoice == 1:&#10;            CurrentReward = ConditionOne['reward']&#10;            message = CurrentReward + (random.randrange(-25, 26)*.01)&#10;        elif ConditionChoice == 2:&#10;            CurrentReward = ConditionTwo['reward']&#10;            message = CurrentReward + (random.randrange(-25, 26)*.01)&#10;        elif ConditionChoice == 3:&#10;            CurrentReward = ConditionThree['reward']&#10;            message = CurrentReward + (random.randrange(-25, 26)*.01)&#10;        elif ConditionChoice == 4:&#10;            CurrentReward = ConditionFour['reward']&#10;            message = CurrentReward + (random.randrange(-25, 26)*.01)&#10;        elif ConditionChoice == 5:&#10;            CurrentReward = ConditionFive['reward']&#10;            message = CurrentReward + (random.randrange(-25, 26)*.01)&#10;        elif ConditionChoice == 6:&#10;            CurrentReward = ConditionSix['reward']&#10;            message = CurrentReward + (random.randrange(-25, 26)*.01)&#10;        elif ConditionChoice == 7:&#10;            CurrentReward = ConditionSeven['reward']&#10;            message = CurrentReward + (random.randrange(-25, 26)*.01)&#10;        elif ConditionChoice == 8:&#10;            CurrentReward = ConditionEight['reward']&#10;            message = CurrentReward + (random.randrange(-25, 26)*.01)&#10;elif resp.keys is None: #or len(key_resp.keys)&lt;1:&#10;#elif resp.rt == 0:&#10;    message =&quot;Too Slow&quot;&#10;else:&#10;  message=&quot;Wrong&quot;&#10;&#10;if resp.corr:#stored on last run routine&#10;    Redo = 1; &#10;else:&#10;    Redo = Redo + 1;&#10;&#10;#if DisplayReward == 1:&#10;#    message = 0;&#10;#else:&#10;#    message = CurrentReward + (random.randrange(-25, 26)*.01)&#10;&#10;#  message=&quot;Correct! RT=%.3f&quot; %(resp.rt)" valType="extendedCode" updates="constant"/>\u000a        <Param name="End Routine" val="" valType="extendedCode" updates="constant"/>\u000a        <Param name="End Experiment" val="" valType="extendedCode" updates="constant"/>\u000a        <Param name="Each Frame" val="" valType="extendedCode" updates="constant"/>\u000a      </CodeComponent>\u000a      <TextComponent name="feedback_2">\u000a        <Param name="opacity" val="1" valType="code" updates="constant"/>\u000a        <Param name="colorSpace" val="rgb" valType="str" updates="constant"/>\u000a        <Param name="name" val="feedback_2" valType="code" updates="constant"/>\u000a        <Param name="wrapWidth" val="" valType="code" updates="constant"/>\u000a        <Param name="color" val="$[1,1,1]" valType="str" updates="constant"/>\u000a        <Param name="text" val="$message" valType="str" updates="set every repeat"/>\u000a        <Param name="stopVal" val="1.0" valType="code" updates="constant"/>\u000a        <Param name="durationEstim" val="" valType="code" updates="None"/>\u000a        <Param name="pos" val="[0, 0]" valType="code" updates="constant"/>\u000a        <Param name="flip" val="" valType="str" updates="constant"/>\u000a        <Param name="startEstim" val="" valType="code" updates="None"/>\u000a        <Param name="units" val="from exp settings" valType="str" updates="None"/>\u000a        <Param name="startType" val="time (s)" valType="str" updates="None"/>\u000a        <Param name="ori" val="0" valType="code" updates="constant"/>\u000a        <Param name="stopType" val="duration (s)" valType="str" updates="None"/>\u000a        <Param name="startVal" val="0.0" valType="code" updates="None"/>\u000a        <Param name="font" val="Arial" valType="str" updates="constant"/>\u000a        <Param name="letterHeight" val="0.1" valType="code" updates="constant"/>\u000a      </TextComponent>\u000a    </Routine>\u000a    <Routine name="instrPractice">\u000a      <TextComponent name="instruct1">\u000a        <Param name="opacity" val="1" valType="code" updates="constant"/>\u000a        <Param name="colorSpace" val="rgb" valType="str" updates="constant"/>\u000a        <Param name="name" val="instruct1" valType="code" updates="constant"/>\u000a        <Param name="wrapWidth" val="" valType="code" updates="constant"/>\u000a        <Param name="color" val="white" valType="str" updates="constant"/>\u000a        <Param name="text" val="A shape stimulus will appear on every trial. &#10;&#10;If it appears in the upper right quadrant, PRESS Y&#10;&#10;If it appears in the lower right quadrant, PRESS H&#10;&#10;If it appears in the lower left quadrant, PRESS G&#10;&#10;If it appears in the upper left quadrant, PRESS T&#10;&#10;Press any key when you are ready to proceed. " valType="str" updates="constant"/>\u000a        <Param name="stopVal" val="" valType="code" updates="constant"/>\u000a        <Param name="durationEstim" val="" valType="code" updates="None"/>\u000a        <Param name="pos" val="[0, 0]" valType="code" updates="constant"/>\u000a        <Param name="flip" val="" valType="str" updates="constant"/>\u000a        <Param name="startEstim" val="" valType="code" updates="None"/>\u000a        <Param name="units" val="from exp settings" valType="str" updates="None"/>\u000a        <Param name="startType" val="time (s)" valType="str" updates="None"/>\u000a        <Param name="ori" val="0" valType="code" updates="constant"/>\u000a        <Param name="stopType" val="duration (s)" valType="str" updates="None"/>\u000a        <Param name="startVal" val="0.0" valType="code" updates="None"/>\u000a        <Param name="font" val="Arial" valType="str" updates="constant"/>\u000a        <Param name="letterHeight" val="0.07" valType="code" updates="constant"/>\u000a      </TextComponent>\u000a      <KeyboardComponent name="ok1">\u000a        <Param name="correctAns" val="" valType="str" updates="constant"/>\u000a        <Param name="storeCorrect" val="False" valType="bool" updates="constant"/>\u000a        <Param name="name" val="ok1" valType="code" updates="None"/>\u000a        <Param name="stopVal" val="" valType="code" updates="constant"/>\u000a        <Param name="durationEstim" val="" valType="code" updates="None"/>\u000a        <Param name="forceEndRoutine" val="True" valType="bool" updates="constant"/>\u000a        <Param name="startEstim" val="" valType="code" updates="None"/>\u000a        <Param name="discard previous" val="True" valType="bool" updates="constant"/>\u000a        <Param name="startType" val="time (s)" valType="str" updates="None"/>\u000a        <Param name="allowedKeys" val="" valType="code" updates="constant"/>\u000a        <Param name="stopType" val="duration (s)" valType="str" updates="None"/>\u000a        <Param name="startVal" val="0.0" valType="code" updates="None"/>\u000a        <Param name="store" val="last key" valType="str" updates="constant"/>\u000a      </KeyboardComponent>\u000a    </Routine>\u000a  </Routines>\u000a  <Flow>\u000a    <Routine name="StimSetup"/>\u000a    <Routine name="instrPractice"/>\u000a    <LoopInitiator loopType="TrialHandler" name="practiceTrials">\u000a      <Param name="conditionsFile" val="Trialtypes5.xlsx" valType="str" updates="None"/>\u000a      <Param name="name" val="practiceTrials" valType="code" updates="None"/>\u000a      <Param name="isTrials" val="True" valType="bool" updates="None"/>\u000a      <Param name="random seed" val="" valType="code" updates="None"/>\u000a      <Param name="loopType" val="random" valType="str" updates="None"/>\u000a      <Param name="nReps" val="1" valType="num" updates="None"/>\u000a      <Param name="endPoints" val="[1, 2]" valType="num" updates="None"/>\u000a      <Param name="conditions" val="[{u'xPos': 200, u'corrAns': u'y', u'yPos': 200}, {u'xPos': -200, u'corrAns': u't', u'yPos': 200}, {u'xPos': 200, u'corrAns': u'h', u'yPos': -200}, {u'xPos': -200, u'corrAns': u'g', u'yPos': -200}]" valType="str" updates="None"/>\u000a      <Param name="Selected rows" val="" valType="str" updates="None"/>\u000a    </LoopInitiator>\u000a    <LoopInitiator loopType="TrialHandler" name="ReDoLoop">\u000a      <Param name="conditionsFile" val="" valType="str" updates="None"/>\u000a      <Param name="name" val="ReDoLoop" valType="code" updates="None"/>\u000a      <Param name="isTrials" val="True" valType="bool" updates="None"/>\u000a      <Param name="random seed" val="" valType="code" updates="None"/>\u000a      <Param name="loopType" val="random" valType="str" updates="None"/>\u000a      <Param name="nReps" val="$Redo" valType="code" updates="None"/>\u000a      <Param name="endPoints" val="[0, 1]" valType="num" updates="None"/>\u000a      <Param name="conditions" val="None" valType="str" updates="None"/>\u000a      <Param name="Selected rows" val="" valType="str" updates="None"/>\u000a    </LoopInitiator>\u000a    <Routine name="trial"/>\u000a    <Routine name="feedback"/>\u000a    <LoopTerminator name="ReDoLoop"/>\u000a    <LoopTerminator name="practiceTrials"/>\u000a    <Routine name="instrMain"/>\u000a    <LoopInitiator loopType="TrialHandler" name="trials">\u000a      <Param name="conditionsFile" val="Trialtypes5.xlsx" valType="str" updates="None"/>\u000a      <Param name="name" val="trials" valType="code" updates="None"/>\u000a      <Param name="isTrials" val="True" valType="bool" updates="None"/>\u000a      <Param name="random seed" val="" valType="code" updates="None"/>\u000a      <Param name="loopType" val="random" valType="str" updates="None"/>\u000a      <Param name="nReps" val="10" valType="num" updates="None"/>\u000a      <Param name="endPoints" val="[0, 1]" valType="num" updates="None"/>\u000a      <Param name="conditions" val="[{u'xPos': 200, u'corrAns': u'y', u'yPos': 200}, {u'xPos': -200, u'corrAns': u't', u'yPos': 200}, {u'xPos': 200, u'corrAns': u'h', u'yPos': -200}, {u'xPos': -200, u'corrAns': u'g', u'yPos': -200}]" valType="str" updates="None"/>\u000a      <Param name="Selected rows" val="" valType="str" updates="None"/>\u000a    </LoopInitiator>\u000a    <Routine name="trial"/>\u000a    <Routine name="feedback"/>\u000a    <LoopTerminator name="trials"/>\u000a  </Flow>\u000a</PsychoPy2experiment>\u000a
p42
sS'thisTrial'
p43
g1
(cpsychopy.data
TrialType
p44
c__builtin__
dict
p45
(dp46
VxPos
p47
I200
sVcorrAns
p48
Vh
sVyPos
p49
I-200
stRp50
sS'_exp'
p51
I244417904
sg11
S'trials'
p52
sg6
g7
sS'thisRepN'
p53
I1
sg20
I01
sg21
g22
sS'data'
p54
g1
(cpsychopy.data
DataHandler
p55
g45
(dp56
S'ran'
p57
cnumpy.ma.core
_mareconstruct
p58
(cnumpy.ma.core
MaskedArray
p59
cnumpy
ndarray
p60
(I0
tp61
S'b'
tRp62
(I1
(I4
I10
tg28
(S'f4'
I0
I1
tRp63
(I3
S'<'
NNNI-1
I-1
I0
tbI00
S'\x00\x00\x80?\x00\x00\x00\x00\x00\x00\x00\x00\x00\x00\x00\x00\x00\x00\x00\x00\x00\x00\x00\x00\x00\x00\x00\x00\x00\x00\x00\x00\x00\x00\x00\x00\x00\x00\x00\x00\x00\x00\x80?\x00\x00\x80?\x00\x00\x00\x00\x00\x00\x00\x00\x00\x00\x00\x00\x00\x00\x00\x00\x00\x00\x00\x00\x00\x00\x00\x00\x00\x00\x00\x00\x00\x00\x00\x00\x00\x00\x80?\x00\x00\x80?\x00\x00\x00\x00\x00\x00\x00\x00\x00\x00\x00\x00\x00\x00\x00\x00\x00\x00\x00\x00\x00\x00\x00\x00\x00\x00\x00\x00\x00\x00\x00\x00\x00\x00\x80?\x00\x00\x00\x00\x00\x00\x00\x00\x00\x00\x00\x00\x00\x00\x00\x00\x00\x00\x00\x00\x00\x00\x00\x00\x00\x00\x00\x00\x00\x00\x00\x00\x00\x00\x00\x00'
S'\x00\x00\x00\x00\x00\x00\x00\x00\x00\x00\x00\x00\x00\x00\x00\x00\x00\x00\x00\x00\x00\x00\x00\x00\x00\x00\x00\x00\x00\x00\x00\x00\x00\x00\x00\x00\x00\x00\x00\x00'
Ntbsg17
cnumpy.core.multiarray
_reconstruct
p64
(g60
(I0
tS'b'
tRp65
(I1
(I4
I10
tg28
(S'O4'
I0
I1
tRp66
(I3
S'|'
NNNI-1
I-1
I63
tbI00
(lp67
S'y'
aS'--'
p68
aS'--'
p69
aS'--'
p70
aS'--'
p71
aS'--'
p72
aS'--'
p73
aS'--'
p74
aS'--'
p75
aS'--'
p76
aS'h'
aNaS'--'
p77
aS'--'
p78
aS'--'
p79
aS'--'
p80
aS'--'
p81
aS'--'
p82
aS'--'
p83
aS'--'
p84
aS'y'
aS'h'
aS'--'
p85
aS'--'
p86
aS'--'
p87
aS'--'
p88
aS'--'
p89
aS'--'
p90
aS'--'
p91
aS'--'
p92
aS'g'
aS'--'
p93
aS'--'
p94
aS'--'
p95
aS'--'
p96
aS'--'
p97
aS'--'
p98
aS'--'
p99
aS'--'
p100
aS'--'
p101
atbsg18
g58
(g59
g60
g61
S'b'
tRp102
(I1
(I4
I10
tg63
I00
S'\x00\x00\x80?\x00\x00\x00\x00\x00\x00\x00\x00\x00\x00\x00\x00\x00\x00\x00\x00\x00\x00\x00\x00\x00\x00\x00\x00\x00\x00\x00\x00\x00\x00\x00\x00\x00\x00\x00\x00\x00\x00\x00\x00\x00\x00\x00\x00\x00\x00\x00\x00\x00\x00\x00\x00\x00\x00\x00\x00\x00\x00\x00\x00\x00\x00\x00\x00\x00\x00\x00\x00\x00\x00\x00\x00\x00\x00\x00\x00\x00\x00\x00\x00\x00\x00\x80?\x00\x00\x00\x00\x00\x00\x00\x00\x00\x00\x00\x00\x00\x00\x00\x00\x00\x00\x00\x00\x00\x00\x00\x00\x00\x00\x00\x00\x00\x00\x00\x00\x00\x00\x80?\x00\x00\x00\x00\x00\x00\x00\x00\x00\x00\x00\x00\x00\x00\x00\x00\x00\x00\x00\x00\x00\x00\x00\x00\x00\x00\x00\x00\x00\x00\x00\x00\x00\x00\x00\x00'
S'\x00\x01\x01\x01\x01\x01\x01\x01\x01\x01\x00\x00\x01\x01\x01\x01\x01\x01\x01\x01\x00\x00\x01\x01\x01\x01\x01\x01\x01\x01\x00\x01\x01\x01\x01\x01\x01\x01\x01\x01'
NtbsS'order'
p103
g58
(g59
g60
g61
S'b'
tRp104
(I1
(I4
I10
tg63
I00
S'\x00\x00\x00\x00\x00\x00\x00\x00\x00\x00\x00\x00\x00\x00\x00\x00\x00\x00\x00\x00\x00\x00\x00\x00\x00\x00\x00\x00\x00\x00\x00\x00\x00\x00\x00\x00\x00\x00\x00\x00\x00\x00\x80?\x00\x00\x80@\x00\x00\x00\x00\x00\x00\x00\x00\x00\x00\x00\x00\x00\x00\x00\x00\x00\x00\x00\x00\x00\x00\x00\x00\x00\x00\x00\x00\x00\x00\x00\x00\x00\x00@@\x00\x00\xa0@\x00\x00\x00\x00\x00\x00\x00\x00\x00\x00\x00\x00\x00\x00\x00\x00\x00\x00\x00\x00\x00\x00\x00\x00\x00\x00\x00\x00\x00\x00\x00\x00\x00\x00\x00@\x00\x00\x00\x00\x00\x00\x00\x00\x00\x00\x00\x00\x00\x00\x00\x00\x00\x00\x00\x00\x00\x00\x00\x00\x00\x00\x00\x00\x00\x00\x00\x00\x00\x00\x00\x00'
S'\x00\x01\x01\x01\x01\x01\x01\x01\x01\x01\x00\x00\x01\x01\x01\x01\x01\x01\x01\x01\x00\x00\x01\x01\x01\x01\x01\x01\x01\x01\x00\x01\x01\x01\x01\x01\x01\x01\x01\x01'
Ntbsg19
g58
(g59
g60
g61
S'b'
tRp105
(I1
(I4
I10
tg63
I00
S'$\x1e\r?\x00\x00\x00\x00\x00\x00\x00\x00\x00\x00\x00\x00\x00\x00\x00\x00\x00\x00\x00\x00\x00\x00\x00\x00\x00\x00\x00\x00\x00\x00\x00\x00\x00\x00\x00\x00\x10\xeb\x19?\x00\x00\x00\x00\x00\x00\x00\x00\x00\x00\x00\x00\x00\x00\x00\x00\x00\x00\x00\x00\x00\x00\x00\x00\x00\x00\x00\x00\x00\x00\x00\x00\x00\x00\x00\x00X\xc8\x08?\x10\xd0\xc4>\x00\x00\x00\x00\x00\x00\x00\x00\x00\x00\x00\x00\x00\x00\x00\x00\x00\x00\x00\x00\x00\x00\x00\x00\x00\x00\x00\x00\x00\x00\x00\x00\xe8\xd7\xe6>\x00\x00\x00\x00\x00\x00\x00\x00\x00\x00\x00\x00\x00\x00\x00\x00\x00\x00\x00\x00\x00\x00\x00\x00\x00\x00\x00\x00\x00\x00\x00\x00\x00\x00\x00\x00'
S'\x00\x01\x01\x01\x01\x01\x01\x01\x01\x01\x00\x01\x01\x01\x01\x01\x01\x01\x01\x01\x00\x00\x01\x01\x01\x01\x01\x01\x01\x01\x00\x01\x01\x01\x01\x01\x01\x01\x01\x01'
NtbstRp106
(dp107
S'isNumeric'
p108
(dp109
g57
I01
sg17
I00
sg19
I01
sg103
I01
sg18
I01
ssg52
g39
sS'dataTypes'
p110
(lp111
g57
ag103
ag17
ag18
ag19
asS'dataShape'
p112
(lp113
I4
aI10
asbsS'method'
p114
S'random'
p115
sS'sequenceIndices'
p116
g64
(g60
(I0
tS'b'
tRp117
(I1
(I4
I10
tg28
(S'i4'
I0
I1
tRp118
(I3
S'<'
NNNI-1
I-1
I0
tbI01
S'\x00\x00\x00\x00\x01\x00\x00\x00\x03\x00\x00\x00\x02\x00\x00\x00\x01\x00\x00\x00\x02\x00\x00\x00\x00\x00\x00\x00\x03\x00\x00\x00\x01\x00\x00\x00\x03\x00\x00\x00\x02\x00\x00\x00\x00\x00\x00\x00\x02\x00\x00\x00\x01\x00\x00\x00\x00\x00\x00\x00\x03\x00\x00\x00\x01\x00\x00\x00\x03\x00\x00\x00\x02\x00\x00\x00\x00\x00\x00\x00\x03\x00\x00\x00\x01\x00\x00\x00\x00\x00\x00\x00\x02\x00\x00\x00\x03\x00\x00\x00\x00\x00\x00\x00\x02\x00\x00\x00\x01\x00\x00\x00\x03\x00\x00\x00\x02\x00\x00\x00\x00\x00\x00\x00\x01\x00\x00\x00\x03\x00\x00\x00\x02\x00\x00\x00\x01\x00\x00\x00\x00\x00\x00\x00\x02\x00\x00\x00\x03\x00\x00\x00\x00\x00\x00\x00\x01\x00\x00\x00'
tbsS'finished'
p119
I00
sS'nReps'
p120
I10
sS'nRemaining'
p121
I34
sS'trialList'
p122
(lp123
g1
(g44
g45
(dp124
g47
I200
sg48
Vy
sg49
I200
stRp125
ag1
(g44
g45
(dp126
g47
I-200
sg48
Vt
sg49
I200
stRp127
ag50
ag1
(g44
g45
(dp128
g47
I-200
sg48
Vg
sg49
I-200
stRp129
asS'seed'
p130
NsS'thisIndex'
p131
g27
(g118
S'\x02\x00\x00\x00'
tRp132
sS'thisN'
p133
I5
sS'thisTrialN'
p134
I1
sS'nTotal'
p135
I40
sS'_warnUseOfNext'
p136
I01
sbasS'saveWideText'
p137
I01
sS'thisEntry'
p138
(dp139
g17
S'h'
sg19
F0.3843998908996582
sg18
I1
ssS'version'
p140
S''
sS'_paramNamesSoFar'
p141
(lp142
VxPos
p143
aVcorrAns
p144
aVyPos
p145
asS'entries'
p146
(lp147
(dp148
g31
I3
sg24
V
sg16
F0.22729086875915527
sg25
V
sg26
g30
sg23
g12
sg15
S'space'
p149
sg32
g33
sg34
g35
sa(dp150
g24
V
sg18
I1
sS'ReDoLoop.thisRepN'
p151
I0
sg19
F0.3676600456237793
sS'ReDoLoop.thisIndex'
p152
g27
(g118
S'\x00\x00\x00\x00'
tRp153
sg26
g30
sg32
g33
sS'ReDoLoop.thisTrial'
p154
Nsg31
I3
sg144
Vt
sS'practiceTrials.thisRepN'
p155
I0
sS'ReDoLoop.thisN'
p156
I0
sS'ReDoLoop.thisTrialN'
p157
I0
sg17
S't'
sg143
I-200
sg34
g35
sg25
V
sS'practiceTrials.thisN'
p158
I0
sg145
I200
sg23
g12
sS'practiceTrials.thisTrialN'
p159
I0
sS'practiceTrials.thisIndex'
p160
g27
(g118
S'\x01\x00\x00\x00'
tRp161
sa(dp162
g31
I3
sg143
I-200
sg24
V
sg26
g30
sg25
V
sS'practiceTrials.thisN'
p163
I0
sg145
I200
sg32
g33
sg23
g12
sS'practiceTrials.thisTrialN'
p164
I0
sS'practiceTrials.thisIndex'
p165
g161
sS'practiceTrials.thisRepN'
p166
I0
sg34
g35
sg144
Vt
sa(dp167
g24
V
sg18
I1
sS'ReDoLoop.thisRepN'
p168
I0
sg19
F0.2841949462890625
sS'ReDoLoop.thisIndex'
p169
g27
(g118
S'\x00\x00\x00\x00'
tRp170
sg26
g30
sg32
g33
sS'ReDoLoop.thisTrial'
p171
Nsg31
I3
sg144
Vy
sS'practiceTrials.thisRepN'
p172
I0
sS'ReDoLoop.thisN'
p173
I0
sS'ReDoLoop.thisTrialN'
p174
I0
sg17
S'y'
sg143
I200
sg34
g35
sg25
V
sS'practiceTrials.thisN'
p175
I1
sg145
I200
sg23
g12
sS'practiceTrials.thisTrialN'
p176
I1
sS'practiceTrials.thisIndex'
p177
g27
(g118
S'\x00\x00\x00\x00'
tRp178
sa(dp179
g31
I3
sg143
I200
sg24
V
sg26
g30
sg25
V
sS'practiceTrials.thisN'
p180
I1
sg145
I200
sg32
g33
sg23
g12
sS'practiceTrials.thisTrialN'
p181
I1
sS'practiceTrials.thisIndex'
p182
g178
sS'practiceTrials.thisRepN'
p183
I0
sg34
g35
sg144
Vy
sa(dp184
g24
V
sg18
I0
sS'ReDoLoop.thisRepN'
p185
I0
sg19
F0.4842839241027832
sS'ReDoLoop.thisIndex'
p186
g27
(g118
S'\x00\x00\x00\x00'
tRp187
sg26
g30
sg32
g33
sS'ReDoLoop.thisTrial'
p188
Nsg31
I3
sg144
Vg
sS'practiceTrials.thisRepN'
p189
I0
sS'ReDoLoop.thisN'
p190
I0
sS'ReDoLoop.thisTrialN'
p191
I0
sg17
S'h'
sg143
I-200
sg34
g35
sg25
V
sS'practiceTrials.thisN'
p192
I2
sg145
I-200
sg23
g12
sS'practiceTrials.thisTrialN'
p193
I2
sS'practiceTrials.thisIndex'
p194
g27
(g118
S'\x03\x00\x00\x00'
tRp195
sa(dp196
g31
I3
sg143
I-200
sg24
V
sg26
g30
sg25
V
sS'practiceTrials.thisN'
p197
I2
sg145
I-200
sg32
g33
sg23
g12
sS'practiceTrials.thisTrialN'
p198
I2
sS'practiceTrials.thisIndex'
p199
g195
sS'practiceTrials.thisRepN'
p200
I0
sg34
g35
sg144
Vg
sa(dp201
g24
V
sg18
I1
sS'ReDoLoop.thisRepN'
p202
I0
sg19
F0.41776609420776367
sS'ReDoLoop.thisIndex'
p203
g27
(g118
S'\x00\x00\x00\x00'
tRp204
sg26
g30
sg32
g33
sS'ReDoLoop.thisTrial'
p205
Nsg31
I3
sg144
Vh
sS'practiceTrials.thisRepN'
p206
I0
sS'ReDoLoop.thisN'
p207
I0
sS'ReDoLoop.thisTrialN'
p208
I0
sg17
S'h'
sg143
I200
sg34
g35
sg25
V
sS'practiceTrials.thisN'
p209
I3
sg145
I-200
sg23
g12
sS'practiceTrials.thisTrialN'
p210
I3
sS'practiceTrials.thisIndex'
p211
g27
(g118
S'\x02\x00\x00\x00'
tRp212
sa(dp213
g24
V
sg18
I1
sS'ReDoLoop.thisRepN'
p214
I1
sg19
F0.38394379615783691
sS'ReDoLoop.thisIndex'
p215
g27
(g118
S'\x00\x00\x00\x00'
tRp216
sg26
g30
sg32
g33
sS'ReDoLoop.thisTrial'
p217
Nsg31
I3
sg144
Vh
sS'practiceTrials.thisRepN'
p218
I0
sS'ReDoLoop.thisN'
p219
I1
sS'ReDoLoop.thisTrialN'
p220
I0
sg17
S'h'
sg143
I200
sg34
g35
sg25
V
sS'practiceTrials.thisN'
p221
I3
sg145
I-200
sg23
g12
sS'practiceTrials.thisTrialN'
p222
I3
sS'practiceTrials.thisIndex'
p223
g212
sa(dp224
g31
I3
sg143
I200
sg24
V
sg26
g30
sg25
V
sS'practiceTrials.thisN'
p225
I3
sg145
I-200
sg32
g33
sg23
g12
sS'practiceTrials.thisTrialN'
p226
I3
sS'practiceTrials.thisIndex'
p227
g212
sS'practiceTrials.thisRepN'
p228
I0
sg34
g35
sg144
Vh
sa(dp229
g31
I3
sg17
S'y'
sg47
I200
sg24
V
sg18
I1
sg19
F0.55124115943908691
sg25
V
sg26
g30
sg49
I200
sS'trials.thisN'
p230
I0
sg23
g12
sS'trials.thisTrialN'
p231
I0
sg48
Vy
sS'trials.thisRepN'
p232
I0
sg32
g33
sg34
g35
sS'trials.thisIndex'
p233
g27
(g118
S'\x00\x00\x00\x00'
tRp234
sa(dp235
g31
I3
sg17
S'h'
sg47
I-200
sg24
V
sg18
I0
sg19
F0.60124301910400391
sg25
V
sg26
g30
sg49
I200
sS'trials.thisN'
p236
I1
sg23
g12
sS'trials.thisTrialN'
p237
I1
sg48
Vt
sS'trials.thisRepN'
p238
I0
sg32
g33
sg34
g35
sS'trials.thisIndex'
p239
g27
(g118
S'\x01\x00\x00\x00'
tRp240
sa(dp241
g31
I3
sg17
S'g'
sg47
I-200
sg24
V
sg18
I1
sg19
F0.4508659839630127
sg25
V
sg26
g30
sg49
I-200
sS'trials.thisN'
p242
I2
sg23
g12
sS'trials.thisTrialN'
p243
I2
sg48
Vg
sS'trials.thisRepN'
p244
I0
sg32
g33
sg34
g35
sS'trials.thisIndex'
p245
g27
(g118
S'\x03\x00\x00\x00'
tRp246
sa(dp247
g31
I3
sg17
S'y'
sg47
I200
sg24
V
sg18
I0
sg19
F0.53430700302124023
sg25
V
sg26
g30
sg49
I-200
sS'trials.thisN'
p248
I3
sg23
g12
sS'trials.thisTrialN'
p249
I3
sg48
Vh
sS'trials.thisRepN'
p250
I0
sg32
g33
sg34
g35
sS'trials.thisIndex'
p251
g27
(g118
S'\x02\x00\x00\x00'
tRp252
sa(dp253
g31
I3
sS'trials.thisIndex'
p254
g27
(g118
S'\x01\x00\x00\x00'
tRp255
sg47
I-200
sg24
V
sg17
NsS'trials.thisRepN'
p256
I1
sg25
V
sg18
I0
sg26
g30
sg49
I200
sS'trials.thisN'
p257
I4
sg23
g12
sS'trials.thisTrialN'
p258
I0
sg48
Vt
sg32
g33
sg34
g35
sasS'loops'
p259
(lp260
g1
(g38
g3
NtRp261
(dp262
g41
V<PsychoPy2experiment version="1.82.01" encoding="utf-8">\u000a  <Settings>\u000a    <Param name="Show mouse" val="False" valType="bool" updates="None"/>\u000a    <Param name="Data filename" val="u'data' + os.sep + '%s_%s' %(expInfo['participant'], expInfo['date'])" valType="code" updates="None"/>\u000a    <Param name="Monitor" val="testMonitor" valType="str" updates="None"/>\u000a    <Param name="Enable Escape" val="True" valType="bool" updates="None"/>\u000a    <Param name="color" val="black" valType="str" updates="None"/>\u000a    <Param name="Window size (pixels)" val="[1680, 1050]" valType="code" updates="None"/>\u000a    <Param name="Full-screen window" val="True" valType="bool" updates="None"/>\u000a    <Param name="colorSpace" val="rgb" valType="str" updates="None"/>\u000a    <Param name="Experiment info" val="{'participant':'', 'gender (m/f)':'', 'age':'', 'session':03}" valType="code" updates="None"/>\u000a    <Param name="Save csv file" val="False" valType="bool" updates="None"/>\u000a    <Param name="Show info dlg" val="True" valType="bool" updates="None"/>\u000a    <Param name="Save wide csv file" val="True" valType="bool" updates="None"/>\u000a    <Param name="Save psydat file" val="True" valType="bool" updates="None"/>\u000a    <Param name="expName" val="LearningTask" valType="str" updates="None"/>\u000a    <Param name="logging level" val="warning" valType="code" updates="None"/>\u000a    <Param name="blendMode" val="avg" valType="str" updates="None"/>\u000a    <Param name="Save excel file" val="True" valType="bool" updates="None"/>\u000a    <Param name="Units" val="use prefs" valType="str" updates="None"/>\u000a    <Param name="Save log file" val="True" valType="bool" updates="None"/>\u000a    <Param name="Screen" val="1" valType="num" updates="None"/>\u000a  </Settings>\u000a  <Routines>\u000a    <Routine name="trial">\u000a      <CodeComponent name="code_2">\u000a        <Param name="Begin Experiment" val="" valType="extendedCode" updates="constant"/>\u000a        <Param name="name" val="code_2" valType="code" updates="None"/>\u000a        <Param name="Begin Routine" val="#Redo = 1&#10;&#10;import random&#10;&#10;Integers = [1, 2, 3, 4, 5, 6, 7, 8]&#10;&#10;if Redo == 1:&#10;    ConditionChoice = random.choice(Integers)&#10;    if ConditionChoice == 1:&#10;        CurrentStimulus = ConditionOne['fileName']&#10;    elif ConditionChoice == 2:&#10;        CurrentStimulus = ConditionTwo['fileName']&#10;    elif ConditionChoice == 3:&#10;        CurrentStimulus = ConditionThree['fileName']&#10;    elif ConditionChoice == 4:&#10;        CurrentStimulus = ConditionFour['fileName']&#10;    elif ConditionChoice == 5:&#10;        CurrentStimulus = ConditionFive['fileName']&#10;    elif ConditionChoice == 6:&#10;        CurrentStimulus = ConditionSix['fileName']&#10;    elif ConditionChoice == 7:&#10;        CurrentStimulus = ConditionSeven['fileName']&#10;    elif ConditionChoice == 8:&#10;        CurrentStimulus = ConditionEight['fileName']" valType="extendedCode" updates="constant"/>\u000a        <Param name="End Routine" val="" valType="extendedCode" updates="constant"/>\u000a        <Param name="End Experiment" val="" valType="extendedCode" updates="constant"/>\u000a        <Param name="Each Frame" val="" valType="extendedCode" updates="constant"/>\u000a      </CodeComponent>\u000a      <KeyboardComponent name="resp">\u000a        <Param name="correctAns" val="$corrAns" valType="str" updates="constant"/>\u000a        <Param name="storeCorrect" val="True" valType="bool" updates="constant"/>\u000a        <Param name="name" val="resp" valType="code" updates="None"/>\u000a        <Param name="stopVal" val="1" valType="code" updates="constant"/>\u000a        <Param name="durationEstim" val="" valType="code" updates="None"/>\u000a        <Param name="forceEndRoutine" val="True" valType="bool" updates="constant"/>\u000a        <Param name="startEstim" val="" valType="code" updates="None"/>\u000a        <Param name="discard previous" val="True" valType="bool" updates="constant"/>\u000a        <Param name="startType" val="time (s)" valType="str" updates="None"/>\u000a        <Param name="allowedKeys" val="'t', 'y', 'g', 'h'" valType="code" updates="constant"/>\u000a        <Param name="stopType" val="duration (s)" valType="str" updates="None"/>\u000a        <Param name="startVal" val=".5" valType="code" updates="None"/>\u000a        <Param name="store" val="last key" valType="str" updates="constant"/>\u000a      </KeyboardComponent>\u000a      <TextComponent name="text">\u000a        <Param name="opacity" val="1" valType="code" updates="constant"/>\u000a        <Param name="colorSpace" val="rgb" valType="str" updates="constant"/>\u000a        <Param name="name" val="text" valType="code" updates="None"/>\u000a        <Param name="wrapWidth" val="" valType="code" updates="constant"/>\u000a        <Param name="color" val="white" valType="str" updates="constant"/>\u000a        <Param name="text" val="+" valType="str" updates="constant"/>\u000a        <Param name="stopVal" val="1.5" valType="code" updates="constant"/>\u000a        <Param name="durationEstim" val="" valType="code" updates="None"/>\u000a        <Param name="pos" val="[0, 0]" valType="code" updates="constant"/>\u000a        <Param name="flip" val="" valType="str" updates="constant"/>\u000a        <Param name="startEstim" val="" valType="code" updates="None"/>\u000a        <Param name="units" val="from exp settings" valType="str" updates="None"/>\u000a        <Param name="startType" val="time (s)" valType="str" updates="None"/>\u000a        <Param name="ori" val="0" valType="code" updates="constant"/>\u000a        <Param name="stopType" val="duration (s)" valType="str" updates="None"/>\u000a        <Param name="startVal" val="0.0" valType="code" updates="None"/>\u000a        <Param name="font" val="Arial" valType="str" updates="constant"/>\u000a        <Param name="letterHeight" val="1" valType="code" updates="constant"/>\u000a      </TextComponent>\u000a      <ImageComponent name="image_2">\u000a        <Param name="opacity" val="1" valType="code" updates="constant"/>\u000a        <Param name="flipVert" val="False" valType="bool" updates="constant"/>\u000a        <Param name="colorSpace" val="rgb" valType="str" updates="constant"/>\u000a        <Param name="name" val="image_2" valType="code" updates="None"/>\u000a        <Param name="color" val="$[1,1,1]" valType="str" updates="constant"/>\u000a        <Param name="stopVal" val="1.0" valType="code" updates="constant"/>\u000a        <Param name="durationEstim" val="" valType="code" updates="None"/>\u000a        <Param name="mask" val="None" valType="str" updates="constant"/>\u000a        <Param name="pos" val="$[xPos, yPos]" valType="code" updates="set every repeat"/>\u000a        <Param name="interpolate" val="linear" valType="str" updates="constant"/>\u000a        <Param name="startEstim" val="" valType="code" updates="None"/>\u000a        <Param name="units" val="pix" valType="str" updates="None"/>\u000a        <Param name="texture resolution" val="128" valType="code" updates="constant"/>\u000a        <Param name="startType" val="time (s)" valType="str" updates="None"/>\u000a        <Param name="ori" val="0" valType="code" updates="constant"/>\u000a        <Param name="stopType" val="duration (s)" valType="str" updates="None"/>\u000a        <Param name="startVal" val=".5" valType="code" updates="None"/>\u000a        <Param name="flipHoriz" val="False" valType="bool" updates="constant"/>\u000a        <Param name="image" val="$CurrentStimulus" valType="str" updates="set every repeat"/>\u000a        <Param name="size" val="[101, 101]" valType="code" updates="constant"/>\u000a      </ImageComponent>\u000a    </Routine>\u000a    <Routine name="StimSetup">\u000a      <CodeComponent name="code">\u000a        <Param name="Begin Experiment" val="import random&#10;Redo = 1&#10;colors = ['yellow', 'white', 'orange', 'magenta', 'green', 'gray', 'cyan', 'blue']&#10;shapes = ['triangle', 'square', 'line', 'invertedtriangle', 'hexagon', 'diamond', 'cross', 'circle']&#10;rewards = [0.5, 1, 2, 4] * 2&#10;conditions = ['go', 'go', 'go', 'go', 'stop', 'stop', 'stop', 'stop']&#10;trialDetailsList = []&#10;&#10;shuffle(colors)&#10;shuffle(shapes)&#10;&#10;for i, color in enumerate(colors): # cycle through each color and keep track of an index number&#10;    trialDetails = {} # a dictionary of key-value pairs&#10;    trialDetails['fileName'] = shapes[i] + color + '.gif'&#10;    trialDetails['reward'] = rewards[i]&#10;    trialDetails['condition'] = conditions[i]&#10;    trialDetailsList.append(trialDetails)&#10;&#10;shuffle(trialDetailsList) # do this now to ensure that order of presentation of rewards and conditions is also shuffled&#10;&#10;ConditionOne = trialDetailsList[0]&#10;ConditionTwo = trialDetailsList[1]&#10;ConditionThree = trialDetailsList[2]&#10;ConditionFour = trialDetailsList[3]&#10;ConditionFive = trialDetailsList[4]&#10;ConditionSix = trialDetailsList[5]&#10;ConditionSeven = trialDetailsList[6]&#10;ConditionEight = trialDetailsList[7]" valType="extendedCode" updates="constant"/>\u000a        <Param name="name" val="code" valType="code" updates="None"/>\u000a        <Param name="Begin Routine" val="" valType="extendedCode" updates="constant"/>\u000a        <Param name="End Routine" val="" valType="extendedCode" updates="constant"/>\u000a        <Param name="End Experiment" val="" valType="extendedCode" updates="constant"/>\u000a        <Param name="Each Frame" val="" valType="extendedCode" updates="constant"/>\u000a      </CodeComponent>\u000a    </Routine>\u000a    <Routine name="instrMain">\u000a      <TextComponent name="instr2">\u000a        <Param name="opacity" val="1" valType="code" updates="constant"/>\u000a        <Param name="colorSpace" val="rgb" valType="str" updates="constant"/>\u000a        <Param name="name" val="instr2" valType="code" updates="constant"/>\u000a        <Param name="wrapWidth" val="" valType="code" updates="constant"/>\u000a        <Param name="color" val="white" valType="str" updates="constant"/>\u000a        <Param name="text" val="OK, ready to start the main experiment?&#10;&#10;Remember, press;&#10; - 'S' if the SMALL letters are S&#10; - 'H' if the SMALL letters are H&#10;&#10;Try to respond as quickly and as accurately as possible.&#10;&#10;When you are ready to proceed press any key." valType="str" updates="constant"/>\u000a        <Param name="stopVal" val="" valType="code" updates="constant"/>\u000a        <Param name="durationEstim" val="" valType="code" updates="None"/>\u000a        <Param name="pos" val="[0, 0]" valType="code" updates="constant"/>\u000a        <Param name="flip" val="" valType="str" updates="constant"/>\u000a        <Param name="startEstim" val="" valType="code" updates="None"/>\u000a        <Param name="units" val="from exp settings" valType="str" updates="None"/>\u000a        <Param name="startType" val="time (s)" valType="str" updates="None"/>\u000a        <Param name="ori" val="0" valType="code" updates="constant"/>\u000a        <Param name="stopType" val="duration (s)" valType="str" updates="None"/>\u000a        <Param name="startVal" val="0.0" valType="code" updates="None"/>\u000a        <Param name="font" val="Arial" valType="str" updates="constant"/>\u000a        <Param name="letterHeight" val="0.075" valType="code" updates="constant"/>\u000a      </TextComponent>\u000a      <KeyboardComponent name="ok2">\u000a        <Param name="correctAns" val="" valType="str" updates="constant"/>\u000a        <Param name="storeCorrect" val="False" valType="bool" updates="constant"/>\u000a        <Param name="name" val="ok2" valType="code" updates="None"/>\u000a        <Param name="stopVal" val="" valType="code" updates="constant"/>\u000a        <Param name="durationEstim" val="" valType="code" updates="None"/>\u000a        <Param name="forceEndRoutine" val="True" valType="bool" updates="constant"/>\u000a        <Param name="startEstim" val="" valType="code" updates="None"/>\u000a        <Param name="discard previous" val="True" valType="bool" updates="constant"/>\u000a        <Param name="startType" val="time (s)" valType="str" updates="None"/>\u000a        <Param name="allowedKeys" val="" valType="code" updates="constant"/>\u000a        <Param name="stopType" val="duration (s)" valType="str" updates="None"/>\u000a        <Param name="startVal" val="0.0" valType="code" updates="None"/>\u000a        <Param name="store" val="nothing" valType="str" updates="constant"/>\u000a      </KeyboardComponent>\u000a    </Routine>\u000a    <Routine name="feedback">\u000a      <CodeComponent name="message">\u000a        <Param name="Begin Experiment" val="#message variable just needs some value at start&#10;message=0" valType="extendedCode" updates="constant"/>\u000a        <Param name="name" val="message" valType="code" updates="None"/>\u000a        <Param name="Begin Routine" val="DisplayReward = random.randrange(1, 6)&#10;&#10;if resp.corr:#stored on last run routine&#10;    if DisplayReward == 1:&#10;            message = 0;&#10;    else:&#10;        if ConditionChoice == 1:&#10;            CurrentReward = ConditionOne['reward']&#10;            message = CurrentReward + (random.randrange(-25, 26)*.01)&#10;        elif ConditionChoice == 2:&#10;            CurrentReward = ConditionTwo['reward']&#10;            message = CurrentReward + (random.randrange(-25, 26)*.01)&#10;        elif ConditionChoice == 3:&#10;            CurrentReward = ConditionThree['reward']&#10;            message = CurrentReward + (random.randrange(-25, 26)*.01)&#10;        elif ConditionChoice == 4:&#10;            CurrentReward = ConditionFour['reward']&#10;            message = CurrentReward + (random.randrange(-25, 26)*.01)&#10;        elif ConditionChoice == 5:&#10;            CurrentReward = ConditionFive['reward']&#10;            message = CurrentReward + (random.randrange(-25, 26)*.01)&#10;        elif ConditionChoice == 6:&#10;            CurrentReward = ConditionSix['reward']&#10;            message = CurrentReward + (random.randrange(-25, 26)*.01)&#10;        elif ConditionChoice == 7:&#10;            CurrentReward = ConditionSeven['reward']&#10;            message = CurrentReward + (random.randrange(-25, 26)*.01)&#10;        elif ConditionChoice == 8:&#10;            CurrentReward = ConditionEight['reward']&#10;            message = CurrentReward + (random.randrange(-25, 26)*.01)&#10;elif resp.keys is None: #or len(key_resp.keys)&lt;1:&#10;#elif resp.rt == 0:&#10;    message =&quot;Too Slow&quot;&#10;else:&#10;  message=&quot;Wrong&quot;&#10;&#10;if resp.corr:#stored on last run routine&#10;    Redo = 1; &#10;else:&#10;    Redo = Redo + 1;&#10;&#10;#if DisplayReward == 1:&#10;#    message = 0;&#10;#else:&#10;#    message = CurrentReward + (random.randrange(-25, 26)*.01)&#10;&#10;#  message=&quot;Correct! RT=%.3f&quot; %(resp.rt)" valType="extendedCode" updates="constant"/>\u000a        <Param name="End Routine" val="" valType="extendedCode" updates="constant"/>\u000a        <Param name="End Experiment" val="" valType="extendedCode" updates="constant"/>\u000a        <Param name="Each Frame" val="" valType="extendedCode" updates="constant"/>\u000a      </CodeComponent>\u000a      <TextComponent name="feedback_2">\u000a        <Param name="opacity" val="1" valType="code" updates="constant"/>\u000a        <Param name="colorSpace" val="rgb" valType="str" updates="constant"/>\u000a        <Param name="name" val="feedback_2" valType="code" updates="constant"/>\u000a        <Param name="wrapWidth" val="" valType="code" updates="constant"/>\u000a        <Param name="color" val="$[1,1,1]" valType="str" updates="constant"/>\u000a        <Param name="text" val="$message" valType="str" updates="set every repeat"/>\u000a        <Param name="stopVal" val="1.0" valType="code" updates="constant"/>\u000a        <Param name="durationEstim" val="" valType="code" updates="None"/>\u000a        <Param name="pos" val="[0, 0]" valType="code" updates="constant"/>\u000a        <Param name="flip" val="" valType="str" updates="constant"/>\u000a        <Param name="startEstim" val="" valType="code" updates="None"/>\u000a        <Param name="units" val="from exp settings" valType="str" updates="None"/>\u000a        <Param name="startType" val="time (s)" valType="str" updates="None"/>\u000a        <Param name="ori" val="0" valType="code" updates="constant"/>\u000a        <Param name="stopType" val="duration (s)" valType="str" updates="None"/>\u000a        <Param name="startVal" val="0.0" valType="code" updates="None"/>\u000a        <Param name="font" val="Arial" valType="str" updates="constant"/>\u000a        <Param name="letterHeight" val="0.1" valType="code" updates="constant"/>\u000a      </TextComponent>\u000a    </Routine>\u000a    <Routine name="instrPractice">\u000a      <TextComponent name="instruct1">\u000a        <Param name="opacity" val="1" valType="code" updates="constant"/>\u000a        <Param name="colorSpace" val="rgb" valType="str" updates="constant"/>\u000a        <Param name="name" val="instruct1" valType="code" updates="constant"/>\u000a        <Param name="wrapWidth" val="" valType="code" updates="constant"/>\u000a        <Param name="color" val="white" valType="str" updates="constant"/>\u000a        <Param name="text" val="A shape stimulus will appear on every trial. &#10;&#10;If it appears in the upper right quadrant, PRESS Y&#10;&#10;If it appears in the lower right quadrant, PRESS H&#10;&#10;If it appears in the lower left quadrant, PRESS G&#10;&#10;If it appears in the upper left quadrant, PRESS T&#10;&#10;Press any key when you are ready to proceed. " valType="str" updates="constant"/>\u000a        <Param name="stopVal" val="" valType="code" updates="constant"/>\u000a        <Param name="durationEstim" val="" valType="code" updates="None"/>\u000a        <Param name="pos" val="[0, 0]" valType="code" updates="constant"/>\u000a        <Param name="flip" val="" valType="str" updates="constant"/>\u000a        <Param name="startEstim" val="" valType="code" updates="None"/>\u000a        <Param name="units" val="from exp settings" valType="str" updates="None"/>\u000a        <Param name="startType" val="time (s)" valType="str" updates="None"/>\u000a        <Param name="ori" val="0" valType="code" updates="constant"/>\u000a        <Param name="stopType" val="duration (s)" valType="str" updates="None"/>\u000a        <Param name="startVal" val="0.0" valType="code" updates="None"/>\u000a        <Param name="font" val="Arial" valType="str" updates="constant"/>\u000a        <Param name="letterHeight" val="0.07" valType="code" updates="constant"/>\u000a      </TextComponent>\u000a      <KeyboardComponent name="ok1">\u000a        <Param name="correctAns" val="" valType="str" updates="constant"/>\u000a        <Param name="storeCorrect" val="False" valType="bool" updates="constant"/>\u000a        <Param name="name" val="ok1" valType="code" updates="None"/>\u000a        <Param name="stopVal" val="" valType="code" updates="constant"/>\u000a        <Param name="durationEstim" val="" valType="code" updates="None"/>\u000a        <Param name="forceEndRoutine" val="True" valType="bool" updates="constant"/>\u000a        <Param name="startEstim" val="" valType="code" updates="None"/>\u000a        <Param name="discard previous" val="True" valType="bool" updates="constant"/>\u000a        <Param name="startType" val="time (s)" valType="str" updates="None"/>\u000a        <Param name="allowedKeys" val="" valType="code" updates="constant"/>\u000a        <Param name="stopType" val="duration (s)" valType="str" updates="None"/>\u000a        <Param name="startVal" val="0.0" valType="code" updates="None"/>\u000a        <Param name="store" val="last key" valType="str" updates="constant"/>\u000a      </KeyboardComponent>\u000a    </Routine>\u000a  </Routines>\u000a  <Flow>\u000a    <Routine name="StimSetup"/>\u000a    <Routine name="instrPractice"/>\u000a    <LoopInitiator loopType="TrialHandler" name="practiceTrials">\u000a      <Param name="conditionsFile" val="Trialtypes5.xlsx" valType="str" updates="None"/>\u000a      <Param name="name" val="practiceTrials" valType="code" updates="None"/>\u000a      <Param name="isTrials" val="True" valType="bool" updates="None"/>\u000a      <Param name="random seed" val="" valType="code" updates="None"/>\u000a      <Param name="loopType" val="random" valType="str" updates="None"/>\u000a      <Param name="nReps" val="1" valType="num" updates="None"/>\u000a      <Param name="endPoints" val="[1, 2]" valType="num" updates="None"/>\u000a      <Param name="conditions" val="[{u'xPos': 200, u'corrAns': u'y', u'yPos': 200}, {u'xPos': -200, u'corrAns': u't', u'yPos': 200}, {u'xPos': 200, u'corrAns': u'h', u'yPos': -200}, {u'xPos': -200, u'corrAns': u'g', u'yPos': -200}]" valType="str" updates="None"/>\u000a      <Param name="Selected rows" val="" valType="str" updates="None"/>\u000a    </LoopInitiator>\u000a    <LoopInitiator loopType="TrialHandler" name="ReDoLoop">\u000a      <Param name="conditionsFile" val="" valType="str" updates="None"/>\u000a      <Param name="name" val="ReDoLoop" valType="code" updates="None"/>\u000a      <Param name="isTrials" val="True" valType="bool" updates="None"/>\u000a      <Param name="random seed" val="" valType="code" updates="None"/>\u000a      <Param name="loopType" val="random" valType="str" updates="None"/>\u000a      <Param name="nReps" val="$Redo" valType="code" updates="None"/>\u000a      <Param name="endPoints" val="[0, 1]" valType="num" updates="None"/>\u000a      <Param name="conditions" val="None" valType="str" updates="None"/>\u000a      <Param name="Selected rows" val="" valType="str" updates="None"/>\u000a    </LoopInitiator>\u000a    <Routine name="trial"/>\u000a    <Routine name="feedback"/>\u000a    <LoopTerminator name="ReDoLoop"/>\u000a    <LoopTerminator name="practiceTrials"/>\u000a    <Routine name="instrMain"/>\u000a    <LoopInitiator loopType="TrialHandler" name="trials">\u000a      <Param name="conditionsFile" val="Trialtypes5.xlsx" valType="str" updates="None"/>\u000a      <Param name="name" val="trials" valType="code" updates="None"/>\u000a      <Param name="isTrials" val="True" valType="bool" updates="None"/>\u000a      <Param name="random seed" val="" valType="code" updates="None"/>\u000a      <Param name="loopType" val="random" valType="str" updates="None"/>\u000a      <Param name="nReps" val="10" valType="num" updates="None"/>\u000a      <Param name="endPoints" val="[0, 1]" valType="num" updates="None"/>\u000a      <Param name="conditions" val="[{u'xPos': 200, u'corrAns': u'y', u'yPos': 200}, {u'xPos': -200, u'corrAns': u't', u'yPos': 200}, {u'xPos': 200, u'corrAns': u'h', u'yPos': -200}, {u'xPos': -200, u'corrAns': u'g', u'yPos': -200}]" valType="str" updates="None"/>\u000a      <Param name="Selected rows" val="" valType="str" updates="None"/>\u000a    </LoopInitiator>\u000a    <Routine name="trial"/>\u000a    <Routine name="feedback"/>\u000a    <LoopTerminator name="trials"/>\u000a  </Flow>\u000a</PsychoPy2experiment>\u000a
p263
sg43
(lp264
sg51
I244417904
sg11
S'practiceTrials'
p265
sg6
g7
sg53
I1
sg20
I01
sg21
g22
sg54
g1
(g55
g45
(dp266
g57
g58
(g59
g60
g61
S'b'
tRp267
(I1
(I4
I1
tg63
I00
S'\x00\x00\x80?\x00\x00\x80?\x00\x00\x80?\x00\x00\x80?'
S'\x00\x00\x00\x00'
Ntbsg103
g58
(g59
g60
g61
S'b'
tRp268
(I1
(I4
I1
tg63
I00
S'\x00\x00\x80?\x00\x00\x00\x00\x00\x00@@\x00\x00\x00@'
S'\x00\x00\x00\x00'
NtbstRp269
(dp270
g108
(dp271
g57
I01
sg103
I01
ssg52
g261
sg110
(lp272
g57
ag103
asg112
(lp273
I4
aI1
asbsg114
g115
sg116
g64
(g60
(I0
tS'b'
tRp274
(I1
(I4
I1
tg118
I01
S'\x01\x00\x00\x00\x00\x00\x00\x00\x03\x00\x00\x00\x02\x00\x00\x00'
tbsg119
I01
sg120
I1
sg121
I-1
sg122
(lp275
g1
(g44
g45
(dp276
g143
I200
sg144
Vy
sg145
I200
stRp277
ag1
(g44
g45
(dp278
g143
I-200
sg144
Vt
sg145
I200
stRp279
ag1
(g44
g45
(dp280
g143
I200
sg144
Vh
sg145
I-200
stRp281
ag1
(g44
g45
(dp282
g143
I-200
sg144
Vg
sg145
I-200
stRp283
asg130
Nsg131
g212
sg133
I4
sg134
I0
sg135
I4
sg136
I01
sbag1
(g38
g3
NtRp284
(dp285
g41
V<PsychoPy2experiment version="1.82.01" encoding="utf-8">\u000a  <Settings>\u000a    <Param name="Show mouse" val="False" valType="bool" updates="None"/>\u000a    <Param name="Data filename" val="u'data' + os.sep + '%s_%s' %(expInfo['participant'], expInfo['date'])" valType="code" updates="None"/>\u000a    <Param name="Monitor" val="testMonitor" valType="str" updates="None"/>\u000a    <Param name="Enable Escape" val="True" valType="bool" updates="None"/>\u000a    <Param name="color" val="black" valType="str" updates="None"/>\u000a    <Param name="Window size (pixels)" val="[1680, 1050]" valType="code" updates="None"/>\u000a    <Param name="Full-screen window" val="True" valType="bool" updates="None"/>\u000a    <Param name="colorSpace" val="rgb" valType="str" updates="None"/>\u000a    <Param name="Experiment info" val="{'participant':'', 'gender (m/f)':'', 'age':'', 'session':03}" valType="code" updates="None"/>\u000a    <Param name="Save csv file" val="False" valType="bool" updates="None"/>\u000a    <Param name="Show info dlg" val="True" valType="bool" updates="None"/>\u000a    <Param name="Save wide csv file" val="True" valType="bool" updates="None"/>\u000a    <Param name="Save psydat file" val="True" valType="bool" updates="None"/>\u000a    <Param name="expName" val="LearningTask" valType="str" updates="None"/>\u000a    <Param name="logging level" val="warning" valType="code" updates="None"/>\u000a    <Param name="blendMode" val="avg" valType="str" updates="None"/>\u000a    <Param name="Save excel file" val="True" valType="bool" updates="None"/>\u000a    <Param name="Units" val="use prefs" valType="str" updates="None"/>\u000a    <Param name="Save log file" val="True" valType="bool" updates="None"/>\u000a    <Param name="Screen" val="1" valType="num" updates="None"/>\u000a  </Settings>\u000a  <Routines>\u000a    <Routine name="trial">\u000a      <CodeComponent name="code_2">\u000a        <Param name="Begin Experiment" val="" valType="extendedCode" updates="constant"/>\u000a        <Param name="name" val="code_2" valType="code" updates="None"/>\u000a        <Param name="Begin Routine" val="#Redo = 1&#10;&#10;import random&#10;&#10;Integers = [1, 2, 3, 4, 5, 6, 7, 8]&#10;&#10;if Redo == 1:&#10;    ConditionChoice = random.choice(Integers)&#10;    if ConditionChoice == 1:&#10;        CurrentStimulus = ConditionOne['fileName']&#10;    elif ConditionChoice == 2:&#10;        CurrentStimulus = ConditionTwo['fileName']&#10;    elif ConditionChoice == 3:&#10;        CurrentStimulus = ConditionThree['fileName']&#10;    elif ConditionChoice == 4:&#10;        CurrentStimulus = ConditionFour['fileName']&#10;    elif ConditionChoice == 5:&#10;        CurrentStimulus = ConditionFive['fileName']&#10;    elif ConditionChoice == 6:&#10;        CurrentStimulus = ConditionSix['fileName']&#10;    elif ConditionChoice == 7:&#10;        CurrentStimulus = ConditionSeven['fileName']&#10;    elif ConditionChoice == 8:&#10;        CurrentStimulus = ConditionEight['fileName']" valType="extendedCode" updates="constant"/>\u000a        <Param name="End Routine" val="" valType="extendedCode" updates="constant"/>\u000a        <Param name="End Experiment" val="" valType="extendedCode" updates="constant"/>\u000a        <Param name="Each Frame" val="" valType="extendedCode" updates="constant"/>\u000a      </CodeComponent>\u000a      <KeyboardComponent name="resp">\u000a        <Param name="correctAns" val="$corrAns" valType="str" updates="constant"/>\u000a        <Param name="storeCorrect" val="True" valType="bool" updates="constant"/>\u000a        <Param name="name" val="resp" valType="code" updates="None"/>\u000a        <Param name="stopVal" val="1" valType="code" updates="constant"/>\u000a        <Param name="durationEstim" val="" valType="code" updates="None"/>\u000a        <Param name="forceEndRoutine" val="True" valType="bool" updates="constant"/>\u000a        <Param name="startEstim" val="" valType="code" updates="None"/>\u000a        <Param name="discard previous" val="True" valType="bool" updates="constant"/>\u000a        <Param name="startType" val="time (s)" valType="str" updates="None"/>\u000a        <Param name="allowedKeys" val="'t', 'y', 'g', 'h'" valType="code" updates="constant"/>\u000a        <Param name="stopType" val="duration (s)" valType="str" updates="None"/>\u000a        <Param name="startVal" val=".5" valType="code" updates="None"/>\u000a        <Param name="store" val="last key" valType="str" updates="constant"/>\u000a      </KeyboardComponent>\u000a      <TextComponent name="text">\u000a        <Param name="opacity" val="1" valType="code" updates="constant"/>\u000a        <Param name="colorSpace" val="rgb" valType="str" updates="constant"/>\u000a        <Param name="name" val="text" valType="code" updates="None"/>\u000a        <Param name="wrapWidth" val="" valType="code" updates="constant"/>\u000a        <Param name="color" val="white" valType="str" updates="constant"/>\u000a        <Param name="text" val="+" valType="str" updates="constant"/>\u000a        <Param name="stopVal" val="1.5" valType="code" updates="constant"/>\u000a        <Param name="durationEstim" val="" valType="code" updates="None"/>\u000a        <Param name="pos" val="[0, 0]" valType="code" updates="constant"/>\u000a        <Param name="flip" val="" valType="str" updates="constant"/>\u000a        <Param name="startEstim" val="" valType="code" updates="None"/>\u000a        <Param name="units" val="from exp settings" valType="str" updates="None"/>\u000a        <Param name="startType" val="time (s)" valType="str" updates="None"/>\u000a        <Param name="ori" val="0" valType="code" updates="constant"/>\u000a        <Param name="stopType" val="duration (s)" valType="str" updates="None"/>\u000a        <Param name="startVal" val="0.0" valType="code" updates="None"/>\u000a        <Param name="font" val="Arial" valType="str" updates="constant"/>\u000a        <Param name="letterHeight" val="1" valType="code" updates="constant"/>\u000a      </TextComponent>\u000a      <ImageComponent name="image_2">\u000a        <Param name="opacity" val="1" valType="code" updates="constant"/>\u000a        <Param name="flipVert" val="False" valType="bool" updates="constant"/>\u000a        <Param name="colorSpace" val="rgb" valType="str" updates="constant"/>\u000a        <Param name="name" val="image_2" valType="code" updates="None"/>\u000a        <Param name="color" val="$[1,1,1]" valType="str" updates="constant"/>\u000a        <Param name="stopVal" val="1.0" valType="code" updates="constant"/>\u000a        <Param name="durationEstim" val="" valType="code" updates="None"/>\u000a        <Param name="mask" val="None" valType="str" updates="constant"/>\u000a        <Param name="pos" val="$[xPos, yPos]" valType="code" updates="set every repeat"/>\u000a        <Param name="interpolate" val="linear" valType="str" updates="constant"/>\u000a        <Param name="startEstim" val="" valType="code" updates="None"/>\u000a        <Param name="units" val="pix" valType="str" updates="None"/>\u000a        <Param name="texture resolution" val="128" valType="code" updates="constant"/>\u000a        <Param name="startType" val="time (s)" valType="str" updates="None"/>\u000a        <Param name="ori" val="0" valType="code" updates="constant"/>\u000a        <Param name="stopType" val="duration (s)" valType="str" updates="None"/>\u000a        <Param name="startVal" val=".5" valType="code" updates="None"/>\u000a        <Param name="flipHoriz" val="False" valType="bool" updates="constant"/>\u000a        <Param name="image" val="$CurrentStimulus" valType="str" updates="set every repeat"/>\u000a        <Param name="size" val="[101, 101]" valType="code" updates="constant"/>\u000a      </ImageComponent>\u000a    </Routine>\u000a    <Routine name="StimSetup">\u000a      <CodeComponent name="code">\u000a        <Param name="Begin Experiment" val="import random&#10;Redo = 1&#10;colors = ['yellow', 'white', 'orange', 'magenta', 'green', 'gray', 'cyan', 'blue']&#10;shapes = ['triangle', 'square', 'line', 'invertedtriangle', 'hexagon', 'diamond', 'cross', 'circle']&#10;rewards = [0.5, 1, 2, 4] * 2&#10;conditions = ['go', 'go', 'go', 'go', 'stop', 'stop', 'stop', 'stop']&#10;trialDetailsList = []&#10;&#10;shuffle(colors)&#10;shuffle(shapes)&#10;&#10;for i, color in enumerate(colors): # cycle through each color and keep track of an index number&#10;    trialDetails = {} # a dictionary of key-value pairs&#10;    trialDetails['fileName'] = shapes[i] + color + '.gif'&#10;    trialDetails['reward'] = rewards[i]&#10;    trialDetails['condition'] = conditions[i]&#10;    trialDetailsList.append(trialDetails)&#10;&#10;shuffle(trialDetailsList) # do this now to ensure that order of presentation of rewards and conditions is also shuffled&#10;&#10;ConditionOne = trialDetailsList[0]&#10;ConditionTwo = trialDetailsList[1]&#10;ConditionThree = trialDetailsList[2]&#10;ConditionFour = trialDetailsList[3]&#10;ConditionFive = trialDetailsList[4]&#10;ConditionSix = trialDetailsList[5]&#10;ConditionSeven = trialDetailsList[6]&#10;ConditionEight = trialDetailsList[7]" valType="extendedCode" updates="constant"/>\u000a        <Param name="name" val="code" valType="code" updates="None"/>\u000a        <Param name="Begin Routine" val="" valType="extendedCode" updates="constant"/>\u000a        <Param name="End Routine" val="" valType="extendedCode" updates="constant"/>\u000a        <Param name="End Experiment" val="" valType="extendedCode" updates="constant"/>\u000a        <Param name="Each Frame" val="" valType="extendedCode" updates="constant"/>\u000a      </CodeComponent>\u000a    </Routine>\u000a    <Routine name="instrMain">\u000a      <TextComponent name="instr2">\u000a        <Param name="opacity" val="1" valType="code" updates="constant"/>\u000a        <Param name="colorSpace" val="rgb" valType="str" updates="constant"/>\u000a        <Param name="name" val="instr2" valType="code" updates="constant"/>\u000a        <Param name="wrapWidth" val="" valType="code" updates="constant"/>\u000a        <Param name="color" val="white" valType="str" updates="constant"/>\u000a        <Param name="text" val="OK, ready to start the main experiment?&#10;&#10;Remember, press;&#10; - 'S' if the SMALL letters are S&#10; - 'H' if the SMALL letters are H&#10;&#10;Try to respond as quickly and as accurately as possible.&#10;&#10;When you are ready to proceed press any key." valType="str" updates="constant"/>\u000a        <Param name="stopVal" val="" valType="code" updates="constant"/>\u000a        <Param name="durationEstim" val="" valType="code" updates="None"/>\u000a        <Param name="pos" val="[0, 0]" valType="code" updates="constant"/>\u000a        <Param name="flip" val="" valType="str" updates="constant"/>\u000a        <Param name="startEstim" val="" valType="code" updates="None"/>\u000a        <Param name="units" val="from exp settings" valType="str" updates="None"/>\u000a        <Param name="startType" val="time (s)" valType="str" updates="None"/>\u000a        <Param name="ori" val="0" valType="code" updates="constant"/>\u000a        <Param name="stopType" val="duration (s)" valType="str" updates="None"/>\u000a        <Param name="startVal" val="0.0" valType="code" updates="None"/>\u000a        <Param name="font" val="Arial" valType="str" updates="constant"/>\u000a        <Param name="letterHeight" val="0.075" valType="code" updates="constant"/>\u000a      </TextComponent>\u000a      <KeyboardComponent name="ok2">\u000a        <Param name="correctAns" val="" valType="str" updates="constant"/>\u000a        <Param name="storeCorrect" val="False" valType="bool" updates="constant"/>\u000a        <Param name="name" val="ok2" valType="code" updates="None"/>\u000a        <Param name="stopVal" val="" valType="code" updates="constant"/>\u000a        <Param name="durationEstim" val="" valType="code" updates="None"/>\u000a        <Param name="forceEndRoutine" val="True" valType="bool" updates="constant"/>\u000a        <Param name="startEstim" val="" valType="code" updates="None"/>\u000a        <Param name="discard previous" val="True" valType="bool" updates="constant"/>\u000a        <Param name="startType" val="time (s)" valType="str" updates="None"/>\u000a        <Param name="allowedKeys" val="" valType="code" updates="constant"/>\u000a        <Param name="stopType" val="duration (s)" valType="str" updates="None"/>\u000a        <Param name="startVal" val="0.0" valType="code" updates="None"/>\u000a        <Param name="store" val="nothing" valType="str" updates="constant"/>\u000a      </KeyboardComponent>\u000a    </Routine>\u000a    <Routine name="feedback">\u000a      <CodeComponent name="message">\u000a        <Param name="Begin Experiment" val="#message variable just needs some value at start&#10;message=0" valType="extendedCode" updates="constant"/>\u000a        <Param name="name" val="message" valType="code" updates="None"/>\u000a        <Param name="Begin Routine" val="DisplayReward = random.randrange(1, 6)&#10;&#10;if resp.corr:#stored on last run routine&#10;    if DisplayReward == 1:&#10;            message = 0;&#10;    else:&#10;        if ConditionChoice == 1:&#10;            CurrentReward = ConditionOne['reward']&#10;            message = CurrentReward + (random.randrange(-25, 26)*.01)&#10;        elif ConditionChoice == 2:&#10;            CurrentReward = ConditionTwo['reward']&#10;            message = CurrentReward + (random.randrange(-25, 26)*.01)&#10;        elif ConditionChoice == 3:&#10;            CurrentReward = ConditionThree['reward']&#10;            message = CurrentReward + (random.randrange(-25, 26)*.01)&#10;        elif ConditionChoice == 4:&#10;            CurrentReward = ConditionFour['reward']&#10;            message = CurrentReward + (random.randrange(-25, 26)*.01)&#10;        elif ConditionChoice == 5:&#10;            CurrentReward = ConditionFive['reward']&#10;            message = CurrentReward + (random.randrange(-25, 26)*.01)&#10;        elif ConditionChoice == 6:&#10;            CurrentReward = ConditionSix['reward']&#10;            message = CurrentReward + (random.randrange(-25, 26)*.01)&#10;        elif ConditionChoice == 7:&#10;            CurrentReward = ConditionSeven['reward']&#10;            message = CurrentReward + (random.randrange(-25, 26)*.01)&#10;        elif ConditionChoice == 8:&#10;            CurrentReward = ConditionEight['reward']&#10;            message = CurrentReward + (random.randrange(-25, 26)*.01)&#10;elif resp.keys is None: #or len(key_resp.keys)&lt;1:&#10;#elif resp.rt == 0:&#10;    message =&quot;Too Slow&quot;&#10;else:&#10;  message=&quot;Wrong&quot;&#10;&#10;if resp.corr:#stored on last run routine&#10;    Redo = 1; &#10;else:&#10;    Redo = Redo + 1;&#10;&#10;#if DisplayReward == 1:&#10;#    message = 0;&#10;#else:&#10;#    message = CurrentReward + (random.randrange(-25, 26)*.01)&#10;&#10;#  message=&quot;Correct! RT=%.3f&quot; %(resp.rt)" valType="extendedCode" updates="constant"/>\u000a        <Param name="End Routine" val="" valType="extendedCode" updates="constant"/>\u000a        <Param name="End Experiment" val="" valType="extendedCode" updates="constant"/>\u000a        <Param name="Each Frame" val="" valType="extendedCode" updates="constant"/>\u000a      </CodeComponent>\u000a      <TextComponent name="feedback_2">\u000a        <Param name="opacity" val="1" valType="code" updates="constant"/>\u000a        <Param name="colorSpace" val="rgb" valType="str" updates="constant"/>\u000a        <Param name="name" val="feedback_2" valType="code" updates="constant"/>\u000a        <Param name="wrapWidth" val="" valType="code" updates="constant"/>\u000a        <Param name="color" val="$[1,1,1]" valType="str" updates="constant"/>\u000a        <Param name="text" val="$message" valType="str" updates="set every repeat"/>\u000a        <Param name="stopVal" val="1.0" valType="code" updates="constant"/>\u000a        <Param name="durationEstim" val="" valType="code" updates="None"/>\u000a        <Param name="pos" val="[0, 0]" valType="code" updates="constant"/>\u000a        <Param name="flip" val="" valType="str" updates="constant"/>\u000a        <Param name="startEstim" val="" valType="code" updates="None"/>\u000a        <Param name="units" val="from exp settings" valType="str" updates="None"/>\u000a        <Param name="startType" val="time (s)" valType="str" updates="None"/>\u000a        <Param name="ori" val="0" valType="code" updates="constant"/>\u000a        <Param name="stopType" val="duration (s)" valType="str" updates="None"/>\u000a        <Param name="startVal" val="0.0" valType="code" updates="None"/>\u000a        <Param name="font" val="Arial" valType="str" updates="constant"/>\u000a        <Param name="letterHeight" val="0.1" valType="code" updates="constant"/>\u000a      </TextComponent>\u000a    </Routine>\u000a    <Routine name="instrPractice">\u000a      <TextComponent name="instruct1">\u000a        <Param name="opacity" val="1" valType="code" updates="constant"/>\u000a        <Param name="colorSpace" val="rgb" valType="str" updates="constant"/>\u000a        <Param name="name" val="instruct1" valType="code" updates="constant"/>\u000a        <Param name="wrapWidth" val="" valType="code" updates="constant"/>\u000a        <Param name="color" val="white" valType="str" updates="constant"/>\u000a        <Param name="text" val="A shape stimulus will appear on every trial. &#10;&#10;If it appears in the upper right quadrant, PRESS Y&#10;&#10;If it appears in the lower right quadrant, PRESS H&#10;&#10;If it appears in the lower left quadrant, PRESS G&#10;&#10;If it appears in the upper left quadrant, PRESS T&#10;&#10;Press any key when you are ready to proceed. " valType="str" updates="constant"/>\u000a        <Param name="stopVal" val="" valType="code" updates="constant"/>\u000a        <Param name="durationEstim" val="" valType="code" updates="None"/>\u000a        <Param name="pos" val="[0, 0]" valType="code" updates="constant"/>\u000a        <Param name="flip" val="" valType="str" updates="constant"/>\u000a        <Param name="startEstim" val="" valType="code" updates="None"/>\u000a        <Param name="units" val="from exp settings" valType="str" updates="None"/>\u000a        <Param name="startType" val="time (s)" valType="str" updates="None"/>\u000a        <Param name="ori" val="0" valType="code" updates="constant"/>\u000a        <Param name="stopType" val="duration (s)" valType="str" updates="None"/>\u000a        <Param name="startVal" val="0.0" valType="code" updates="None"/>\u000a        <Param name="font" val="Arial" valType="str" updates="constant"/>\u000a        <Param name="letterHeight" val="0.07" valType="code" updates="constant"/>\u000a      </TextComponent>\u000a      <KeyboardComponent name="ok1">\u000a        <Param name="correctAns" val="" valType="str" updates="constant"/>\u000a        <Param name="storeCorrect" val="False" valType="bool" updates="constant"/>\u000a        <Param name="name" val="ok1" valType="code" updates="None"/>\u000a        <Param name="stopVal" val="" valType="code" updates="constant"/>\u000a        <Param name="durationEstim" val="" valType="code" updates="None"/>\u000a        <Param name="forceEndRoutine" val="True" valType="bool" updates="constant"/>\u000a        <Param name="startEstim" val="" valType="code" updates="None"/>\u000a        <Param name="discard previous" val="True" valType="bool" updates="constant"/>\u000a        <Param name="startType" val="time (s)" valType="str" updates="None"/>\u000a        <Param name="allowedKeys" val="" valType="code" updates="constant"/>\u000a        <Param name="stopType" val="duration (s)" valType="str" updates="None"/>\u000a        <Param name="startVal" val="0.0" valType="code" updates="None"/>\u000a        <Param name="store" val="last key" valType="str" updates="constant"/>\u000a      </KeyboardComponent>\u000a    </Routine>\u000a  </Routines>\u000a  <Flow>\u000a    <Routine name="StimSetup"/>\u000a    <Routine name="instrPractice"/>\u000a    <LoopInitiator loopType="TrialHandler" name="practiceTrials">\u000a      <Param name="conditionsFile" val="Trialtypes5.xlsx" valType="str" updates="None"/>\u000a      <Param name="name" val="practiceTrials" valType="code" updates="None"/>\u000a      <Param name="isTrials" val="True" valType="bool" updates="None"/>\u000a      <Param name="random seed" val="" valType="code" updates="None"/>\u000a      <Param name="loopType" val="random" valType="str" updates="None"/>\u000a      <Param name="nReps" val="1" valType="num" updates="None"/>\u000a      <Param name="endPoints" val="[1, 2]" valType="num" updates="None"/>\u000a      <Param name="conditions" val="[{u'xPos': 200, u'corrAns': u'y', u'yPos': 200}, {u'xPos': -200, u'corrAns': u't', u'yPos': 200}, {u'xPos': 200, u'corrAns': u'h', u'yPos': -200}, {u'xPos': -200, u'corrAns': u'g', u'yPos': -200}]" valType="str" updates="None"/>\u000a      <Param name="Selected rows" val="" valType="str" updates="None"/>\u000a    </LoopInitiator>\u000a    <LoopInitiator loopType="TrialHandler" name="ReDoLoop">\u000a      <Param name="conditionsFile" val="" valType="str" updates="None"/>\u000a      <Param name="name" val="ReDoLoop" valType="code" updates="None"/>\u000a      <Param name="isTrials" val="True" valType="bool" updates="None"/>\u000a      <Param name="random seed" val="" valType="code" updates="None"/>\u000a      <Param name="loopType" val="random" valType="str" updates="None"/>\u000a      <Param name="nReps" val="$Redo" valType="code" updates="None"/>\u000a      <Param name="endPoints" val="[0, 1]" valType="num" updates="None"/>\u000a      <Param name="conditions" val="None" valType="str" updates="None"/>\u000a      <Param name="Selected rows" val="" valType="str" updates="None"/>\u000a    </LoopInitiator>\u000a    <Routine name="trial"/>\u000a    <Routine name="feedback"/>\u000a    <LoopTerminator name="ReDoLoop"/>\u000a    <LoopTerminator name="practiceTrials"/>\u000a    <Routine name="instrMain"/>\u000a    <LoopInitiator loopType="TrialHandler" name="trials">\u000a      <Param name="conditionsFile" val="Trialtypes5.xlsx" valType="str" updates="None"/>\u000a      <Param name="name" val="trials" valType="code" updates="None"/>\u000a      <Param name="isTrials" val="True" valType="bool" updates="None"/>\u000a      <Param name="random seed" val="" valType="code" updates="None"/>\u000a      <Param name="loopType" val="random" valType="str" updates="None"/>\u000a      <Param name="nReps" val="10" valType="num" updates="None"/>\u000a      <Param name="endPoints" val="[0, 1]" valType="num" updates="None"/>\u000a      <Param name="conditions" val="[{u'xPos': 200, u'corrAns': u'y', u'yPos': 200}, {u'xPos': -200, u'corrAns': u't', u'yPos': 200}, {u'xPos': 200, u'corrAns': u'h', u'yPos': -200}, {u'xPos': -200, u'corrAns': u'g', u'yPos': -200}]" valType="str" updates="None"/>\u000a      <Param name="Selected rows" val="" valType="str" updates="None"/>\u000a    </LoopInitiator>\u000a    <Routine name="trial"/>\u000a    <Routine name="feedback"/>\u000a    <LoopTerminator name="trials"/>\u000a  </Flow>\u000a</PsychoPy2experiment>\u000a
p286
sg43
(lp287
sg51
I244417904
sg11
S'ReDoLoop'
p288
sg6
g7
sg53
I1
sg20
I01
sg21
g22
sg54
g1
(g55
g45
(dp289
g57
g58
(g59
g60
g61
S'b'
tRp290
(I1
(I1
I1
tg63
I00
S'\x00\x00\x80?'
S'\x00'
Ntbsg17
g64
(g60
(I0
tS'b'
tRp291
(I1
(I1
I1
tg66
I00
(lp292
S't'
atbsg18
g58
(g59
g60
g61
S'b'
tRp293
(I1
(I1
I1
tg63
I00
S'\x00\x00\x80?'
S'\x00'
Ntbsg103
g58
(g59
g60
g61
S'b'
tRp294
(I1
(I1
I1
tg63
I00
S'\x00\x00\x00\x00'
S'\x00'
Ntbsg19
g58
(g59
g60
g61
S'b'
tRp295
(I1
(I1
I1
tg63
I00
S'\xf0=\xbc>'
S'\x00'
NtbstRp296
(dp297
g108
(dp298
g57
I01
sg17
I00
sg19
I01
sg103
I01
sg18
I01
ssg52
g284
sg110
(lp299
g57
ag103
ag17
ag18
ag19
asg112
(lp300
I1
aI1
asbsg114
g115
sg116
g64
(g60
(I0
tS'b'
tRp301
(I1
(I1
I1
tg118
I00
S'\x00\x00\x00\x00'
tbsg119
I01
sg120
I1
sg121
I-1
sg122
(lp302
Nasg130
Nsg131
g153
sg133
I1
sg134
I0
sg135
I1
sg136
I01
sbag1
(g38
g3
NtRp303
(dp304
g41
V<PsychoPy2experiment version="1.82.01" encoding="utf-8">\u000a  <Settings>\u000a    <Param name="Show mouse" val="False" valType="bool" updates="None"/>\u000a    <Param name="Data filename" val="u'data' + os.sep + '%s_%s' %(expInfo['participant'], expInfo['date'])" valType="code" updates="None"/>\u000a    <Param name="Monitor" val="testMonitor" valType="str" updates="None"/>\u000a    <Param name="Enable Escape" val="True" valType="bool" updates="None"/>\u000a    <Param name="color" val="black" valType="str" updates="None"/>\u000a    <Param name="Window size (pixels)" val="[1680, 1050]" valType="code" updates="None"/>\u000a    <Param name="Full-screen window" val="True" valType="bool" updates="None"/>\u000a    <Param name="colorSpace" val="rgb" valType="str" updates="None"/>\u000a    <Param name="Experiment info" val="{'participant':'', 'gender (m/f)':'', 'age':'', 'session':03}" valType="code" updates="None"/>\u000a    <Param name="Save csv file" val="False" valType="bool" updates="None"/>\u000a    <Param name="Show info dlg" val="True" valType="bool" updates="None"/>\u000a    <Param name="Save wide csv file" val="True" valType="bool" updates="None"/>\u000a    <Param name="Save psydat file" val="True" valType="bool" updates="None"/>\u000a    <Param name="expName" val="LearningTask" valType="str" updates="None"/>\u000a    <Param name="logging level" val="warning" valType="code" updates="None"/>\u000a    <Param name="blendMode" val="avg" valType="str" updates="None"/>\u000a    <Param name="Save excel file" val="True" valType="bool" updates="None"/>\u000a    <Param name="Units" val="use prefs" valType="str" updates="None"/>\u000a    <Param name="Save log file" val="True" valType="bool" updates="None"/>\u000a    <Param name="Screen" val="1" valType="num" updates="None"/>\u000a  </Settings>\u000a  <Routines>\u000a    <Routine name="trial">\u000a      <CodeComponent name="code_2">\u000a        <Param name="Begin Experiment" val="" valType="extendedCode" updates="constant"/>\u000a        <Param name="name" val="code_2" valType="code" updates="None"/>\u000a        <Param name="Begin Routine" val="#Redo = 1&#10;&#10;import random&#10;&#10;Integers = [1, 2, 3, 4, 5, 6, 7, 8]&#10;&#10;if Redo == 1:&#10;    ConditionChoice = random.choice(Integers)&#10;    if ConditionChoice == 1:&#10;        CurrentStimulus = ConditionOne['fileName']&#10;    elif ConditionChoice == 2:&#10;        CurrentStimulus = ConditionTwo['fileName']&#10;    elif ConditionChoice == 3:&#10;        CurrentStimulus = ConditionThree['fileName']&#10;    elif ConditionChoice == 4:&#10;        CurrentStimulus = ConditionFour['fileName']&#10;    elif ConditionChoice == 5:&#10;        CurrentStimulus = ConditionFive['fileName']&#10;    elif ConditionChoice == 6:&#10;        CurrentStimulus = ConditionSix['fileName']&#10;    elif ConditionChoice == 7:&#10;        CurrentStimulus = ConditionSeven['fileName']&#10;    elif ConditionChoice == 8:&#10;        CurrentStimulus = ConditionEight['fileName']" valType="extendedCode" updates="constant"/>\u000a        <Param name="End Routine" val="" valType="extendedCode" updates="constant"/>\u000a        <Param name="End Experiment" val="" valType="extendedCode" updates="constant"/>\u000a        <Param name="Each Frame" val="" valType="extendedCode" updates="constant"/>\u000a      </CodeComponent>\u000a      <KeyboardComponent name="resp">\u000a        <Param name="correctAns" val="$corrAns" valType="str" updates="constant"/>\u000a        <Param name="storeCorrect" val="True" valType="bool" updates="constant"/>\u000a        <Param name="name" val="resp" valType="code" updates="None"/>\u000a        <Param name="stopVal" val="1" valType="code" updates="constant"/>\u000a        <Param name="durationEstim" val="" valType="code" updates="None"/>\u000a        <Param name="forceEndRoutine" val="True" valType="bool" updates="constant"/>\u000a        <Param name="startEstim" val="" valType="code" updates="None"/>\u000a        <Param name="discard previous" val="True" valType="bool" updates="constant"/>\u000a        <Param name="startType" val="time (s)" valType="str" updates="None"/>\u000a        <Param name="allowedKeys" val="'t', 'y', 'g', 'h'" valType="code" updates="constant"/>\u000a        <Param name="stopType" val="duration (s)" valType="str" updates="None"/>\u000a        <Param name="startVal" val=".5" valType="code" updates="None"/>\u000a        <Param name="store" val="last key" valType="str" updates="constant"/>\u000a      </KeyboardComponent>\u000a      <TextComponent name="text">\u000a        <Param name="opacity" val="1" valType="code" updates="constant"/>\u000a        <Param name="colorSpace" val="rgb" valType="str" updates="constant"/>\u000a        <Param name="name" val="text" valType="code" updates="None"/>\u000a        <Param name="wrapWidth" val="" valType="code" updates="constant"/>\u000a        <Param name="color" val="white" valType="str" updates="constant"/>\u000a        <Param name="text" val="+" valType="str" updates="constant"/>\u000a        <Param name="stopVal" val="1.5" valType="code" updates="constant"/>\u000a        <Param name="durationEstim" val="" valType="code" updates="None"/>\u000a        <Param name="pos" val="[0, 0]" valType="code" updates="constant"/>\u000a        <Param name="flip" val="" valType="str" updates="constant"/>\u000a        <Param name="startEstim" val="" valType="code" updates="None"/>\u000a        <Param name="units" val="from exp settings" valType="str" updates="None"/>\u000a        <Param name="startType" val="time (s)" valType="str" updates="None"/>\u000a        <Param name="ori" val="0" valType="code" updates="constant"/>\u000a        <Param name="stopType" val="duration (s)" valType="str" updates="None"/>\u000a        <Param name="startVal" val="0.0" valType="code" updates="None"/>\u000a        <Param name="font" val="Arial" valType="str" updates="constant"/>\u000a        <Param name="letterHeight" val="1" valType="code" updates="constant"/>\u000a      </TextComponent>\u000a      <ImageComponent name="image_2">\u000a        <Param name="opacity" val="1" valType="code" updates="constant"/>\u000a        <Param name="flipVert" val="False" valType="bool" updates="constant"/>\u000a        <Param name="colorSpace" val="rgb" valType="str" updates="constant"/>\u000a        <Param name="name" val="image_2" valType="code" updates="None"/>\u000a        <Param name="color" val="$[1,1,1]" valType="str" updates="constant"/>\u000a        <Param name="stopVal" val="1.0" valType="code" updates="constant"/>\u000a        <Param name="durationEstim" val="" valType="code" updates="None"/>\u000a        <Param name="mask" val="None" valType="str" updates="constant"/>\u000a        <Param name="pos" val="$[xPos, yPos]" valType="code" updates="set every repeat"/>\u000a        <Param name="interpolate" val="linear" valType="str" updates="constant"/>\u000a        <Param name="startEstim" val="" valType="code" updates="None"/>\u000a        <Param name="units" val="pix" valType="str" updates="None"/>\u000a        <Param name="texture resolution" val="128" valType="code" updates="constant"/>\u000a        <Param name="startType" val="time (s)" valType="str" updates="None"/>\u000a        <Param name="ori" val="0" valType="code" updates="constant"/>\u000a        <Param name="stopType" val="duration (s)" valType="str" updates="None"/>\u000a        <Param name="startVal" val=".5" valType="code" updates="None"/>\u000a        <Param name="flipHoriz" val="False" valType="bool" updates="constant"/>\u000a        <Param name="image" val="$CurrentStimulus" valType="str" updates="set every repeat"/>\u000a        <Param name="size" val="[101, 101]" valType="code" updates="constant"/>\u000a      </ImageComponent>\u000a    </Routine>\u000a    <Routine name="StimSetup">\u000a      <CodeComponent name="code">\u000a        <Param name="Begin Experiment" val="import random&#10;Redo = 1&#10;colors = ['yellow', 'white', 'orange', 'magenta', 'green', 'gray', 'cyan', 'blue']&#10;shapes = ['triangle', 'square', 'line', 'invertedtriangle', 'hexagon', 'diamond', 'cross', 'circle']&#10;rewards = [0.5, 1, 2, 4] * 2&#10;conditions = ['go', 'go', 'go', 'go', 'stop', 'stop', 'stop', 'stop']&#10;trialDetailsList = []&#10;&#10;shuffle(colors)&#10;shuffle(shapes)&#10;&#10;for i, color in enumerate(colors): # cycle through each color and keep track of an index number&#10;    trialDetails = {} # a dictionary of key-value pairs&#10;    trialDetails['fileName'] = shapes[i] + color + '.gif'&#10;    trialDetails['reward'] = rewards[i]&#10;    trialDetails['condition'] = conditions[i]&#10;    trialDetailsList.append(trialDetails)&#10;&#10;shuffle(trialDetailsList) # do this now to ensure that order of presentation of rewards and conditions is also shuffled&#10;&#10;ConditionOne = trialDetailsList[0]&#10;ConditionTwo = trialDetailsList[1]&#10;ConditionThree = trialDetailsList[2]&#10;ConditionFour = trialDetailsList[3]&#10;ConditionFive = trialDetailsList[4]&#10;ConditionSix = trialDetailsList[5]&#10;ConditionSeven = trialDetailsList[6]&#10;ConditionEight = trialDetailsList[7]" valType="extendedCode" updates="constant"/>\u000a        <Param name="name" val="code" valType="code" updates="None"/>\u000a        <Param name="Begin Routine" val="" valType="extendedCode" updates="constant"/>\u000a        <Param name="End Routine" val="" valType="extendedCode" updates="constant"/>\u000a        <Param name="End Experiment" val="" valType="extendedCode" updates="constant"/>\u000a        <Param name="Each Frame" val="" valType="extendedCode" updates="constant"/>\u000a      </CodeComponent>\u000a    </Routine>\u000a    <Routine name="instrMain">\u000a      <TextComponent name="instr2">\u000a        <Param name="opacity" val="1" valType="code" updates="constant"/>\u000a        <Param name="colorSpace" val="rgb" valType="str" updates="constant"/>\u000a        <Param name="name" val="instr2" valType="code" updates="constant"/>\u000a        <Param name="wrapWidth" val="" valType="code" updates="constant"/>\u000a        <Param name="color" val="white" valType="str" updates="constant"/>\u000a        <Param name="text" val="OK, ready to start the main experiment?&#10;&#10;Remember, press;&#10; - 'S' if the SMALL letters are S&#10; - 'H' if the SMALL letters are H&#10;&#10;Try to respond as quickly and as accurately as possible.&#10;&#10;When you are ready to proceed press any key." valType="str" updates="constant"/>\u000a        <Param name="stopVal" val="" valType="code" updates="constant"/>\u000a        <Param name="durationEstim" val="" valType="code" updates="None"/>\u000a        <Param name="pos" val="[0, 0]" valType="code" updates="constant"/>\u000a        <Param name="flip" val="" valType="str" updates="constant"/>\u000a        <Param name="startEstim" val="" valType="code" updates="None"/>\u000a        <Param name="units" val="from exp settings" valType="str" updates="None"/>\u000a        <Param name="startType" val="time (s)" valType="str" updates="None"/>\u000a        <Param name="ori" val="0" valType="code" updates="constant"/>\u000a        <Param name="stopType" val="duration (s)" valType="str" updates="None"/>\u000a        <Param name="startVal" val="0.0" valType="code" updates="None"/>\u000a        <Param name="font" val="Arial" valType="str" updates="constant"/>\u000a        <Param name="letterHeight" val="0.075" valType="code" updates="constant"/>\u000a      </TextComponent>\u000a      <KeyboardComponent name="ok2">\u000a        <Param name="correctAns" val="" valType="str" updates="constant"/>\u000a        <Param name="storeCorrect" val="False" valType="bool" updates="constant"/>\u000a        <Param name="name" val="ok2" valType="code" updates="None"/>\u000a        <Param name="stopVal" val="" valType="code" updates="constant"/>\u000a        <Param name="durationEstim" val="" valType="code" updates="None"/>\u000a        <Param name="forceEndRoutine" val="True" valType="bool" updates="constant"/>\u000a        <Param name="startEstim" val="" valType="code" updates="None"/>\u000a        <Param name="discard previous" val="True" valType="bool" updates="constant"/>\u000a        <Param name="startType" val="time (s)" valType="str" updates="None"/>\u000a        <Param name="allowedKeys" val="" valType="code" updates="constant"/>\u000a        <Param name="stopType" val="duration (s)" valType="str" updates="None"/>\u000a        <Param name="startVal" val="0.0" valType="code" updates="None"/>\u000a        <Param name="store" val="nothing" valType="str" updates="constant"/>\u000a      </KeyboardComponent>\u000a    </Routine>\u000a    <Routine name="feedback">\u000a      <CodeComponent name="message">\u000a        <Param name="Begin Experiment" val="#message variable just needs some value at start&#10;message=0" valType="extendedCode" updates="constant"/>\u000a        <Param name="name" val="message" valType="code" updates="None"/>\u000a        <Param name="Begin Routine" val="DisplayReward = random.randrange(1, 6)&#10;&#10;if resp.corr:#stored on last run routine&#10;    if DisplayReward == 1:&#10;            message = 0;&#10;    else:&#10;        if ConditionChoice == 1:&#10;            CurrentReward = ConditionOne['reward']&#10;            message = CurrentReward + (random.randrange(-25, 26)*.01)&#10;        elif ConditionChoice == 2:&#10;            CurrentReward = ConditionTwo['reward']&#10;            message = CurrentReward + (random.randrange(-25, 26)*.01)&#10;        elif ConditionChoice == 3:&#10;            CurrentReward = ConditionThree['reward']&#10;            message = CurrentReward + (random.randrange(-25, 26)*.01)&#10;        elif ConditionChoice == 4:&#10;            CurrentReward = ConditionFour['reward']&#10;            message = CurrentReward + (random.randrange(-25, 26)*.01)&#10;        elif ConditionChoice == 5:&#10;            CurrentReward = ConditionFive['reward']&#10;            message = CurrentReward + (random.randrange(-25, 26)*.01)&#10;        elif ConditionChoice == 6:&#10;            CurrentReward = ConditionSix['reward']&#10;            message = CurrentReward + (random.randrange(-25, 26)*.01)&#10;        elif ConditionChoice == 7:&#10;            CurrentReward = ConditionSeven['reward']&#10;            message = CurrentReward + (random.randrange(-25, 26)*.01)&#10;        elif ConditionChoice == 8:&#10;            CurrentReward = ConditionEight['reward']&#10;            message = CurrentReward + (random.randrange(-25, 26)*.01)&#10;elif resp.keys is None: #or len(key_resp.keys)&lt;1:&#10;#elif resp.rt == 0:&#10;    message =&quot;Too Slow&quot;&#10;else:&#10;  message=&quot;Wrong&quot;&#10;&#10;if resp.corr:#stored on last run routine&#10;    Redo = 1; &#10;else:&#10;    Redo = Redo + 1;&#10;&#10;#if DisplayReward == 1:&#10;#    message = 0;&#10;#else:&#10;#    message = CurrentReward + (random.randrange(-25, 26)*.01)&#10;&#10;#  message=&quot;Correct! RT=%.3f&quot; %(resp.rt)" valType="extendedCode" updates="constant"/>\u000a        <Param name="End Routine" val="" valType="extendedCode" updates="constant"/>\u000a        <Param name="End Experiment" val="" valType="extendedCode" updates="constant"/>\u000a        <Param name="Each Frame" val="" valType="extendedCode" updates="constant"/>\u000a      </CodeComponent>\u000a      <TextComponent name="feedback_2">\u000a        <Param name="opacity" val="1" valType="code" updates="constant"/>\u000a        <Param name="colorSpace" val="rgb" valType="str" updates="constant"/>\u000a        <Param name="name" val="feedback_2" valType="code" updates="constant"/>\u000a        <Param name="wrapWidth" val="" valType="code" updates="constant"/>\u000a        <Param name="color" val="$[1,1,1]" valType="str" updates="constant"/>\u000a        <Param name="text" val="$message" valType="str" updates="set every repeat"/>\u000a        <Param name="stopVal" val="1.0" valType="code" updates="constant"/>\u000a        <Param name="durationEstim" val="" valType="code" updates="None"/>\u000a        <Param name="pos" val="[0, 0]" valType="code" updates="constant"/>\u000a        <Param name="flip" val="" valType="str" updates="constant"/>\u000a        <Param name="startEstim" val="" valType="code" updates="None"/>\u000a        <Param name="units" val="from exp settings" valType="str" updates="None"/>\u000a        <Param name="startType" val="time (s)" valType="str" updates="None"/>\u000a        <Param name="ori" val="0" valType="code" updates="constant"/>\u000a        <Param name="stopType" val="duration (s)" valType="str" updates="None"/>\u000a        <Param name="startVal" val="0.0" valType="code" updates="None"/>\u000a        <Param name="font" val="Arial" valType="str" updates="constant"/>\u000a        <Param name="letterHeight" val="0.1" valType="code" updates="constant"/>\u000a      </TextComponent>\u000a    </Routine>\u000a    <Routine name="instrPractice">\u000a      <TextComponent name="instruct1">\u000a        <Param name="opacity" val="1" valType="code" updates="constant"/>\u000a        <Param name="colorSpace" val="rgb" valType="str" updates="constant"/>\u000a        <Param name="name" val="instruct1" valType="code" updates="constant"/>\u000a        <Param name="wrapWidth" val="" valType="code" updates="constant"/>\u000a        <Param name="color" val="white" valType="str" updates="constant"/>\u000a        <Param name="text" val="A shape stimulus will appear on every trial. &#10;&#10;If it appears in the upper right quadrant, PRESS Y&#10;&#10;If it appears in the lower right quadrant, PRESS H&#10;&#10;If it appears in the lower left quadrant, PRESS G&#10;&#10;If it appears in the upper left quadrant, PRESS T&#10;&#10;Press any key when you are ready to proceed. " valType="str" updates="constant"/>\u000a        <Param name="stopVal" val="" valType="code" updates="constant"/>\u000a        <Param name="durationEstim" val="" valType="code" updates="None"/>\u000a        <Param name="pos" val="[0, 0]" valType="code" updates="constant"/>\u000a        <Param name="flip" val="" valType="str" updates="constant"/>\u000a        <Param name="startEstim" val="" valType="code" updates="None"/>\u000a        <Param name="units" val="from exp settings" valType="str" updates="None"/>\u000a        <Param name="startType" val="time (s)" valType="str" updates="None"/>\u000a        <Param name="ori" val="0" valType="code" updates="constant"/>\u000a        <Param name="stopType" val="duration (s)" valType="str" updates="None"/>\u000a        <Param name="startVal" val="0.0" valType="code" updates="None"/>\u000a        <Param name="font" val="Arial" valType="str" updates="constant"/>\u000a        <Param name="letterHeight" val="0.07" valType="code" updates="constant"/>\u000a      </TextComponent>\u000a      <KeyboardComponent name="ok1">\u000a        <Param name="correctAns" val="" valType="str" updates="constant"/>\u000a        <Param name="storeCorrect" val="False" valType="bool" updates="constant"/>\u000a        <Param name="name" val="ok1" valType="code" updates="None"/>\u000a        <Param name="stopVal" val="" valType="code" updates="constant"/>\u000a        <Param name="durationEstim" val="" valType="code" updates="None"/>\u000a        <Param name="forceEndRoutine" val="True" valType="bool" updates="constant"/>\u000a        <Param name="startEstim" val="" valType="code" updates="None"/>\u000a        <Param name="discard previous" val="True" valType="bool" updates="constant"/>\u000a        <Param name="startType" val="time (s)" valType="str" updates="None"/>\u000a        <Param name="allowedKeys" val="" valType="code" updates="constant"/>\u000a        <Param name="stopType" val="duration (s)" valType="str" updates="None"/>\u000a        <Param name="startVal" val="0.0" valType="code" updates="None"/>\u000a        <Param name="store" val="last key" valType="str" updates="constant"/>\u000a      </KeyboardComponent>\u000a    </Routine>\u000a  </Routines>\u000a  <Flow>\u000a    <Routine name="StimSetup"/>\u000a    <Routine name="instrPractice"/>\u000a    <LoopInitiator loopType="TrialHandler" name="practiceTrials">\u000a      <Param name="conditionsFile" val="Trialtypes5.xlsx" valType="str" updates="None"/>\u000a      <Param name="name" val="practiceTrials" valType="code" updates="None"/>\u000a      <Param name="isTrials" val="True" valType="bool" updates="None"/>\u000a      <Param name="random seed" val="" valType="code" updates="None"/>\u000a      <Param name="loopType" val="random" valType="str" updates="None"/>\u000a      <Param name="nReps" val="1" valType="num" updates="None"/>\u000a      <Param name="endPoints" val="[1, 2]" valType="num" updates="None"/>\u000a      <Param name="conditions" val="[{u'xPos': 200, u'corrAns': u'y', u'yPos': 200}, {u'xPos': -200, u'corrAns': u't', u'yPos': 200}, {u'xPos': 200, u'corrAns': u'h', u'yPos': -200}, {u'xPos': -200, u'corrAns': u'g', u'yPos': -200}]" valType="str" updates="None"/>\u000a      <Param name="Selected rows" val="" valType="str" updates="None"/>\u000a    </LoopInitiator>\u000a    <LoopInitiator loopType="TrialHandler" name="ReDoLoop">\u000a      <Param name="conditionsFile" val="" valType="str" updates="None"/>\u000a      <Param name="name" val="ReDoLoop" valType="code" updates="None"/>\u000a      <Param name="isTrials" val="True" valType="bool" updates="None"/>\u000a      <Param name="random seed" val="" valType="code" updates="None"/>\u000a      <Param name="loopType" val="random" valType="str" updates="None"/>\u000a      <Param name="nReps" val="$Redo" valType="code" updates="None"/>\u000a      <Param name="endPoints" val="[0, 1]" valType="num" updates="None"/>\u000a      <Param name="conditions" val="None" valType="str" updates="None"/>\u000a      <Param name="Selected rows" val="" valType="str" updates="None"/>\u000a    </LoopInitiator>\u000a    <Routine name="trial"/>\u000a    <Routine name="feedback"/>\u000a    <LoopTerminator name="ReDoLoop"/>\u000a    <LoopTerminator name="practiceTrials"/>\u000a    <Routine name="instrMain"/>\u000a    <LoopInitiator loopType="TrialHandler" name="trials">\u000a      <Param name="conditionsFile" val="Trialtypes5.xlsx" valType="str" updates="None"/>\u000a      <Param name="name" val="trials" valType="code" updates="None"/>\u000a      <Param name="isTrials" val="True" valType="bool" updates="None"/>\u000a      <Param name="random seed" val="" valType="code" updates="None"/>\u000a      <Param name="loopType" val="random" valType="str" updates="None"/>\u000a      <Param name="nReps" val="10" valType="num" updates="None"/>\u000a      <Param name="endPoints" val="[0, 1]" valType="num" updates="None"/>\u000a      <Param name="conditions" val="[{u'xPos': 200, u'corrAns': u'y', u'yPos': 200}, {u'xPos': -200, u'corrAns': u't', u'yPos': 200}, {u'xPos': 200, u'corrAns': u'h', u'yPos': -200}, {u'xPos': -200, u'corrAns': u'g', u'yPos': -200}]" valType="str" updates="None"/>\u000a      <Param name="Selected rows" val="" valType="str" updates="None"/>\u000a    </LoopInitiator>\u000a    <Routine name="trial"/>\u000a    <Routine name="feedback"/>\u000a    <LoopTerminator name="trials"/>\u000a  </Flow>\u000a</PsychoPy2experiment>\u000a
p305
sg43
(lp306
sg51
I244417904
sg11
g288
sg6
g7
sg53
I1
sg20
I01
sg21
g22
sg54
g1
(g55
g45
(dp307
g57
g58
(g59
g60
g61
S'b'
tRp308
(I1
(I1
I1
tg63
I00
S'\x00\x00\x80?'
S'\x00'
Ntbsg17
g64
(g60
(I0
tS'b'
tRp309
(I1
(I1
I1
tg66
I00
(lp310
S'y'
atbsg18
g58
(g59
g60
g61
S'b'
tRp311
(I1
(I1
I1
tg63
I00
S'\x00\x00\x80?'
S'\x00'
Ntbsg103
g58
(g59
g60
g61
S'b'
tRp312
(I1
(I1
I1
tg63
I00
S'\x00\x00\x00\x00'
S'\x00'
Ntbsg19
g58
(g59
g60
g61
S'b'
tRp313
(I1
(I1
I1
tg63
I00
S'\x00\x82\x91>'
S'\x00'
NtbstRp314
(dp315
g108
(dp316
g57
I01
sg17
I00
sg19
I01
sg103
I01
sg18
I01
ssg52
g303
sg110
(lp317
g57
ag103
ag17
ag18
ag19
asg112
(lp318
I1
aI1
asbsg114
g115
sg116
g64
(g60
(I0
tS'b'
tRp319
(I1
(I1
I1
tg118
I00
S'\x00\x00\x00\x00'
tbsg119
I01
sg120
I1
sg121
I-1
sg122
(lp320
Nasg130
Nsg131
g170
sg133
I1
sg134
I0
sg135
I1
sg136
I01
sbag1
(g38
g3
NtRp321
(dp322
g41
V<PsychoPy2experiment version="1.82.01" encoding="utf-8">\u000a  <Settings>\u000a    <Param name="Show mouse" val="False" valType="bool" updates="None"/>\u000a    <Param name="Data filename" val="u'data' + os.sep + '%s_%s' %(expInfo['participant'], expInfo['date'])" valType="code" updates="None"/>\u000a    <Param name="Monitor" val="testMonitor" valType="str" updates="None"/>\u000a    <Param name="Enable Escape" val="True" valType="bool" updates="None"/>\u000a    <Param name="color" val="black" valType="str" updates="None"/>\u000a    <Param name="Window size (pixels)" val="[1680, 1050]" valType="code" updates="None"/>\u000a    <Param name="Full-screen window" val="True" valType="bool" updates="None"/>\u000a    <Param name="colorSpace" val="rgb" valType="str" updates="None"/>\u000a    <Param name="Experiment info" val="{'participant':'', 'gender (m/f)':'', 'age':'', 'session':03}" valType="code" updates="None"/>\u000a    <Param name="Save csv file" val="False" valType="bool" updates="None"/>\u000a    <Param name="Show info dlg" val="True" valType="bool" updates="None"/>\u000a    <Param name="Save wide csv file" val="True" valType="bool" updates="None"/>\u000a    <Param name="Save psydat file" val="True" valType="bool" updates="None"/>\u000a    <Param name="expName" val="LearningTask" valType="str" updates="None"/>\u000a    <Param name="logging level" val="warning" valType="code" updates="None"/>\u000a    <Param name="blendMode" val="avg" valType="str" updates="None"/>\u000a    <Param name="Save excel file" val="True" valType="bool" updates="None"/>\u000a    <Param name="Units" val="use prefs" valType="str" updates="None"/>\u000a    <Param name="Save log file" val="True" valType="bool" updates="None"/>\u000a    <Param name="Screen" val="1" valType="num" updates="None"/>\u000a  </Settings>\u000a  <Routines>\u000a    <Routine name="trial">\u000a      <CodeComponent name="code_2">\u000a        <Param name="Begin Experiment" val="" valType="extendedCode" updates="constant"/>\u000a        <Param name="name" val="code_2" valType="code" updates="None"/>\u000a        <Param name="Begin Routine" val="#Redo = 1&#10;&#10;import random&#10;&#10;Integers = [1, 2, 3, 4, 5, 6, 7, 8]&#10;&#10;if Redo == 1:&#10;    ConditionChoice = random.choice(Integers)&#10;    if ConditionChoice == 1:&#10;        CurrentStimulus = ConditionOne['fileName']&#10;    elif ConditionChoice == 2:&#10;        CurrentStimulus = ConditionTwo['fileName']&#10;    elif ConditionChoice == 3:&#10;        CurrentStimulus = ConditionThree['fileName']&#10;    elif ConditionChoice == 4:&#10;        CurrentStimulus = ConditionFour['fileName']&#10;    elif ConditionChoice == 5:&#10;        CurrentStimulus = ConditionFive['fileName']&#10;    elif ConditionChoice == 6:&#10;        CurrentStimulus = ConditionSix['fileName']&#10;    elif ConditionChoice == 7:&#10;        CurrentStimulus = ConditionSeven['fileName']&#10;    elif ConditionChoice == 8:&#10;        CurrentStimulus = ConditionEight['fileName']" valType="extendedCode" updates="constant"/>\u000a        <Param name="End Routine" val="" valType="extendedCode" updates="constant"/>\u000a        <Param name="End Experiment" val="" valType="extendedCode" updates="constant"/>\u000a        <Param name="Each Frame" val="" valType="extendedCode" updates="constant"/>\u000a      </CodeComponent>\u000a      <KeyboardComponent name="resp">\u000a        <Param name="correctAns" val="$corrAns" valType="str" updates="constant"/>\u000a        <Param name="storeCorrect" val="True" valType="bool" updates="constant"/>\u000a        <Param name="name" val="resp" valType="code" updates="None"/>\u000a        <Param name="stopVal" val="1" valType="code" updates="constant"/>\u000a        <Param name="durationEstim" val="" valType="code" updates="None"/>\u000a        <Param name="forceEndRoutine" val="True" valType="bool" updates="constant"/>\u000a        <Param name="startEstim" val="" valType="code" updates="None"/>\u000a        <Param name="discard previous" val="True" valType="bool" updates="constant"/>\u000a        <Param name="startType" val="time (s)" valType="str" updates="None"/>\u000a        <Param name="allowedKeys" val="'t', 'y', 'g', 'h'" valType="code" updates="constant"/>\u000a        <Param name="stopType" val="duration (s)" valType="str" updates="None"/>\u000a        <Param name="startVal" val=".5" valType="code" updates="None"/>\u000a        <Param name="store" val="last key" valType="str" updates="constant"/>\u000a      </KeyboardComponent>\u000a      <TextComponent name="text">\u000a        <Param name="opacity" val="1" valType="code" updates="constant"/>\u000a        <Param name="colorSpace" val="rgb" valType="str" updates="constant"/>\u000a        <Param name="name" val="text" valType="code" updates="None"/>\u000a        <Param name="wrapWidth" val="" valType="code" updates="constant"/>\u000a        <Param name="color" val="white" valType="str" updates="constant"/>\u000a        <Param name="text" val="+" valType="str" updates="constant"/>\u000a        <Param name="stopVal" val="1.5" valType="code" updates="constant"/>\u000a        <Param name="durationEstim" val="" valType="code" updates="None"/>\u000a        <Param name="pos" val="[0, 0]" valType="code" updates="constant"/>\u000a        <Param name="flip" val="" valType="str" updates="constant"/>\u000a        <Param name="startEstim" val="" valType="code" updates="None"/>\u000a        <Param name="units" val="from exp settings" valType="str" updates="None"/>\u000a        <Param name="startType" val="time (s)" valType="str" updates="None"/>\u000a        <Param name="ori" val="0" valType="code" updates="constant"/>\u000a        <Param name="stopType" val="duration (s)" valType="str" updates="None"/>\u000a        <Param name="startVal" val="0.0" valType="code" updates="None"/>\u000a        <Param name="font" val="Arial" valType="str" updates="constant"/>\u000a        <Param name="letterHeight" val="1" valType="code" updates="constant"/>\u000a      </TextComponent>\u000a      <ImageComponent name="image_2">\u000a        <Param name="opacity" val="1" valType="code" updates="constant"/>\u000a        <Param name="flipVert" val="False" valType="bool" updates="constant"/>\u000a        <Param name="colorSpace" val="rgb" valType="str" updates="constant"/>\u000a        <Param name="name" val="image_2" valType="code" updates="None"/>\u000a        <Param name="color" val="$[1,1,1]" valType="str" updates="constant"/>\u000a        <Param name="stopVal" val="1.0" valType="code" updates="constant"/>\u000a        <Param name="durationEstim" val="" valType="code" updates="None"/>\u000a        <Param name="mask" val="None" valType="str" updates="constant"/>\u000a        <Param name="pos" val="$[xPos, yPos]" valType="code" updates="set every repeat"/>\u000a        <Param name="interpolate" val="linear" valType="str" updates="constant"/>\u000a        <Param name="startEstim" val="" valType="code" updates="None"/>\u000a        <Param name="units" val="pix" valType="str" updates="None"/>\u000a        <Param name="texture resolution" val="128" valType="code" updates="constant"/>\u000a        <Param name="startType" val="time (s)" valType="str" updates="None"/>\u000a        <Param name="ori" val="0" valType="code" updates="constant"/>\u000a        <Param name="stopType" val="duration (s)" valType="str" updates="None"/>\u000a        <Param name="startVal" val=".5" valType="code" updates="None"/>\u000a        <Param name="flipHoriz" val="False" valType="bool" updates="constant"/>\u000a        <Param name="image" val="$CurrentStimulus" valType="str" updates="set every repeat"/>\u000a        <Param name="size" val="[101, 101]" valType="code" updates="constant"/>\u000a      </ImageComponent>\u000a    </Routine>\u000a    <Routine name="StimSetup">\u000a      <CodeComponent name="code">\u000a        <Param name="Begin Experiment" val="import random&#10;Redo = 1&#10;colors = ['yellow', 'white', 'orange', 'magenta', 'green', 'gray', 'cyan', 'blue']&#10;shapes = ['triangle', 'square', 'line', 'invertedtriangle', 'hexagon', 'diamond', 'cross', 'circle']&#10;rewards = [0.5, 1, 2, 4] * 2&#10;conditions = ['go', 'go', 'go', 'go', 'stop', 'stop', 'stop', 'stop']&#10;trialDetailsList = []&#10;&#10;shuffle(colors)&#10;shuffle(shapes)&#10;&#10;for i, color in enumerate(colors): # cycle through each color and keep track of an index number&#10;    trialDetails = {} # a dictionary of key-value pairs&#10;    trialDetails['fileName'] = shapes[i] + color + '.gif'&#10;    trialDetails['reward'] = rewards[i]&#10;    trialDetails['condition'] = conditions[i]&#10;    trialDetailsList.append(trialDetails)&#10;&#10;shuffle(trialDetailsList) # do this now to ensure that order of presentation of rewards and conditions is also shuffled&#10;&#10;ConditionOne = trialDetailsList[0]&#10;ConditionTwo = trialDetailsList[1]&#10;ConditionThree = trialDetailsList[2]&#10;ConditionFour = trialDetailsList[3]&#10;ConditionFive = trialDetailsList[4]&#10;ConditionSix = trialDetailsList[5]&#10;ConditionSeven = trialDetailsList[6]&#10;ConditionEight = trialDetailsList[7]" valType="extendedCode" updates="constant"/>\u000a        <Param name="name" val="code" valType="code" updates="None"/>\u000a        <Param name="Begin Routine" val="" valType="extendedCode" updates="constant"/>\u000a        <Param name="End Routine" val="" valType="extendedCode" updates="constant"/>\u000a        <Param name="End Experiment" val="" valType="extendedCode" updates="constant"/>\u000a        <Param name="Each Frame" val="" valType="extendedCode" updates="constant"/>\u000a      </CodeComponent>\u000a    </Routine>\u000a    <Routine name="instrMain">\u000a      <TextComponent name="instr2">\u000a        <Param name="opacity" val="1" valType="code" updates="constant"/>\u000a        <Param name="colorSpace" val="rgb" valType="str" updates="constant"/>\u000a        <Param name="name" val="instr2" valType="code" updates="constant"/>\u000a        <Param name="wrapWidth" val="" valType="code" updates="constant"/>\u000a        <Param name="color" val="white" valType="str" updates="constant"/>\u000a        <Param name="text" val="OK, ready to start the main experiment?&#10;&#10;Remember, press;&#10; - 'S' if the SMALL letters are S&#10; - 'H' if the SMALL letters are H&#10;&#10;Try to respond as quickly and as accurately as possible.&#10;&#10;When you are ready to proceed press any key." valType="str" updates="constant"/>\u000a        <Param name="stopVal" val="" valType="code" updates="constant"/>\u000a        <Param name="durationEstim" val="" valType="code" updates="None"/>\u000a        <Param name="pos" val="[0, 0]" valType="code" updates="constant"/>\u000a        <Param name="flip" val="" valType="str" updates="constant"/>\u000a        <Param name="startEstim" val="" valType="code" updates="None"/>\u000a        <Param name="units" val="from exp settings" valType="str" updates="None"/>\u000a        <Param name="startType" val="time (s)" valType="str" updates="None"/>\u000a        <Param name="ori" val="0" valType="code" updates="constant"/>\u000a        <Param name="stopType" val="duration (s)" valType="str" updates="None"/>\u000a        <Param name="startVal" val="0.0" valType="code" updates="None"/>\u000a        <Param name="font" val="Arial" valType="str" updates="constant"/>\u000a        <Param name="letterHeight" val="0.075" valType="code" updates="constant"/>\u000a      </TextComponent>\u000a      <KeyboardComponent name="ok2">\u000a        <Param name="correctAns" val="" valType="str" updates="constant"/>\u000a        <Param name="storeCorrect" val="False" valType="bool" updates="constant"/>\u000a        <Param name="name" val="ok2" valType="code" updates="None"/>\u000a        <Param name="stopVal" val="" valType="code" updates="constant"/>\u000a        <Param name="durationEstim" val="" valType="code" updates="None"/>\u000a        <Param name="forceEndRoutine" val="True" valType="bool" updates="constant"/>\u000a        <Param name="startEstim" val="" valType="code" updates="None"/>\u000a        <Param name="discard previous" val="True" valType="bool" updates="constant"/>\u000a        <Param name="startType" val="time (s)" valType="str" updates="None"/>\u000a        <Param name="allowedKeys" val="" valType="code" updates="constant"/>\u000a        <Param name="stopType" val="duration (s)" valType="str" updates="None"/>\u000a        <Param name="startVal" val="0.0" valType="code" updates="None"/>\u000a        <Param name="store" val="nothing" valType="str" updates="constant"/>\u000a      </KeyboardComponent>\u000a    </Routine>\u000a    <Routine name="feedback">\u000a      <CodeComponent name="message">\u000a        <Param name="Begin Experiment" val="#message variable just needs some value at start&#10;message=0" valType="extendedCode" updates="constant"/>\u000a        <Param name="name" val="message" valType="code" updates="None"/>\u000a        <Param name="Begin Routine" val="DisplayReward = random.randrange(1, 6)&#10;&#10;if resp.corr:#stored on last run routine&#10;    if DisplayReward == 1:&#10;            message = 0;&#10;    else:&#10;        if ConditionChoice == 1:&#10;            CurrentReward = ConditionOne['reward']&#10;            message = CurrentReward + (random.randrange(-25, 26)*.01)&#10;        elif ConditionChoice == 2:&#10;            CurrentReward = ConditionTwo['reward']&#10;            message = CurrentReward + (random.randrange(-25, 26)*.01)&#10;        elif ConditionChoice == 3:&#10;            CurrentReward = ConditionThree['reward']&#10;            message = CurrentReward + (random.randrange(-25, 26)*.01)&#10;        elif ConditionChoice == 4:&#10;            CurrentReward = ConditionFour['reward']&#10;            message = CurrentReward + (random.randrange(-25, 26)*.01)&#10;        elif ConditionChoice == 5:&#10;            CurrentReward = ConditionFive['reward']&#10;            message = CurrentReward + (random.randrange(-25, 26)*.01)&#10;        elif ConditionChoice == 6:&#10;            CurrentReward = ConditionSix['reward']&#10;            message = CurrentReward + (random.randrange(-25, 26)*.01)&#10;        elif ConditionChoice == 7:&#10;            CurrentReward = ConditionSeven['reward']&#10;            message = CurrentReward + (random.randrange(-25, 26)*.01)&#10;        elif ConditionChoice == 8:&#10;            CurrentReward = ConditionEight['reward']&#10;            message = CurrentReward + (random.randrange(-25, 26)*.01)&#10;elif resp.keys is None: #or len(key_resp.keys)&lt;1:&#10;#elif resp.rt == 0:&#10;    message =&quot;Too Slow&quot;&#10;else:&#10;  message=&quot;Wrong&quot;&#10;&#10;if resp.corr:#stored on last run routine&#10;    Redo = 1; &#10;else:&#10;    Redo = Redo + 1;&#10;&#10;#if DisplayReward == 1:&#10;#    message = 0;&#10;#else:&#10;#    message = CurrentReward + (random.randrange(-25, 26)*.01)&#10;&#10;#  message=&quot;Correct! RT=%.3f&quot; %(resp.rt)" valType="extendedCode" updates="constant"/>\u000a        <Param name="End Routine" val="" valType="extendedCode" updates="constant"/>\u000a        <Param name="End Experiment" val="" valType="extendedCode" updates="constant"/>\u000a        <Param name="Each Frame" val="" valType="extendedCode" updates="constant"/>\u000a      </CodeComponent>\u000a      <TextComponent name="feedback_2">\u000a        <Param name="opacity" val="1" valType="code" updates="constant"/>\u000a        <Param name="colorSpace" val="rgb" valType="str" updates="constant"/>\u000a        <Param name="name" val="feedback_2" valType="code" updates="constant"/>\u000a        <Param name="wrapWidth" val="" valType="code" updates="constant"/>\u000a        <Param name="color" val="$[1,1,1]" valType="str" updates="constant"/>\u000a        <Param name="text" val="$message" valType="str" updates="set every repeat"/>\u000a        <Param name="stopVal" val="1.0" valType="code" updates="constant"/>\u000a        <Param name="durationEstim" val="" valType="code" updates="None"/>\u000a        <Param name="pos" val="[0, 0]" valType="code" updates="constant"/>\u000a        <Param name="flip" val="" valType="str" updates="constant"/>\u000a        <Param name="startEstim" val="" valType="code" updates="None"/>\u000a        <Param name="units" val="from exp settings" valType="str" updates="None"/>\u000a        <Param name="startType" val="time (s)" valType="str" updates="None"/>\u000a        <Param name="ori" val="0" valType="code" updates="constant"/>\u000a        <Param name="stopType" val="duration (s)" valType="str" updates="None"/>\u000a        <Param name="startVal" val="0.0" valType="code" updates="None"/>\u000a        <Param name="font" val="Arial" valType="str" updates="constant"/>\u000a        <Param name="letterHeight" val="0.1" valType="code" updates="constant"/>\u000a      </TextComponent>\u000a    </Routine>\u000a    <Routine name="instrPractice">\u000a      <TextComponent name="instruct1">\u000a        <Param name="opacity" val="1" valType="code" updates="constant"/>\u000a        <Param name="colorSpace" val="rgb" valType="str" updates="constant"/>\u000a        <Param name="name" val="instruct1" valType="code" updates="constant"/>\u000a        <Param name="wrapWidth" val="" valType="code" updates="constant"/>\u000a        <Param name="color" val="white" valType="str" updates="constant"/>\u000a        <Param name="text" val="A shape stimulus will appear on every trial. &#10;&#10;If it appears in the upper right quadrant, PRESS Y&#10;&#10;If it appears in the lower right quadrant, PRESS H&#10;&#10;If it appears in the lower left quadrant, PRESS G&#10;&#10;If it appears in the upper left quadrant, PRESS T&#10;&#10;Press any key when you are ready to proceed. " valType="str" updates="constant"/>\u000a        <Param name="stopVal" val="" valType="code" updates="constant"/>\u000a        <Param name="durationEstim" val="" valType="code" updates="None"/>\u000a        <Param name="pos" val="[0, 0]" valType="code" updates="constant"/>\u000a        <Param name="flip" val="" valType="str" updates="constant"/>\u000a        <Param name="startEstim" val="" valType="code" updates="None"/>\u000a        <Param name="units" val="from exp settings" valType="str" updates="None"/>\u000a        <Param name="startType" val="time (s)" valType="str" updates="None"/>\u000a        <Param name="ori" val="0" valType="code" updates="constant"/>\u000a        <Param name="stopType" val="duration (s)" valType="str" updates="None"/>\u000a        <Param name="startVal" val="0.0" valType="code" updates="None"/>\u000a        <Param name="font" val="Arial" valType="str" updates="constant"/>\u000a        <Param name="letterHeight" val="0.07" valType="code" updates="constant"/>\u000a      </TextComponent>\u000a      <KeyboardComponent name="ok1">\u000a        <Param name="correctAns" val="" valType="str" updates="constant"/>\u000a        <Param name="storeCorrect" val="False" valType="bool" updates="constant"/>\u000a        <Param name="name" val="ok1" valType="code" updates="None"/>\u000a        <Param name="stopVal" val="" valType="code" updates="constant"/>\u000a        <Param name="durationEstim" val="" valType="code" updates="None"/>\u000a        <Param name="forceEndRoutine" val="True" valType="bool" updates="constant"/>\u000a        <Param name="startEstim" val="" valType="code" updates="None"/>\u000a        <Param name="discard previous" val="True" valType="bool" updates="constant"/>\u000a        <Param name="startType" val="time (s)" valType="str" updates="None"/>\u000a        <Param name="allowedKeys" val="" valType="code" updates="constant"/>\u000a        <Param name="stopType" val="duration (s)" valType="str" updates="None"/>\u000a        <Param name="startVal" val="0.0" valType="code" updates="None"/>\u000a        <Param name="store" val="last key" valType="str" updates="constant"/>\u000a      </KeyboardComponent>\u000a    </Routine>\u000a  </Routines>\u000a  <Flow>\u000a    <Routine name="StimSetup"/>\u000a    <Routine name="instrPractice"/>\u000a    <LoopInitiator loopType="TrialHandler" name="practiceTrials">\u000a      <Param name="conditionsFile" val="Trialtypes5.xlsx" valType="str" updates="None"/>\u000a      <Param name="name" val="practiceTrials" valType="code" updates="None"/>\u000a      <Param name="isTrials" val="True" valType="bool" updates="None"/>\u000a      <Param name="random seed" val="" valType="code" updates="None"/>\u000a      <Param name="loopType" val="random" valType="str" updates="None"/>\u000a      <Param name="nReps" val="1" valType="num" updates="None"/>\u000a      <Param name="endPoints" val="[1, 2]" valType="num" updates="None"/>\u000a      <Param name="conditions" val="[{u'xPos': 200, u'corrAns': u'y', u'yPos': 200}, {u'xPos': -200, u'corrAns': u't', u'yPos': 200}, {u'xPos': 200, u'corrAns': u'h', u'yPos': -200}, {u'xPos': -200, u'corrAns': u'g', u'yPos': -200}]" valType="str" updates="None"/>\u000a      <Param name="Selected rows" val="" valType="str" updates="None"/>\u000a    </LoopInitiator>\u000a    <LoopInitiator loopType="TrialHandler" name="ReDoLoop">\u000a      <Param name="conditionsFile" val="" valType="str" updates="None"/>\u000a      <Param name="name" val="ReDoLoop" valType="code" updates="None"/>\u000a      <Param name="isTrials" val="True" valType="bool" updates="None"/>\u000a      <Param name="random seed" val="" valType="code" updates="None"/>\u000a      <Param name="loopType" val="random" valType="str" updates="None"/>\u000a      <Param name="nReps" val="$Redo" valType="code" updates="None"/>\u000a      <Param name="endPoints" val="[0, 1]" valType="num" updates="None"/>\u000a      <Param name="conditions" val="None" valType="str" updates="None"/>\u000a      <Param name="Selected rows" val="" valType="str" updates="None"/>\u000a    </LoopInitiator>\u000a    <Routine name="trial"/>\u000a    <Routine name="feedback"/>\u000a    <LoopTerminator name="ReDoLoop"/>\u000a    <LoopTerminator name="practiceTrials"/>\u000a    <Routine name="instrMain"/>\u000a    <LoopInitiator loopType="TrialHandler" name="trials">\u000a      <Param name="conditionsFile" val="Trialtypes5.xlsx" valType="str" updates="None"/>\u000a      <Param name="name" val="trials" valType="code" updates="None"/>\u000a      <Param name="isTrials" val="True" valType="bool" updates="None"/>\u000a      <Param name="random seed" val="" valType="code" updates="None"/>\u000a      <Param name="loopType" val="random" valType="str" updates="None"/>\u000a      <Param name="nReps" val="10" valType="num" updates="None"/>\u000a      <Param name="endPoints" val="[0, 1]" valType="num" updates="None"/>\u000a      <Param name="conditions" val="[{u'xPos': 200, u'corrAns': u'y', u'yPos': 200}, {u'xPos': -200, u'corrAns': u't', u'yPos': 200}, {u'xPos': 200, u'corrAns': u'h', u'yPos': -200}, {u'xPos': -200, u'corrAns': u'g', u'yPos': -200}]" valType="str" updates="None"/>\u000a      <Param name="Selected rows" val="" valType="str" updates="None"/>\u000a    </LoopInitiator>\u000a    <Routine name="trial"/>\u000a    <Routine name="feedback"/>\u000a    <LoopTerminator name="trials"/>\u000a  </Flow>\u000a</PsychoPy2experiment>\u000a
p323
sg43
(lp324
sg51
I244417904
sg11
g288
sg6
g7
sg53
I1
sg20
I01
sg21
g22
sg54
g1
(g55
g45
(dp325
g57
g58
(g59
g60
g61
S'b'
tRp326
(I1
(I1
I1
tg63
I00
S'\x00\x00\x80?'
S'\x00'
Ntbsg17
g64
(g60
(I0
tS'b'
tRp327
(I1
(I1
I1
tg66
I00
(lp328
S'h'
atbsg18
g58
(g59
g60
g61
S'b'
tRp329
(I1
(I1
I1
tg63
I00
S'\x00\x00\x00\x00'
S'\x00'
Ntbsg103
g58
(g59
g60
g61
S'b'
tRp330
(I1
(I1
I1
tg63
I00
S'\x00\x00\x00\x00'
S'\x00'
Ntbsg19
g58
(g59
g60
g61
S'b'
tRp331
(I1
(I1
I1
tg63
I00
S'\x10\xf4\xf7>'
S'\x00'
NtbstRp332
(dp333
g108
(dp334
g57
I01
sg17
I00
sg19
I01
sg103
I01
sg18
I01
ssg52
g321
sg110
(lp335
g57
ag103
ag17
ag18
ag19
asg112
(lp336
I1
aI1
asbsg114
g115
sg116
g64
(g60
(I0
tS'b'
tRp337
(I1
(I1
I1
tg118
I00
S'\x00\x00\x00\x00'
tbsg119
I01
sg120
I1
sg121
I-1
sg122
(lp338
Nasg130
Nsg131
g187
sg133
I1
sg134
I0
sg135
I1
sg136
I01
sbag1
(g38
g3
NtRp339
(dp340
g41
V<PsychoPy2experiment version="1.82.01" encoding="utf-8">\u000a  <Settings>\u000a    <Param name="Show mouse" val="False" valType="bool" updates="None"/>\u000a    <Param name="Data filename" val="u'data' + os.sep + '%s_%s' %(expInfo['participant'], expInfo['date'])" valType="code" updates="None"/>\u000a    <Param name="Monitor" val="testMonitor" valType="str" updates="None"/>\u000a    <Param name="Enable Escape" val="True" valType="bool" updates="None"/>\u000a    <Param name="color" val="black" valType="str" updates="None"/>\u000a    <Param name="Window size (pixels)" val="[1680, 1050]" valType="code" updates="None"/>\u000a    <Param name="Full-screen window" val="True" valType="bool" updates="None"/>\u000a    <Param name="colorSpace" val="rgb" valType="str" updates="None"/>\u000a    <Param name="Experiment info" val="{'participant':'', 'gender (m/f)':'', 'age':'', 'session':03}" valType="code" updates="None"/>\u000a    <Param name="Save csv file" val="False" valType="bool" updates="None"/>\u000a    <Param name="Show info dlg" val="True" valType="bool" updates="None"/>\u000a    <Param name="Save wide csv file" val="True" valType="bool" updates="None"/>\u000a    <Param name="Save psydat file" val="True" valType="bool" updates="None"/>\u000a    <Param name="expName" val="LearningTask" valType="str" updates="None"/>\u000a    <Param name="logging level" val="warning" valType="code" updates="None"/>\u000a    <Param name="blendMode" val="avg" valType="str" updates="None"/>\u000a    <Param name="Save excel file" val="True" valType="bool" updates="None"/>\u000a    <Param name="Units" val="use prefs" valType="str" updates="None"/>\u000a    <Param name="Save log file" val="True" valType="bool" updates="None"/>\u000a    <Param name="Screen" val="1" valType="num" updates="None"/>\u000a  </Settings>\u000a  <Routines>\u000a    <Routine name="trial">\u000a      <CodeComponent name="code_2">\u000a        <Param name="Begin Experiment" val="" valType="extendedCode" updates="constant"/>\u000a        <Param name="name" val="code_2" valType="code" updates="None"/>\u000a        <Param name="Begin Routine" val="#Redo = 1&#10;&#10;import random&#10;&#10;Integers = [1, 2, 3, 4, 5, 6, 7, 8]&#10;&#10;if Redo == 1:&#10;    ConditionChoice = random.choice(Integers)&#10;    if ConditionChoice == 1:&#10;        CurrentStimulus = ConditionOne['fileName']&#10;    elif ConditionChoice == 2:&#10;        CurrentStimulus = ConditionTwo['fileName']&#10;    elif ConditionChoice == 3:&#10;        CurrentStimulus = ConditionThree['fileName']&#10;    elif ConditionChoice == 4:&#10;        CurrentStimulus = ConditionFour['fileName']&#10;    elif ConditionChoice == 5:&#10;        CurrentStimulus = ConditionFive['fileName']&#10;    elif ConditionChoice == 6:&#10;        CurrentStimulus = ConditionSix['fileName']&#10;    elif ConditionChoice == 7:&#10;        CurrentStimulus = ConditionSeven['fileName']&#10;    elif ConditionChoice == 8:&#10;        CurrentStimulus = ConditionEight['fileName']" valType="extendedCode" updates="constant"/>\u000a        <Param name="End Routine" val="" valType="extendedCode" updates="constant"/>\u000a        <Param name="End Experiment" val="" valType="extendedCode" updates="constant"/>\u000a        <Param name="Each Frame" val="" valType="extendedCode" updates="constant"/>\u000a      </CodeComponent>\u000a      <KeyboardComponent name="resp">\u000a        <Param name="correctAns" val="$corrAns" valType="str" updates="constant"/>\u000a        <Param name="storeCorrect" val="True" valType="bool" updates="constant"/>\u000a        <Param name="name" val="resp" valType="code" updates="None"/>\u000a        <Param name="stopVal" val="1" valType="code" updates="constant"/>\u000a        <Param name="durationEstim" val="" valType="code" updates="None"/>\u000a        <Param name="forceEndRoutine" val="True" valType="bool" updates="constant"/>\u000a        <Param name="startEstim" val="" valType="code" updates="None"/>\u000a        <Param name="discard previous" val="True" valType="bool" updates="constant"/>\u000a        <Param name="startType" val="time (s)" valType="str" updates="None"/>\u000a        <Param name="allowedKeys" val="'t', 'y', 'g', 'h'" valType="code" updates="constant"/>\u000a        <Param name="stopType" val="duration (s)" valType="str" updates="None"/>\u000a        <Param name="startVal" val=".5" valType="code" updates="None"/>\u000a        <Param name="store" val="last key" valType="str" updates="constant"/>\u000a      </KeyboardComponent>\u000a      <TextComponent name="text">\u000a        <Param name="opacity" val="1" valType="code" updates="constant"/>\u000a        <Param name="colorSpace" val="rgb" valType="str" updates="constant"/>\u000a        <Param name="name" val="text" valType="code" updates="None"/>\u000a        <Param name="wrapWidth" val="" valType="code" updates="constant"/>\u000a        <Param name="color" val="white" valType="str" updates="constant"/>\u000a        <Param name="text" val="+" valType="str" updates="constant"/>\u000a        <Param name="stopVal" val="1.5" valType="code" updates="constant"/>\u000a        <Param name="durationEstim" val="" valType="code" updates="None"/>\u000a        <Param name="pos" val="[0, 0]" valType="code" updates="constant"/>\u000a        <Param name="flip" val="" valType="str" updates="constant"/>\u000a        <Param name="startEstim" val="" valType="code" updates="None"/>\u000a        <Param name="units" val="from exp settings" valType="str" updates="None"/>\u000a        <Param name="startType" val="time (s)" valType="str" updates="None"/>\u000a        <Param name="ori" val="0" valType="code" updates="constant"/>\u000a        <Param name="stopType" val="duration (s)" valType="str" updates="None"/>\u000a        <Param name="startVal" val="0.0" valType="code" updates="None"/>\u000a        <Param name="font" val="Arial" valType="str" updates="constant"/>\u000a        <Param name="letterHeight" val="1" valType="code" updates="constant"/>\u000a      </TextComponent>\u000a      <ImageComponent name="image_2">\u000a        <Param name="opacity" val="1" valType="code" updates="constant"/>\u000a        <Param name="flipVert" val="False" valType="bool" updates="constant"/>\u000a        <Param name="colorSpace" val="rgb" valType="str" updates="constant"/>\u000a        <Param name="name" val="image_2" valType="code" updates="None"/>\u000a        <Param name="color" val="$[1,1,1]" valType="str" updates="constant"/>\u000a        <Param name="stopVal" val="1.0" valType="code" updates="constant"/>\u000a        <Param name="durationEstim" val="" valType="code" updates="None"/>\u000a        <Param name="mask" val="None" valType="str" updates="constant"/>\u000a        <Param name="pos" val="$[xPos, yPos]" valType="code" updates="set every repeat"/>\u000a        <Param name="interpolate" val="linear" valType="str" updates="constant"/>\u000a        <Param name="startEstim" val="" valType="code" updates="None"/>\u000a        <Param name="units" val="pix" valType="str" updates="None"/>\u000a        <Param name="texture resolution" val="128" valType="code" updates="constant"/>\u000a        <Param name="startType" val="time (s)" valType="str" updates="None"/>\u000a        <Param name="ori" val="0" valType="code" updates="constant"/>\u000a        <Param name="stopType" val="duration (s)" valType="str" updates="None"/>\u000a        <Param name="startVal" val=".5" valType="code" updates="None"/>\u000a        <Param name="flipHoriz" val="False" valType="bool" updates="constant"/>\u000a        <Param name="image" val="$CurrentStimulus" valType="str" updates="set every repeat"/>\u000a        <Param name="size" val="[101, 101]" valType="code" updates="constant"/>\u000a      </ImageComponent>\u000a    </Routine>\u000a    <Routine name="StimSetup">\u000a      <CodeComponent name="code">\u000a        <Param name="Begin Experiment" val="import random&#10;Redo = 1&#10;colors = ['yellow', 'white', 'orange', 'magenta', 'green', 'gray', 'cyan', 'blue']&#10;shapes = ['triangle', 'square', 'line', 'invertedtriangle', 'hexagon', 'diamond', 'cross', 'circle']&#10;rewards = [0.5, 1, 2, 4] * 2&#10;conditions = ['go', 'go', 'go', 'go', 'stop', 'stop', 'stop', 'stop']&#10;trialDetailsList = []&#10;&#10;shuffle(colors)&#10;shuffle(shapes)&#10;&#10;for i, color in enumerate(colors): # cycle through each color and keep track of an index number&#10;    trialDetails = {} # a dictionary of key-value pairs&#10;    trialDetails['fileName'] = shapes[i] + color + '.gif'&#10;    trialDetails['reward'] = rewards[i]&#10;    trialDetails['condition'] = conditions[i]&#10;    trialDetailsList.append(trialDetails)&#10;&#10;shuffle(trialDetailsList) # do this now to ensure that order of presentation of rewards and conditions is also shuffled&#10;&#10;ConditionOne = trialDetailsList[0]&#10;ConditionTwo = trialDetailsList[1]&#10;ConditionThree = trialDetailsList[2]&#10;ConditionFour = trialDetailsList[3]&#10;ConditionFive = trialDetailsList[4]&#10;ConditionSix = trialDetailsList[5]&#10;ConditionSeven = trialDetailsList[6]&#10;ConditionEight = trialDetailsList[7]" valType="extendedCode" updates="constant"/>\u000a        <Param name="name" val="code" valType="code" updates="None"/>\u000a        <Param name="Begin Routine" val="" valType="extendedCode" updates="constant"/>\u000a        <Param name="End Routine" val="" valType="extendedCode" updates="constant"/>\u000a        <Param name="End Experiment" val="" valType="extendedCode" updates="constant"/>\u000a        <Param name="Each Frame" val="" valType="extendedCode" updates="constant"/>\u000a      </CodeComponent>\u000a    </Routine>\u000a    <Routine name="instrMain">\u000a      <TextComponent name="instr2">\u000a        <Param name="opacity" val="1" valType="code" updates="constant"/>\u000a        <Param name="colorSpace" val="rgb" valType="str" updates="constant"/>\u000a        <Param name="name" val="instr2" valType="code" updates="constant"/>\u000a        <Param name="wrapWidth" val="" valType="code" updates="constant"/>\u000a        <Param name="color" val="white" valType="str" updates="constant"/>\u000a        <Param name="text" val="OK, ready to start the main experiment?&#10;&#10;Remember, press;&#10; - 'S' if the SMALL letters are S&#10; - 'H' if the SMALL letters are H&#10;&#10;Try to respond as quickly and as accurately as possible.&#10;&#10;When you are ready to proceed press any key." valType="str" updates="constant"/>\u000a        <Param name="stopVal" val="" valType="code" updates="constant"/>\u000a        <Param name="durationEstim" val="" valType="code" updates="None"/>\u000a        <Param name="pos" val="[0, 0]" valType="code" updates="constant"/>\u000a        <Param name="flip" val="" valType="str" updates="constant"/>\u000a        <Param name="startEstim" val="" valType="code" updates="None"/>\u000a        <Param name="units" val="from exp settings" valType="str" updates="None"/>\u000a        <Param name="startType" val="time (s)" valType="str" updates="None"/>\u000a        <Param name="ori" val="0" valType="code" updates="constant"/>\u000a        <Param name="stopType" val="duration (s)" valType="str" updates="None"/>\u000a        <Param name="startVal" val="0.0" valType="code" updates="None"/>\u000a        <Param name="font" val="Arial" valType="str" updates="constant"/>\u000a        <Param name="letterHeight" val="0.075" valType="code" updates="constant"/>\u000a      </TextComponent>\u000a      <KeyboardComponent name="ok2">\u000a        <Param name="correctAns" val="" valType="str" updates="constant"/>\u000a        <Param name="storeCorrect" val="False" valType="bool" updates="constant"/>\u000a        <Param name="name" val="ok2" valType="code" updates="None"/>\u000a        <Param name="stopVal" val="" valType="code" updates="constant"/>\u000a        <Param name="durationEstim" val="" valType="code" updates="None"/>\u000a        <Param name="forceEndRoutine" val="True" valType="bool" updates="constant"/>\u000a        <Param name="startEstim" val="" valType="code" updates="None"/>\u000a        <Param name="discard previous" val="True" valType="bool" updates="constant"/>\u000a        <Param name="startType" val="time (s)" valType="str" updates="None"/>\u000a        <Param name="allowedKeys" val="" valType="code" updates="constant"/>\u000a        <Param name="stopType" val="duration (s)" valType="str" updates="None"/>\u000a        <Param name="startVal" val="0.0" valType="code" updates="None"/>\u000a        <Param name="store" val="nothing" valType="str" updates="constant"/>\u000a      </KeyboardComponent>\u000a    </Routine>\u000a    <Routine name="feedback">\u000a      <CodeComponent name="message">\u000a        <Param name="Begin Experiment" val="#message variable just needs some value at start&#10;message=0" valType="extendedCode" updates="constant"/>\u000a        <Param name="name" val="message" valType="code" updates="None"/>\u000a        <Param name="Begin Routine" val="DisplayReward = random.randrange(1, 6)&#10;&#10;if resp.corr:#stored on last run routine&#10;    if DisplayReward == 1:&#10;            message = 0;&#10;    else:&#10;        if ConditionChoice == 1:&#10;            CurrentReward = ConditionOne['reward']&#10;            message = CurrentReward + (random.randrange(-25, 26)*.01)&#10;        elif ConditionChoice == 2:&#10;            CurrentReward = ConditionTwo['reward']&#10;            message = CurrentReward + (random.randrange(-25, 26)*.01)&#10;        elif ConditionChoice == 3:&#10;            CurrentReward = ConditionThree['reward']&#10;            message = CurrentReward + (random.randrange(-25, 26)*.01)&#10;        elif ConditionChoice == 4:&#10;            CurrentReward = ConditionFour['reward']&#10;            message = CurrentReward + (random.randrange(-25, 26)*.01)&#10;        elif ConditionChoice == 5:&#10;            CurrentReward = ConditionFive['reward']&#10;            message = CurrentReward + (random.randrange(-25, 26)*.01)&#10;        elif ConditionChoice == 6:&#10;            CurrentReward = ConditionSix['reward']&#10;            message = CurrentReward + (random.randrange(-25, 26)*.01)&#10;        elif ConditionChoice == 7:&#10;            CurrentReward = ConditionSeven['reward']&#10;            message = CurrentReward + (random.randrange(-25, 26)*.01)&#10;        elif ConditionChoice == 8:&#10;            CurrentReward = ConditionEight['reward']&#10;            message = CurrentReward + (random.randrange(-25, 26)*.01)&#10;elif resp.keys is None: #or len(key_resp.keys)&lt;1:&#10;#elif resp.rt == 0:&#10;    message =&quot;Too Slow&quot;&#10;else:&#10;  message=&quot;Wrong&quot;&#10;&#10;if resp.corr:#stored on last run routine&#10;    Redo = 1; &#10;else:&#10;    Redo = Redo + 1;&#10;&#10;#if DisplayReward == 1:&#10;#    message = 0;&#10;#else:&#10;#    message = CurrentReward + (random.randrange(-25, 26)*.01)&#10;&#10;#  message=&quot;Correct! RT=%.3f&quot; %(resp.rt)" valType="extendedCode" updates="constant"/>\u000a        <Param name="End Routine" val="" valType="extendedCode" updates="constant"/>\u000a        <Param name="End Experiment" val="" valType="extendedCode" updates="constant"/>\u000a        <Param name="Each Frame" val="" valType="extendedCode" updates="constant"/>\u000a      </CodeComponent>\u000a      <TextComponent name="feedback_2">\u000a        <Param name="opacity" val="1" valType="code" updates="constant"/>\u000a        <Param name="colorSpace" val="rgb" valType="str" updates="constant"/>\u000a        <Param name="name" val="feedback_2" valType="code" updates="constant"/>\u000a        <Param name="wrapWidth" val="" valType="code" updates="constant"/>\u000a        <Param name="color" val="$[1,1,1]" valType="str" updates="constant"/>\u000a        <Param name="text" val="$message" valType="str" updates="set every repeat"/>\u000a        <Param name="stopVal" val="1.0" valType="code" updates="constant"/>\u000a        <Param name="durationEstim" val="" valType="code" updates="None"/>\u000a        <Param name="pos" val="[0, 0]" valType="code" updates="constant"/>\u000a        <Param name="flip" val="" valType="str" updates="constant"/>\u000a        <Param name="startEstim" val="" valType="code" updates="None"/>\u000a        <Param name="units" val="from exp settings" valType="str" updates="None"/>\u000a        <Param name="startType" val="time (s)" valType="str" updates="None"/>\u000a        <Param name="ori" val="0" valType="code" updates="constant"/>\u000a        <Param name="stopType" val="duration (s)" valType="str" updates="None"/>\u000a        <Param name="startVal" val="0.0" valType="code" updates="None"/>\u000a        <Param name="font" val="Arial" valType="str" updates="constant"/>\u000a        <Param name="letterHeight" val="0.1" valType="code" updates="constant"/>\u000a      </TextComponent>\u000a    </Routine>\u000a    <Routine name="instrPractice">\u000a      <TextComponent name="instruct1">\u000a        <Param name="opacity" val="1" valType="code" updates="constant"/>\u000a        <Param name="colorSpace" val="rgb" valType="str" updates="constant"/>\u000a        <Param name="name" val="instruct1" valType="code" updates="constant"/>\u000a        <Param name="wrapWidth" val="" valType="code" updates="constant"/>\u000a        <Param name="color" val="white" valType="str" updates="constant"/>\u000a        <Param name="text" val="A shape stimulus will appear on every trial. &#10;&#10;If it appears in the upper right quadrant, PRESS Y&#10;&#10;If it appears in the lower right quadrant, PRESS H&#10;&#10;If it appears in the lower left quadrant, PRESS G&#10;&#10;If it appears in the upper left quadrant, PRESS T&#10;&#10;Press any key when you are ready to proceed. " valType="str" updates="constant"/>\u000a        <Param name="stopVal" val="" valType="code" updates="constant"/>\u000a        <Param name="durationEstim" val="" valType="code" updates="None"/>\u000a        <Param name="pos" val="[0, 0]" valType="code" updates="constant"/>\u000a        <Param name="flip" val="" valType="str" updates="constant"/>\u000a        <Param name="startEstim" val="" valType="code" updates="None"/>\u000a        <Param name="units" val="from exp settings" valType="str" updates="None"/>\u000a        <Param name="startType" val="time (s)" valType="str" updates="None"/>\u000a        <Param name="ori" val="0" valType="code" updates="constant"/>\u000a        <Param name="stopType" val="duration (s)" valType="str" updates="None"/>\u000a        <Param name="startVal" val="0.0" valType="code" updates="None"/>\u000a        <Param name="font" val="Arial" valType="str" updates="constant"/>\u000a        <Param name="letterHeight" val="0.07" valType="code" updates="constant"/>\u000a      </TextComponent>\u000a      <KeyboardComponent name="ok1">\u000a        <Param name="correctAns" val="" valType="str" updates="constant"/>\u000a        <Param name="storeCorrect" val="False" valType="bool" updates="constant"/>\u000a        <Param name="name" val="ok1" valType="code" updates="None"/>\u000a        <Param name="stopVal" val="" valType="code" updates="constant"/>\u000a        <Param name="durationEstim" val="" valType="code" updates="None"/>\u000a        <Param name="forceEndRoutine" val="True" valType="bool" updates="constant"/>\u000a        <Param name="startEstim" val="" valType="code" updates="None"/>\u000a        <Param name="discard previous" val="True" valType="bool" updates="constant"/>\u000a        <Param name="startType" val="time (s)" valType="str" updates="None"/>\u000a        <Param name="allowedKeys" val="" valType="code" updates="constant"/>\u000a        <Param name="stopType" val="duration (s)" valType="str" updates="None"/>\u000a        <Param name="startVal" val="0.0" valType="code" updates="None"/>\u000a        <Param name="store" val="last key" valType="str" updates="constant"/>\u000a      </KeyboardComponent>\u000a    </Routine>\u000a  </Routines>\u000a  <Flow>\u000a    <Routine name="StimSetup"/>\u000a    <Routine name="instrPractice"/>\u000a    <LoopInitiator loopType="TrialHandler" name="practiceTrials">\u000a      <Param name="conditionsFile" val="Trialtypes5.xlsx" valType="str" updates="None"/>\u000a      <Param name="name" val="practiceTrials" valType="code" updates="None"/>\u000a      <Param name="isTrials" val="True" valType="bool" updates="None"/>\u000a      <Param name="random seed" val="" valType="code" updates="None"/>\u000a      <Param name="loopType" val="random" valType="str" updates="None"/>\u000a      <Param name="nReps" val="1" valType="num" updates="None"/>\u000a      <Param name="endPoints" val="[1, 2]" valType="num" updates="None"/>\u000a      <Param name="conditions" val="[{u'xPos': 200, u'corrAns': u'y', u'yPos': 200}, {u'xPos': -200, u'corrAns': u't', u'yPos': 200}, {u'xPos': 200, u'corrAns': u'h', u'yPos': -200}, {u'xPos': -200, u'corrAns': u'g', u'yPos': -200}]" valType="str" updates="None"/>\u000a      <Param name="Selected rows" val="" valType="str" updates="None"/>\u000a    </LoopInitiator>\u000a    <LoopInitiator loopType="TrialHandler" name="ReDoLoop">\u000a      <Param name="conditionsFile" val="" valType="str" updates="None"/>\u000a      <Param name="name" val="ReDoLoop" valType="code" updates="None"/>\u000a      <Param name="isTrials" val="True" valType="bool" updates="None"/>\u000a      <Param name="random seed" val="" valType="code" updates="None"/>\u000a      <Param name="loopType" val="random" valType="str" updates="None"/>\u000a      <Param name="nReps" val="$Redo" valType="code" updates="None"/>\u000a      <Param name="endPoints" val="[0, 1]" valType="num" updates="None"/>\u000a      <Param name="conditions" val="None" valType="str" updates="None"/>\u000a      <Param name="Selected rows" val="" valType="str" updates="None"/>\u000a    </LoopInitiator>\u000a    <Routine name="trial"/>\u000a    <Routine name="feedback"/>\u000a    <LoopTerminator name="ReDoLoop"/>\u000a    <LoopTerminator name="practiceTrials"/>\u000a    <Routine name="instrMain"/>\u000a    <LoopInitiator loopType="TrialHandler" name="trials">\u000a      <Param name="conditionsFile" val="Trialtypes5.xlsx" valType="str" updates="None"/>\u000a      <Param name="name" val="trials" valType="code" updates="None"/>\u000a      <Param name="isTrials" val="True" valType="bool" updates="None"/>\u000a      <Param name="random seed" val="" valType="code" updates="None"/>\u000a      <Param name="loopType" val="random" valType="str" updates="None"/>\u000a      <Param name="nReps" val="10" valType="num" updates="None"/>\u000a      <Param name="endPoints" val="[0, 1]" valType="num" updates="None"/>\u000a      <Param name="conditions" val="[{u'xPos': 200, u'corrAns': u'y', u'yPos': 200}, {u'xPos': -200, u'corrAns': u't', u'yPos': 200}, {u'xPos': 200, u'corrAns': u'h', u'yPos': -200}, {u'xPos': -200, u'corrAns': u'g', u'yPos': -200}]" valType="str" updates="None"/>\u000a      <Param name="Selected rows" val="" valType="str" updates="None"/>\u000a    </LoopInitiator>\u000a    <Routine name="trial"/>\u000a    <Routine name="feedback"/>\u000a    <LoopTerminator name="trials"/>\u000a  </Flow>\u000a</PsychoPy2experiment>\u000a
p341
sg43
(lp342
sg51
I244417904
sg11
g288
sg6
g7
sg53
I2
sg20
I01
sg21
g22
sg54
g1
(g55
g45
(dp343
g57
g58
(g59
g60
g61
S'b'
tRp344
(I1
(I1
I2
tg63
I00
S'\x00\x00\x80?\x00\x00\x80?'
S'\x00\x00'
Ntbsg17
g64
(g60
(I0
tS'b'
tRp345
(I1
(I1
I2
tg66
I00
(lp346
S'h'
aS'h'
atbsg18
g58
(g59
g60
g61
S'b'
tRp347
(I1
(I1
I2
tg63
I00
S'\x00\x00\x80?\x00\x00\x80?'
S'\x00\x00'
Ntbsg103
g58
(g59
g60
g61
S'b'
tRp348
(I1
(I1
I2
tg63
I00
S'\x00\x00\x00\x00\x00\x00\x80?'
S'\x00\x00'
Ntbsg19
g58
(g59
g60
g61
S'b'
tRp349
(I1
(I1
I2
tg63
I00
S'p\xe5\xd5>H\x94\xc4>'
S'\x00\x00'
NtbstRp350
(dp351
g108
(dp352
g57
I01
sg17
I00
sg19
I01
sg103
I01
sg18
I01
ssg52
g339
sg110
(lp353
g57
ag103
ag17
ag18
ag19
asg112
(lp354
I1
aI2
asbsg114
g115
sg116
g64
(g60
(I0
tS'b'
tRp355
(I1
(I1
I2
tg118
I01
S'\x00\x00\x00\x00\x00\x00\x00\x00'
tbsg119
I01
sg120
I2
sg121
I-1
sg122
(lp356
Nasg130
Nsg131
g216
sg133
I2
sg134
I0
sg135
I2
sg136
I01
sbag39
asS'savePickle'
p357
I00
sb.